
emul/bin.elf:     file format elf32-tradlittlemips


Disassembly of section .text:

bfc00000 <_start_>:
handle_int():
interupt.S:68
SAVE_ALL  //    保存寄存器值

jal signal_int
j   timer_irq  // 现在只处理时钟中断引起的 进程调度

nop
bfc00000:	3c1a9070 	lui	k0,0x9070
bfc00004:	275afe00 	addiu	k0,k0,-512
bfc00008:	0340e821 	move	sp,k0
bfc0000c:	0bf00608 	j	bfc01820 <main>
bfc00010:	00000000 	nop

bfc00014 <start_timer>:
bfc00014:	3c1ba000 	lui	k1,0xa000
bfc00018:	3c030000 	lui	v1,0x0
bfc0001c:	34630271 	ori	v1,v1,0x271
bfc00020:	af630204 	sw	v1,516(k1)
bfc00024:	24030001 	li	v1,1
bfc00028:	af630200 	sw	v1,512(k1)
bfc0002c:	401a6000 	mfc0	k0,c0_sr
bfc00030:	375a2001 	ori	k0,k0,0x2001
bfc00034:	409a6000 	mtc0	k0,c0_sr
bfc00038:	03e00008 	jr	ra
bfc0003c:	00000000 	nop

bfc00040 <uput>:
bfc00040:	3c08a000 	lui	t0,0xa000
bfc00044:	ad020700 	sw	v0,1792(t0)
bfc00048:	03e00008 	jr	ra
bfc0004c:	00000000 	nop
	...

bfc00380 <exc_entry>:
bfc00380:	401a6000 	mfc0	k0,c0_sr
bfc00384:	375a0001 	ori	k0,k0,0x1
bfc00388:	3b5a0001 	xori	k0,k0,0x1
bfc0038c:	409a6000 	mtc0	k0,c0_sr
bfc00390:	0bf00d04 	j	bfc03410 <handle_sys>
bfc00394:	00000000 	nop
	...

bfc00400 <int_entry>:
bfc00400:	401b6800 	mfc0	k1,c0_cause
bfc00404:	3c1a9000 	lui	k0,0x9000
bfc00408:	275a3210 	addiu	k0,k0,12816
bfc0040c:	337b007c 	andi	k1,k1,0x7c
bfc00410:	035bd021 	addu	k0,k0,k1
bfc00414:	8f5a0000 	lw	k0,0(k0)
bfc00418:	00000000 	nop
bfc0041c:	03400008 	jr	k0
bfc00420:	00000000 	nop
	...

bfc00800 <printcharc>:
printcharc():
/home/fmars/MIPS_OS/console.c:50

void    delay_loop( void ) ;


void printcharc(unsigned char ch)
{
bfc00800:	27bdffe0 	addiu	sp,sp,-32
bfc00804:	afbf001c 	sw	ra,28(sp)
bfc00808:	afbe0018 	sw	s8,24(sp)
bfc0080c:	03a0f021 	move	s8,sp
bfc00810:	00801021 	move	v0,a0
bfc00814:	a3c20020 	sb	v0,32(s8)
/home/fmars/MIPS_OS/console.c:62
    //while ( !p_uart->lsr.thre )
     //   ;
//	p_uart->data = ch ;	
//	*((volatile unsigned char *) PUTCHAR_ADDRESS) = ch;
	//delay_loop();
	int t = ch;
bfc00818:	93c20020 	lbu	v0,32(s8)
bfc0081c:	00000000 	nop
bfc00820:	afc20010 	sw	v0,16(s8)
/home/fmars/MIPS_OS/console.c:64
//	int p = 0;
	uput(t);
bfc00824:	8fc20010 	lw	v0,16(s8)
bfc00828:	00000000 	nop
bfc0082c:	00402021 	move	a0,v0
bfc00830:	0ff00010 	jal	bfc00040 <uput>
bfc00834:	00000000 	nop
/home/fmars/MIPS_OS/console.c:66
//`	uput(p);
}
bfc00838:	03c0e821 	move	sp,s8
bfc0083c:	8fbf001c 	lw	ra,28(sp)
bfc00840:	8fbe0018 	lw	s8,24(sp)
bfc00844:	27bd0020 	addiu	sp,sp,32
bfc00848:	03e00008 	jr	ra
bfc0084c:	00000000 	nop

bfc00850 <halt>:
halt():
/home/fmars/MIPS_OS/console.c:70


void halt(void)
{
bfc00850:	27bdfff8 	addiu	sp,sp,-8
bfc00854:	afbe0004 	sw	s8,4(sp)
bfc00858:	03a0f021 	move	s8,sp
/home/fmars/MIPS_OS/console.c:71
	*((volatile unsigned char *) HALT_ADDRESS) = 0;
bfc0085c:	3c02a000 	lui	v0,0xa000
bfc00860:	34420510 	ori	v0,v0,0x510
bfc00864:	a0400000 	sb	zero,0(v0)
/home/fmars/MIPS_OS/console.c:72
}
bfc00868:	03c0e821 	move	sp,s8
bfc0086c:	8fbe0004 	lw	s8,4(sp)
bfc00870:	27bd0008 	addiu	sp,sp,8
bfc00874:	03e00008 	jr	ra
bfc00878:	00000000 	nop

bfc0087c <printstr>:
printstr():
/home/fmars/MIPS_OS/console.c:77



void printstr(unsigned char *s)
{
bfc0087c:	27bdffe8 	addiu	sp,sp,-24
bfc00880:	afbf0014 	sw	ra,20(sp)
bfc00884:	afbe0010 	sw	s8,16(sp)
bfc00888:	03a0f021 	move	s8,sp
bfc0088c:	afc40018 	sw	a0,24(s8)
/home/fmars/MIPS_OS/console.c:78
	while (*s)
bfc00890:	0bf00230 	j	bfc008c0 <printstr+0x44>
bfc00894:	00000000 	nop
/home/fmars/MIPS_OS/console.c:79
	   printcharc(*s++);
bfc00898:	8fc20018 	lw	v0,24(s8)
bfc0089c:	00000000 	nop
bfc008a0:	90420000 	lbu	v0,0(v0)
bfc008a4:	8fc30018 	lw	v1,24(s8)
bfc008a8:	00000000 	nop
bfc008ac:	24630001 	addiu	v1,v1,1
bfc008b0:	afc30018 	sw	v1,24(s8)
bfc008b4:	00402021 	move	a0,v0
bfc008b8:	0ff00200 	jal	bfc00800 <printcharc>
bfc008bc:	00000000 	nop
/home/fmars/MIPS_OS/console.c:78



void printstr(unsigned char *s)
{
	while (*s)
bfc008c0:	8fc20018 	lw	v0,24(s8)
bfc008c4:	00000000 	nop
bfc008c8:	90420000 	lbu	v0,0(v0)
bfc008cc:	00000000 	nop
bfc008d0:	1440fff1 	bnez	v0,bfc00898 <printstr+0x1c>
bfc008d4:	00000000 	nop
/home/fmars/MIPS_OS/console.c:80
	   printcharc(*s++);
}
bfc008d8:	03c0e821 	move	sp,s8
bfc008dc:	8fbf0014 	lw	ra,20(sp)
bfc008e0:	8fbe0010 	lw	s8,16(sp)
bfc008e4:	27bd0018 	addiu	sp,sp,24
bfc008e8:	03e00008 	jr	ra
bfc008ec:	00000000 	nop

bfc008f0 <delay_loop>:
delay_loop():
/home/fmars/MIPS_OS/console.c:85



void    delay_loop(void)
{
bfc008f0:	27bdfff0 	addiu	sp,sp,-16
bfc008f4:	afbe000c 	sw	s8,12(sp)
bfc008f8:	03a0f021 	move	s8,sp
/home/fmars/MIPS_OS/console.c:87
    int j ;
    for ( j=0; j<LOOP_DELAY/1000; j++ ) 
bfc008fc:	afc00000 	sw	zero,0(s8)
bfc00900:	0bf00246 	j	bfc00918 <delay_loop+0x28>
bfc00904:	00000000 	nop
bfc00908:	8fc20000 	lw	v0,0(s8)
bfc0090c:	00000000 	nop
bfc00910:	24420001 	addiu	v0,v0,1
bfc00914:	afc20000 	sw	v0,0(s8)
bfc00918:	8fc20000 	lw	v0,0(s8)
bfc0091c:	00000000 	nop
bfc00920:	28420068 	slti	v0,v0,104
bfc00924:	1440fff8 	bnez	v0,bfc00908 <delay_loop+0x18>
bfc00928:	00000000 	nop
/home/fmars/MIPS_OS/console.c:89
        ;
}
bfc0092c:	03c0e821 	move	sp,s8
bfc00930:	8fbe000c 	lw	s8,12(sp)
bfc00934:	27bd0010 	addiu	sp,sp,16
bfc00938:	03e00008 	jr	ra
bfc0093c:	00000000 	nop

bfc00940 <mkenvid>:
mkenvid():
/home/fmars/MIPS_OS/env.c:34




unsigned int mkenvid(struct Env *e)  // 分配一个进程号
{
bfc00940:	27bdfff0 	addiu	sp,sp,-16
bfc00944:	afbe000c 	sw	s8,12(sp)
bfc00948:	03a0f021 	move	s8,sp
bfc0094c:	afc40010 	sw	a0,16(s8)
/home/fmars/MIPS_OS/env.c:38
	static unsigned long  next_env_id = 0;
	
	// lower bits of envid hold e's position in the envs array
	unsigned int  idx = e - envs;
bfc00950:	8fc30010 	lw	v1,16(s8)
bfc00954:	3c029000 	lui	v0,0x9000
bfc00958:	24420010 	addiu	v0,v0,16
bfc0095c:	00621023 	subu	v0,v1,v0
bfc00960:	000220c3 	sra	a0,v0,0x3
bfc00964:	00801821 	move	v1,a0
bfc00968:	00031100 	sll	v0,v1,0x4
bfc0096c:	00401821 	move	v1,v0
bfc00970:	00031080 	sll	v0,v1,0x2
bfc00974:	00431023 	subu	v0,v0,v1
bfc00978:	00021980 	sll	v1,v0,0x6
bfc0097c:	00431021 	addu	v0,v0,v1
bfc00980:	00441021 	addu	v0,v0,a0
bfc00984:	00021080 	sll	v0,v0,0x2
bfc00988:	00441023 	subu	v0,v0,a0
bfc0098c:	00021c80 	sll	v1,v0,0x12
bfc00990:	00431021 	addu	v0,v0,v1
bfc00994:	00021023 	negu	v0,v0
bfc00998:	afc20000 	sw	v0,0(s8)
/home/fmars/MIPS_OS/env.c:42


	// high bits of envid hold an increasing number
	return (++next_env_id << (1 + LOG2NENV)) | idx; 
bfc0099c:	3c029000 	lui	v0,0x9000
bfc009a0:	8c423294 	lw	v0,12948(v0)
bfc009a4:	00000000 	nop
bfc009a8:	24430001 	addiu	v1,v0,1
bfc009ac:	3c029000 	lui	v0,0x9000
bfc009b0:	ac433294 	sw	v1,12948(v0)
bfc009b4:	3c029000 	lui	v0,0x9000
bfc009b8:	8c423294 	lw	v0,12948(v0)
bfc009bc:	00000000 	nop
bfc009c0:	000219c0 	sll	v1,v0,0x7
bfc009c4:	8fc20000 	lw	v0,0(s8)
bfc009c8:	00000000 	nop
bfc009cc:	00621025 	or	v0,v1,v0
/home/fmars/MIPS_OS/env.c:43
}
bfc009d0:	03c0e821 	move	sp,s8
bfc009d4:	8fbe000c 	lw	s8,12(sp)
bfc009d8:	27bd0010 	addiu	sp,sp,16
bfc009dc:	03e00008 	jr	ra
bfc009e0:	00000000 	nop

bfc009e4 <env_init>:
env_init():
/home/fmars/MIPS_OS/env.c:47

void
env_init(void)
{
bfc009e4:	27bdffe0 	addiu	sp,sp,-32
bfc009e8:	afbf001c 	sw	ra,28(sp)
bfc009ec:	afbe0018 	sw	s8,24(sp)
bfc009f0:	03a0f021 	move	s8,sp
/home/fmars/MIPS_OS/env.c:51
	int i;
	struct Env *e;

	LIST_INIT(&env_free_list);	
bfc009f4:	3c029000 	lui	v0,0x9000
bfc009f8:	ac403290 	sw	zero,12944(v0)
/home/fmars/MIPS_OS/env.c:52
	for(i = NENV - 1; i >0; i--) // !! envs[0] reserved for idle process pds----------
bfc009fc:	2402003f 	li	v0,63
bfc00a00:	afc20010 	sw	v0,16(s8)
bfc00a04:	0bf002de 	j	bfc00b78 <env_init+0x194>
bfc00a08:	00000000 	nop
/home/fmars/MIPS_OS/env.c:54
	{
		envs[i].env_status = ENV_FREE;
bfc00a0c:	3c039000 	lui	v1,0x9000
bfc00a10:	8fc20010 	lw	v0,16(s8)
bfc00a14:	24640010 	addiu	a0,v1,16
bfc00a18:	00401821 	move	v1,v0
bfc00a1c:	000310c0 	sll	v0,v1,0x3
bfc00a20:	00401821 	move	v1,v0
bfc00a24:	00031080 	sll	v0,v1,0x2
bfc00a28:	00431023 	subu	v0,v0,v1
bfc00a2c:	000218c0 	sll	v1,v0,0x3
bfc00a30:	00621023 	subu	v0,v1,v0
bfc00a34:	00821021 	addu	v0,a0,v0
bfc00a38:	ac40009c 	sw	zero,156(v0)
/home/fmars/MIPS_OS/env.c:55
		LIST_INSERT_HEAD(&env_free_list, &envs[i], env_link);
bfc00a3c:	3c029000 	lui	v0,0x9000
bfc00a40:	8c443290 	lw	a0,12944(v0)
bfc00a44:	3c059000 	lui	a1,0x9000
bfc00a48:	8fc20010 	lw	v0,16(s8)
bfc00a4c:	00000000 	nop
bfc00a50:	00401821 	move	v1,v0
bfc00a54:	000310c0 	sll	v0,v1,0x3
bfc00a58:	00401821 	move	v1,v0
bfc00a5c:	00031080 	sll	v0,v1,0x2
bfc00a60:	00431023 	subu	v0,v0,v1
bfc00a64:	000218c0 	sll	v1,v0,0x3
bfc00a68:	00621823 	subu	v1,v1,v0
bfc00a6c:	24a20010 	addiu	v0,a1,16
bfc00a70:	00621021 	addu	v0,v1,v0
bfc00a74:	ac4400a0 	sw	a0,160(v0)
bfc00a78:	3c049000 	lui	a0,0x9000
bfc00a7c:	8fc20010 	lw	v0,16(s8)
bfc00a80:	00000000 	nop
bfc00a84:	00401821 	move	v1,v0
bfc00a88:	000310c0 	sll	v0,v1,0x3
bfc00a8c:	00401821 	move	v1,v0
bfc00a90:	00031080 	sll	v0,v1,0x2
bfc00a94:	00431023 	subu	v0,v0,v1
bfc00a98:	000218c0 	sll	v1,v0,0x3
bfc00a9c:	00621823 	subu	v1,v1,v0
bfc00aa0:	24820010 	addiu	v0,a0,16
bfc00aa4:	00621021 	addu	v0,v1,v0
bfc00aa8:	8c4200a0 	lw	v0,160(v0)
bfc00aac:	00000000 	nop
bfc00ab0:	10400011 	beqz	v0,bfc00af8 <env_init+0x114>
bfc00ab4:	00000000 	nop
bfc00ab8:	3c029000 	lui	v0,0x9000
bfc00abc:	8c443290 	lw	a0,12944(v0)
bfc00ac0:	8fc20010 	lw	v0,16(s8)
bfc00ac4:	00000000 	nop
bfc00ac8:	00401821 	move	v1,v0
bfc00acc:	000310c0 	sll	v0,v1,0x3
bfc00ad0:	00401821 	move	v1,v0
bfc00ad4:	00031080 	sll	v0,v1,0x2
bfc00ad8:	00431023 	subu	v0,v0,v1
bfc00adc:	000218c0 	sll	v1,v0,0x3
bfc00ae0:	00621823 	subu	v1,v1,v0
bfc00ae4:	246300a0 	addiu	v1,v1,160
bfc00ae8:	3c029000 	lui	v0,0x9000
bfc00aec:	24420010 	addiu	v0,v0,16
bfc00af0:	00621021 	addu	v0,v1,v0
bfc00af4:	ac8200a4 	sw	v0,164(a0)
bfc00af8:	8fc20010 	lw	v0,16(s8)
bfc00afc:	00000000 	nop
bfc00b00:	00401821 	move	v1,v0
bfc00b04:	000310c0 	sll	v0,v1,0x3
bfc00b08:	00401821 	move	v1,v0
bfc00b0c:	00031080 	sll	v0,v1,0x2
bfc00b10:	00431023 	subu	v0,v0,v1
bfc00b14:	000218c0 	sll	v1,v0,0x3
bfc00b18:	00621823 	subu	v1,v1,v0
bfc00b1c:	3c029000 	lui	v0,0x9000
bfc00b20:	24420010 	addiu	v0,v0,16
bfc00b24:	00621821 	addu	v1,v1,v0
bfc00b28:	3c029000 	lui	v0,0x9000
bfc00b2c:	ac433290 	sw	v1,12944(v0)
bfc00b30:	3c039000 	lui	v1,0x9000
bfc00b34:	8fc20010 	lw	v0,16(s8)
bfc00b38:	24640010 	addiu	a0,v1,16
bfc00b3c:	00401821 	move	v1,v0
bfc00b40:	000310c0 	sll	v0,v1,0x3
bfc00b44:	00401821 	move	v1,v0
bfc00b48:	00031080 	sll	v0,v1,0x2
bfc00b4c:	00431023 	subu	v0,v0,v1
bfc00b50:	000218c0 	sll	v1,v0,0x3
bfc00b54:	00621023 	subu	v0,v1,v0
bfc00b58:	00821021 	addu	v0,a0,v0
bfc00b5c:	3c039000 	lui	v1,0x9000
bfc00b60:	24633290 	addiu	v1,v1,12944
bfc00b64:	ac4300a4 	sw	v1,164(v0)
/home/fmars/MIPS_OS/env.c:52
{
	int i;
	struct Env *e;

	LIST_INIT(&env_free_list);	
	for(i = NENV - 1; i >0; i--) // !! envs[0] reserved for idle process pds----------
bfc00b68:	8fc20010 	lw	v0,16(s8)
bfc00b6c:	00000000 	nop
bfc00b70:	2442ffff 	addiu	v0,v0,-1
bfc00b74:	afc20010 	sw	v0,16(s8)
bfc00b78:	8fc20010 	lw	v0,16(s8)
bfc00b7c:	00000000 	nop
bfc00b80:	1c40ffa2 	bgtz	v0,bfc00a0c <env_init+0x28>
bfc00b84:	00000000 	nop
/home/fmars/MIPS_OS/env.c:66
	{
             printf("Free Env List %d addr: 0x%x\n",i,e);
             e=e->env_link.le_next;
         }*/

	printf("env.c:\t env_init() successful!\n");
bfc00b88:	3c02bfc0 	lui	v0,0xbfc0
bfc00b8c:	24443a70 	addiu	a0,v0,14960
bfc00b90:	0ff0080c 	jal	bfc02030 <printf>
bfc00b94:	00000000 	nop
/home/fmars/MIPS_OS/env.c:67
}
bfc00b98:	03c0e821 	move	sp,s8
bfc00b9c:	8fbf001c 	lw	ra,28(sp)
bfc00ba0:	8fbe0018 	lw	s8,24(sp)
bfc00ba4:	27bd0020 	addiu	sp,sp,32
bfc00ba8:	03e00008 	jr	ra
bfc00bac:	00000000 	nop

bfc00bb0 <env_alloc>:
env_alloc():
/home/fmars/MIPS_OS/env.c:72


int
env_alloc(struct Env **new)
{
bfc00bb0:	27bdffe0 	addiu	sp,sp,-32
bfc00bb4:	afbf001c 	sw	ra,28(sp)
bfc00bb8:	afbe0018 	sw	s8,24(sp)
bfc00bbc:	03a0f021 	move	s8,sp
bfc00bc0:	afc40020 	sw	a0,32(s8)
/home/fmars/MIPS_OS/env.c:76
	int id;
	struct Env *e;

	if (!(e = LIST_FIRST(&env_free_list))) 
bfc00bc4:	3c029000 	lui	v0,0x9000
bfc00bc8:	8c423290 	lw	v0,12944(v0)
bfc00bcc:	00000000 	nop
bfc00bd0:	afc20010 	sw	v0,16(s8)
bfc00bd4:	8fc20010 	lw	v0,16(s8)
bfc00bd8:	00000000 	nop
bfc00bdc:	14400004 	bnez	v0,bfc00bf0 <env_alloc+0x40>
bfc00be0:	00000000 	nop
/home/fmars/MIPS_OS/env.c:77
		return -1;
bfc00be4:	2402ffff 	li	v0,-1
bfc00be8:	0bf00335 	j	bfc00cd4 <env_alloc+0x124>
bfc00bec:	00000000 	nop
/home/fmars/MIPS_OS/env.c:79

	e->env_id = mkenvid(e);
bfc00bf0:	8fc40010 	lw	a0,16(s8)
bfc00bf4:	0ff00250 	jal	bfc00940 <mkenvid>
bfc00bf8:	00000000 	nop
bfc00bfc:	00401821 	move	v1,v0
bfc00c00:	8fc20010 	lw	v0,16(s8)
bfc00c04:	00000000 	nop
bfc00c08:	ac430098 	sw	v1,152(v0)
/home/fmars/MIPS_OS/env.c:80
	e->env_status = ENV_RUNNABLE;
bfc00c0c:	8fc20010 	lw	v0,16(s8)
bfc00c10:	24030001 	li	v1,1
bfc00c14:	ac43009c 	sw	v1,156(v0)
/home/fmars/MIPS_OS/env.c:82

	id=ENVX(e->env_id);
bfc00c18:	8fc20010 	lw	v0,16(s8)
bfc00c1c:	00000000 	nop
bfc00c20:	8c420098 	lw	v0,152(v0)
bfc00c24:	00000000 	nop
bfc00c28:	3042003f 	andi	v0,v0,0x3f
bfc00c2c:	afc20014 	sw	v0,20(s8)
/home/fmars/MIPS_OS/env.c:83
	e->env_tf.regs[29] = ID2UTOP(id+1)-1;   // 此处设定你规定的用户程序SP栈指针值
bfc00c30:	8fc20014 	lw	v0,20(s8)
bfc00c34:	00000000 	nop
bfc00c38:	24420001 	addiu	v0,v0,1
bfc00c3c:	00021500 	sll	v0,v0,0x14
bfc00c40:	00401821 	move	v1,v0
bfc00c44:	3c028000 	lui	v0,0x8000
bfc00c48:	00621821 	addu	v1,v1,v0
bfc00c4c:	8fc20010 	lw	v0,16(s8)
bfc00c50:	00000000 	nop
bfc00c54:	ac430074 	sw	v1,116(v0)
/home/fmars/MIPS_OS/env.c:84
	e->env_tf.cp0_status = 0x0003FC00;
bfc00c58:	8fc20010 	lw	v0,16(s8)
bfc00c5c:	3c030003 	lui	v1,0x3
bfc00c60:	3463fc00 	ori	v1,v1,0xfc00
bfc00c64:	ac430080 	sw	v1,128(v0)
/home/fmars/MIPS_OS/env.c:86
 
	LIST_REMOVE(e, env_link);
bfc00c68:	8fc20010 	lw	v0,16(s8)
bfc00c6c:	00000000 	nop
bfc00c70:	8c4200a0 	lw	v0,160(v0)
bfc00c74:	00000000 	nop
bfc00c78:	10400009 	beqz	v0,bfc00ca0 <env_alloc+0xf0>
bfc00c7c:	00000000 	nop
bfc00c80:	8fc20010 	lw	v0,16(s8)
bfc00c84:	00000000 	nop
bfc00c88:	8c4200a0 	lw	v0,160(v0)
bfc00c8c:	8fc30010 	lw	v1,16(s8)
bfc00c90:	00000000 	nop
bfc00c94:	8c6300a4 	lw	v1,164(v1)
bfc00c98:	00000000 	nop
bfc00c9c:	ac4300a4 	sw	v1,164(v0)
bfc00ca0:	8fc20010 	lw	v0,16(s8)
bfc00ca4:	00000000 	nop
bfc00ca8:	8c4200a4 	lw	v0,164(v0)
bfc00cac:	8fc30010 	lw	v1,16(s8)
bfc00cb0:	00000000 	nop
bfc00cb4:	8c6300a0 	lw	v1,160(v1)
bfc00cb8:	00000000 	nop
bfc00cbc:	ac430000 	sw	v1,0(v0)
/home/fmars/MIPS_OS/env.c:87
  	*new=e;
bfc00cc0:	8fc20020 	lw	v0,32(s8)
bfc00cc4:	8fc30010 	lw	v1,16(s8)
bfc00cc8:	00000000 	nop
bfc00ccc:	ac430000 	sw	v1,0(v0)
/home/fmars/MIPS_OS/env.c:89

	return 0;
bfc00cd0:	00001021 	move	v0,zero
/home/fmars/MIPS_OS/env.c:90
}
bfc00cd4:	03c0e821 	move	sp,s8
bfc00cd8:	8fbf001c 	lw	ra,28(sp)
bfc00cdc:	8fbe0018 	lw	s8,24(sp)
bfc00ce0:	27bd0020 	addiu	sp,sp,32
bfc00ce4:	03e00008 	jr	ra
bfc00ce8:	00000000 	nop

bfc00cec <load_icode>:
load_icode():
/home/fmars/MIPS_OS/env.c:95


static void
load_icode(struct Env *e, u_char *binary, u_int size) 
{
bfc00cec:	27bdfff0 	addiu	sp,sp,-16
bfc00cf0:	afbe000c 	sw	s8,12(sp)
bfc00cf4:	03a0f021 	move	s8,sp
bfc00cf8:	afc40010 	sw	a0,16(s8)
bfc00cfc:	afc50014 	sw	a1,20(s8)
bfc00d00:	afc60018 	sw	a2,24(s8)
/home/fmars/MIPS_OS/env.c:98
	int id;

	id=ENVX(e->env_id);
bfc00d04:	8fc20010 	lw	v0,16(s8)
bfc00d08:	00000000 	nop
bfc00d0c:	8c420098 	lw	v0,152(v0)
bfc00d10:	00000000 	nop
bfc00d14:	3042003f 	andi	v0,v0,0x3f
bfc00d18:	afc20000 	sw	v0,0(s8)
/home/fmars/MIPS_OS/env.c:100

	binary+=0x1000;
bfc00d1c:	8fc20014 	lw	v0,20(s8)
bfc00d20:	00000000 	nop
bfc00d24:	24421000 	addiu	v0,v0,4096
bfc00d28:	afc20014 	sw	v0,20(s8)
/home/fmars/MIPS_OS/env.c:102

    e->env_tf.pc=binary-0x4;
bfc00d2c:	8fc20014 	lw	v0,20(s8)
bfc00d30:	00000000 	nop
bfc00d34:	2442fffc 	addiu	v0,v0,-4
bfc00d38:	00401821 	move	v1,v0
bfc00d3c:	8fc20010 	lw	v0,16(s8)
bfc00d40:	00000000 	nop
bfc00d44:	ac430094 	sw	v1,148(v0)
/home/fmars/MIPS_OS/env.c:103
    e->env_tf.cp0_epc=binary-0x4;
bfc00d48:	8fc20014 	lw	v0,20(s8)
bfc00d4c:	00000000 	nop
bfc00d50:	2442fffc 	addiu	v0,v0,-4
bfc00d54:	00401821 	move	v1,v0
bfc00d58:	8fc20010 	lw	v0,16(s8)
bfc00d5c:	00000000 	nop
bfc00d60:	ac430090 	sw	v1,144(v0)
/home/fmars/MIPS_OS/env.c:104
}
bfc00d64:	03c0e821 	move	sp,s8
bfc00d68:	8fbe000c 	lw	s8,12(sp)
bfc00d6c:	27bd0010 	addiu	sp,sp,16
bfc00d70:	03e00008 	jr	ra
bfc00d74:	00000000 	nop

bfc00d78 <env_create>:
env_create():
/home/fmars/MIPS_OS/env.c:109


void
env_create(u_char *binary, u_int size)
{
bfc00d78:	27bdffe0 	addiu	sp,sp,-32
bfc00d7c:	afbf001c 	sw	ra,28(sp)
bfc00d80:	afbe0018 	sw	s8,24(sp)
bfc00d84:	03a0f021 	move	s8,sp
bfc00d88:	afc40020 	sw	a0,32(s8)
bfc00d8c:	afc50024 	sw	a1,36(s8)
/home/fmars/MIPS_OS/env.c:113
	struct Env *e;


	env_alloc(&e);
bfc00d90:	27c20010 	addiu	v0,s8,16
bfc00d94:	00402021 	move	a0,v0
bfc00d98:	0ff002ec 	jal	bfc00bb0 <env_alloc>
bfc00d9c:	00000000 	nop
/home/fmars/MIPS_OS/env.c:114
	load_icode(e, binary, size);
bfc00da0:	8fc20010 	lw	v0,16(s8)
bfc00da4:	00000000 	nop
bfc00da8:	00402021 	move	a0,v0
bfc00dac:	8fc50020 	lw	a1,32(s8)
bfc00db0:	8fc60024 	lw	a2,36(s8)
bfc00db4:	0ff0033b 	jal	bfc00cec <load_icode>
bfc00db8:	00000000 	nop
/home/fmars/MIPS_OS/env.c:116

	printf("Create Env Successful...\n");  // pds----------
bfc00dbc:	3c02bfc0 	lui	v0,0xbfc0
bfc00dc0:	24443a90 	addiu	a0,v0,14992
bfc00dc4:	0ff0080c 	jal	bfc02030 <printf>
bfc00dc8:	00000000 	nop
/home/fmars/MIPS_OS/env.c:117
}
bfc00dcc:	03c0e821 	move	sp,s8
bfc00dd0:	8fbf001c 	lw	ra,28(sp)
bfc00dd4:	8fbe0018 	lw	s8,24(sp)
bfc00dd8:	27bd0020 	addiu	sp,sp,32
bfc00ddc:	03e00008 	jr	ra
bfc00de0:	00000000 	nop

bfc00de4 <env_destroy>:
env_destroy():
/home/fmars/MIPS_OS/env.c:122


void
env_destroy(struct Env *e) 
{
bfc00de4:	27bdffe8 	addiu	sp,sp,-24
bfc00de8:	afbf0014 	sw	ra,20(sp)
bfc00dec:	afbe0010 	sw	s8,16(sp)
bfc00df0:	03a0f021 	move	s8,sp
bfc00df4:	afc40018 	sw	a0,24(s8)
/home/fmars/MIPS_OS/env.c:123
	e->env_status = ENV_FREE;
bfc00df8:	8fc20018 	lw	v0,24(s8)
bfc00dfc:	00000000 	nop
bfc00e00:	ac40009c 	sw	zero,156(v0)
/home/fmars/MIPS_OS/env.c:124
	LIST_INSERT_HEAD(&env_free_list, e, env_link);
bfc00e04:	3c029000 	lui	v0,0x9000
bfc00e08:	8c433290 	lw	v1,12944(v0)
bfc00e0c:	8fc20018 	lw	v0,24(s8)
bfc00e10:	00000000 	nop
bfc00e14:	ac4300a0 	sw	v1,160(v0)
bfc00e18:	8fc20018 	lw	v0,24(s8)
bfc00e1c:	00000000 	nop
bfc00e20:	8c4200a0 	lw	v0,160(v0)
bfc00e24:	00000000 	nop
bfc00e28:	10400007 	beqz	v0,bfc00e48 <env_destroy+0x64>
bfc00e2c:	00000000 	nop
bfc00e30:	3c029000 	lui	v0,0x9000
bfc00e34:	8c423290 	lw	v0,12944(v0)
bfc00e38:	8fc30018 	lw	v1,24(s8)
bfc00e3c:	00000000 	nop
bfc00e40:	246300a0 	addiu	v1,v1,160
bfc00e44:	ac4300a4 	sw	v1,164(v0)
bfc00e48:	3c029000 	lui	v0,0x9000
bfc00e4c:	8fc30018 	lw	v1,24(s8)
bfc00e50:	00000000 	nop
bfc00e54:	ac433290 	sw	v1,12944(v0)
bfc00e58:	8fc20018 	lw	v0,24(s8)
bfc00e5c:	3c039000 	lui	v1,0x9000
bfc00e60:	24633290 	addiu	v1,v1,12944
bfc00e64:	ac4300a4 	sw	v1,164(v0)
/home/fmars/MIPS_OS/env.c:126

	if (curenv == e) {
bfc00e68:	3c029000 	lui	v0,0x9000
bfc00e6c:	8c430000 	lw	v1,0(v0)
bfc00e70:	8fc20018 	lw	v0,24(s8)
bfc00e74:	00000000 	nop
bfc00e78:	14620013 	bne	v1,v0,bfc00ec8 <env_destroy+0xe4>
bfc00e7c:	00000000 	nop
/home/fmars/MIPS_OS/env.c:127
		curenv = NULL;
bfc00e80:	3c029000 	lui	v0,0x9000
bfc00e84:	ac400000 	sw	zero,0(v0)
/home/fmars/MIPS_OS/env.c:129

		bcopy((int)KERNEL_SP-sizeof(struct Trapframe),TIMESTACK-sizeof(struct Trapframe),sizeof(struct Trapframe));
bfc00e88:	3c02bfc0 	lui	v0,0xbfc0
bfc00e8c:	8c423ed0 	lw	v0,16080(v0)
bfc00e90:	00000000 	nop
bfc00e94:	2442ff68 	addiu	v0,v0,-152
bfc00e98:	00402021 	move	a0,v0
bfc00e9c:	3c02907f 	lui	v0,0x907f
bfc00ea0:	3445ff68 	ori	a1,v0,0xff68
bfc00ea4:	24060098 	li	a2,152
bfc00ea8:	0ff00644 	jal	bfc01910 <bcopy>
bfc00eac:	00000000 	nop
/home/fmars/MIPS_OS/env.c:131
		
		printf("Env id=d: I am killed ... \n"); //,ENVX(e->env_id));
bfc00eb0:	3c02bfc0 	lui	v0,0xbfc0
bfc00eb4:	24443aac 	addiu	a0,v0,15020
bfc00eb8:	0ff0080c 	jal	bfc02030 <printf>
bfc00ebc:	00000000 	nop
/home/fmars/MIPS_OS/env.c:133

		sched_yield(); 
bfc00ec0:	0ff00c78 	jal	bfc031e0 <sched_yield>
bfc00ec4:	00000000 	nop
/home/fmars/MIPS_OS/env.c:135
	}
}
bfc00ec8:	03c0e821 	move	sp,s8
bfc00ecc:	8fbf0014 	lw	ra,20(sp)
bfc00ed0:	8fbe0010 	lw	s8,16(sp)
bfc00ed4:	27bd0018 	addiu	sp,sp,24
bfc00ed8:	03e00008 	jr	ra
bfc00edc:	00000000 	nop

bfc00ee0 <env_run>:
env_run():
/home/fmars/MIPS_OS/env.c:140


void
env_run(struct Env *e)
{
bfc00ee0:	27bdffe0 	addiu	sp,sp,-32
bfc00ee4:	afbf001c 	sw	ra,28(sp)
bfc00ee8:	afbe0018 	sw	s8,24(sp)
bfc00eec:	03a0f021 	move	s8,sp
bfc00ef0:	afc40020 	sw	a0,32(s8)
/home/fmars/MIPS_OS/env.c:143
	struct Trapframe*  old;
	int id;
	old=(struct Trapframe*)(TIMESTACK-sizeof(struct Trapframe));
bfc00ef4:	3c02907f 	lui	v0,0x907f
bfc00ef8:	3442ff68 	ori	v0,v0,0xff68
bfc00efc:	afc20010 	sw	v0,16(s8)
/home/fmars/MIPS_OS/env.c:146


	if(curenv)
bfc00f00:	3c029000 	lui	v0,0x9000
bfc00f04:	8c420000 	lw	v0,0(v0)
bfc00f08:	00000000 	nop
bfc00f0c:	10400013 	beqz	v0,bfc00f5c <env_run+0x7c>
bfc00f10:	00000000 	nop
/home/fmars/MIPS_OS/env.c:150
	{	
		//printf("Save Old epc=0x"); //%x \n",old->cp0_epc);
		//print_num_hex(&(old->cp0_epc));
		printf("\n");
bfc00f14:	3c02bfc0 	lui	v0,0xbfc0
bfc00f18:	24443ac8 	addiu	a0,v0,15048
bfc00f1c:	0ff0080c 	jal	bfc02030 <printf>
bfc00f20:	00000000 	nop
/home/fmars/MIPS_OS/env.c:151
		bcopy(old,&curenv->env_tf,sizeof(struct Trapframe));
bfc00f24:	3c029000 	lui	v0,0x9000
bfc00f28:	8c420000 	lw	v0,0(v0)
bfc00f2c:	8fc40010 	lw	a0,16(s8)
bfc00f30:	00402821 	move	a1,v0
bfc00f34:	24060098 	li	a2,152
bfc00f38:	0ff00644 	jal	bfc01910 <bcopy>
bfc00f3c:	00000000 	nop
/home/fmars/MIPS_OS/env.c:153

		curenv->env_tf.pc=old->cp0_epc;  
bfc00f40:	3c029000 	lui	v0,0x9000
bfc00f44:	8c420000 	lw	v0,0(v0)
bfc00f48:	8fc30010 	lw	v1,16(s8)
bfc00f4c:	00000000 	nop
bfc00f50:	8c630090 	lw	v1,144(v1)
bfc00f54:	00000000 	nop
bfc00f58:	ac430094 	sw	v1,148(v0)
/home/fmars/MIPS_OS/env.c:156
	}

	curenv = e;
bfc00f5c:	3c029000 	lui	v0,0x9000
bfc00f60:	8fc30020 	lw	v1,32(s8)
bfc00f64:	00000000 	nop
bfc00f68:	ac430000 	sw	v1,0(v0)
/home/fmars/MIPS_OS/env.c:169
	/*print_num_hex(&id);
	printf("\n");

	printf("Recover New Env Regs:\n");
	*/	
	env_pop_tf(&(e->env_tf));  // 恢复将要运行寄存器值
bfc00f6c:	8fc20020 	lw	v0,32(s8)
bfc00f70:	00000000 	nop
bfc00f74:	00402021 	move	a0,v0
bfc00f78:	0ff00584 	jal	bfc01610 <env_pop_tf>
bfc00f7c:	00000000 	nop
/home/fmars/MIPS_OS/env.c:170
}
bfc00f80:	03c0e821 	move	sp,s8
bfc00f84:	8fbf001c 	lw	ra,28(sp)
bfc00f88:	8fbe0018 	lw	s8,24(sp)
bfc00f8c:	27bd0020 	addiu	sp,sp,32
bfc00f90:	03e00008 	jr	ra
bfc00f94:	00000000 	nop

bfc00f98 <env_idle>:
env_idle():
/home/fmars/MIPS_OS/env.c:175



void env_idle()   // 系统内的空闲进程
{
bfc00f98:	27bdffe8 	addiu	sp,sp,-24
bfc00f9c:	afbf0014 	sw	ra,20(sp)
bfc00fa0:	afbe0010 	sw	s8,16(sp)
bfc00fa4:	03a0f021 	move	s8,sp
/home/fmars/MIPS_OS/env.c:180
	int i,j;

	while (1)
	{
	   printf("idle...");
bfc00fa8:	3c02bfc0 	lui	v0,0xbfc0
bfc00fac:	24443acc 	addiu	a0,v0,15052
bfc00fb0:	0ff0080c 	jal	bfc02030 <printf>
bfc00fb4:	00000000 	nop
/home/fmars/MIPS_OS/env.c:182
	   //for (i=0;i<10000;i++);
	}
bfc00fb8:	0bf003ea 	j	bfc00fa8 <env_idle+0x10>
bfc00fbc:	00000000 	nop

bfc00fc0 <env_idle_init>:
env_idle_init():
/home/fmars/MIPS_OS/env.c:186
}

void env_idle_init()
{
bfc00fc0:	27bdffe0 	addiu	sp,sp,-32
bfc00fc4:	afbf001c 	sw	ra,28(sp)
bfc00fc8:	afbe0018 	sw	s8,24(sp)
bfc00fcc:	03a0f021 	move	s8,sp
/home/fmars/MIPS_OS/env.c:189
	struct Env *e;

	e=&envs[0];
bfc00fd0:	3c029000 	lui	v0,0x9000
bfc00fd4:	24420010 	addiu	v0,v0,16
bfc00fd8:	afc20010 	sw	v0,16(s8)
/home/fmars/MIPS_OS/env.c:191

	curenv=e;
bfc00fdc:	3c029000 	lui	v0,0x9000
bfc00fe0:	8fc30010 	lw	v1,16(s8)
bfc00fe4:	00000000 	nop
bfc00fe8:	ac430000 	sw	v1,0(v0)
/home/fmars/MIPS_OS/env.c:193

	e->env_id = 0;
bfc00fec:	8fc20010 	lw	v0,16(s8)
bfc00ff0:	00000000 	nop
bfc00ff4:	ac400098 	sw	zero,152(v0)
/home/fmars/MIPS_OS/env.c:194
	e->env_status = ENV_RUNNABLE;
bfc00ff8:	8fc20010 	lw	v0,16(s8)
bfc00ffc:	24030001 	li	v1,1
bfc01000:	ac43009c 	sw	v1,156(v0)
/home/fmars/MIPS_OS/env.c:196

	e->env_tf.pc=&env_idle-0x4;
bfc01004:	3c02bfc0 	lui	v0,0xbfc0
bfc01008:	24430f94 	addiu	v1,v0,3988
bfc0100c:	8fc20010 	lw	v0,16(s8)
bfc01010:	00000000 	nop
bfc01014:	ac430094 	sw	v1,148(v0)
/home/fmars/MIPS_OS/env.c:197
    e->env_tf.cp0_epc= &env_idle-0x4;
bfc01018:	3c02bfc0 	lui	v0,0xbfc0
bfc0101c:	24430f94 	addiu	v1,v0,3988
bfc01020:	8fc20010 	lw	v0,16(s8)
bfc01024:	00000000 	nop
bfc01028:	ac430090 	sw	v1,144(v0)
/home/fmars/MIPS_OS/env.c:198
	printf("Idle epc=0x");   //%x\n",e->env_tf.cp0_epc);
bfc0102c:	3c02bfc0 	lui	v0,0xbfc0
bfc01030:	24443ad4 	addiu	a0,v0,15060
bfc01034:	0ff0080c 	jal	bfc02030 <printf>
bfc01038:	00000000 	nop
/home/fmars/MIPS_OS/env.c:200
	
}
bfc0103c:	03c0e821 	move	sp,s8
bfc01040:	8fbf001c 	lw	ra,28(sp)
bfc01044:	8fbe0018 	lw	s8,24(sp)
bfc01048:	27bd0020 	addiu	sp,sp,32
bfc0104c:	03e00008 	jr	ra
bfc01050:	00000000 	nop

bfc01054 <env_idle_run>:
env_idle_run():
/home/fmars/MIPS_OS/env.c:203

void env_idle_run()
{
bfc01054:	27bdffe8 	addiu	sp,sp,-24
bfc01058:	afbf0014 	sw	ra,20(sp)
bfc0105c:	afbe0010 	sw	s8,16(sp)
bfc01060:	03a0f021 	move	s8,sp
/home/fmars/MIPS_OS/env.c:205

    env_idle_init();
bfc01064:	0ff003f0 	jal	bfc00fc0 <env_idle_init>
bfc01068:	00000000 	nop
/home/fmars/MIPS_OS/env.c:207

	printf("Idle Process 0 will running......\n");
bfc0106c:	3c02bfc0 	lui	v0,0xbfc0
bfc01070:	24443ae0 	addiu	a0,v0,15072
bfc01074:	0ff0080c 	jal	bfc02030 <printf>
bfc01078:	00000000 	nop
/home/fmars/MIPS_OS/env.c:209
	
	env_idle();
bfc0107c:	0ff003e6 	jal	bfc00f98 <env_idle>
bfc01080:	00000000 	nop
/home/fmars/MIPS_OS/env.c:210
}
bfc01084:	03c0e821 	move	sp,s8
bfc01088:	8fbf0014 	lw	ra,20(sp)
bfc0108c:	8fbe0010 	lw	s8,16(sp)
bfc01090:	27bd0018 	addiu	sp,sp,24
bfc01094:	03e00008 	jr	ra
bfc01098:	00000000 	nop

bfc0109c <clear_reg>:
clear_reg():
/home/fmars/MIPS_OS/env.c:223




void clear_reg(struct Env *e)
{
bfc0109c:	27bdfff0 	addiu	sp,sp,-16
bfc010a0:	afbe000c 	sw	s8,12(sp)
bfc010a4:	03a0f021 	move	s8,sp
bfc010a8:	afc40010 	sw	a0,16(s8)
/home/fmars/MIPS_OS/env.c:225
   int i;
   for (i=0;i<32;i++)
bfc010ac:	afc00000 	sw	zero,0(s8)
bfc010b0:	0bf0043c 	j	bfc010f0 <clear_reg+0x54>
bfc010b4:	00000000 	nop
/home/fmars/MIPS_OS/env.c:227
   {
      if (i!=29)
bfc010b8:	8fc30000 	lw	v1,0(s8)
bfc010bc:	2402001d 	li	v0,29
bfc010c0:	10620007 	beq	v1,v0,bfc010e0 <clear_reg+0x44>
bfc010c4:	00000000 	nop
/home/fmars/MIPS_OS/env.c:228
	     e->env_tf.regs[i]=0;
bfc010c8:	8fc30010 	lw	v1,16(s8)
bfc010cc:	8fc20000 	lw	v0,0(s8)
bfc010d0:	00000000 	nop
bfc010d4:	00021080 	sll	v0,v0,0x2
bfc010d8:	00621021 	addu	v0,v1,v0
bfc010dc:	ac400000 	sw	zero,0(v0)
/home/fmars/MIPS_OS/env.c:225


void clear_reg(struct Env *e)
{
   int i;
   for (i=0;i<32;i++)
bfc010e0:	8fc20000 	lw	v0,0(s8)
bfc010e4:	00000000 	nop
bfc010e8:	24420001 	addiu	v0,v0,1
bfc010ec:	afc20000 	sw	v0,0(s8)
bfc010f0:	8fc20000 	lw	v0,0(s8)
bfc010f4:	00000000 	nop
bfc010f8:	28420020 	slti	v0,v0,32
bfc010fc:	1440ffee 	bnez	v0,bfc010b8 <clear_reg+0x1c>
bfc01100:	00000000 	nop
/home/fmars/MIPS_OS/env.c:230
   {
      if (i!=29)
	     e->env_tf.regs[i]=0;
	}
}
bfc01104:	03c0e821 	move	sp,s8
bfc01108:	8fbe000c 	lw	s8,12(sp)
bfc0110c:	27bd0010 	addiu	sp,sp,16
bfc01110:	03e00008 	jr	ra
bfc01114:	00000000 	nop

bfc01118 <read_sr>:
read_sr():
/home/fmars/MIPS_OS/env.c:235



unsigned int read_sr(void)
{
bfc01118:	27bdfff0 	addiu	sp,sp,-16
bfc0111c:	afbe000c 	sw	s8,12(sp)
bfc01120:	afb00008 	sw	s0,8(sp)
bfc01124:	03a0f021 	move	s8,sp
/home/fmars/MIPS_OS/env.c:238
    unsigned int p ;
    
    asm( "mfc0 %0, $12" 
bfc01128:	40106000 	mfc0	s0,c0_sr
bfc0112c:	00000000 	nop
bfc01130:	afd00000 	sw	s0,0(s8)
/home/fmars/MIPS_OS/env.c:242
        :"=r"(p)
    ) ;
    
    return p ;
bfc01134:	8fc20000 	lw	v0,0(s8)
/home/fmars/MIPS_OS/env.c:243
}
bfc01138:	03c0e821 	move	sp,s8
bfc0113c:	8fbe000c 	lw	s8,12(sp)
bfc01140:	8fb00008 	lw	s0,8(sp)
bfc01144:	27bd0010 	addiu	sp,sp,16
bfc01148:	03e00008 	jr	ra
bfc0114c:	00000000 	nop

bfc01150 <read_cause>:
read_cause():
/home/fmars/MIPS_OS/env.c:246

unsigned int read_cause(void)
{
bfc01150:	27bdfff0 	addiu	sp,sp,-16
bfc01154:	afbe000c 	sw	s8,12(sp)
bfc01158:	afb00008 	sw	s0,8(sp)
bfc0115c:	03a0f021 	move	s8,sp
/home/fmars/MIPS_OS/env.c:249
    unsigned int p ;
    
    asm( "mfc0 %0, $13" 
bfc01160:	40106800 	mfc0	s0,c0_cause
bfc01164:	00000000 	nop
bfc01168:	afd00000 	sw	s0,0(s8)
/home/fmars/MIPS_OS/env.c:253
        :"=r"(p)
    ) ;
    
    return p ;
bfc0116c:	8fc20000 	lw	v0,0(s8)
/home/fmars/MIPS_OS/env.c:254
}
bfc01170:	03c0e821 	move	sp,s8
bfc01174:	8fbe000c 	lw	s8,12(sp)
bfc01178:	8fb00008 	lw	s0,8(sp)
bfc0117c:	27bd0010 	addiu	sp,sp,16
bfc01180:	03e00008 	jr	ra
bfc01184:	00000000 	nop

bfc01188 <env_A>:
env_A():
/home/fmars/MIPS_OS/env.c:259



void env_A()  // 用户进程A
{
bfc01188:	27bdffe0 	addiu	sp,sp,-32
bfc0118c:	afbf001c 	sw	ra,28(sp)
bfc01190:	afbe0018 	sw	s8,24(sp)
bfc01194:	03a0f021 	move	s8,sp
/home/fmars/MIPS_OS/env.c:264
  int i;
  while (1)
  {
//	 printf("A");
  i = 65	 ;
bfc01198:	24020041 	li	v0,65
bfc0119c:	afc20010 	sw	v0,16(s8)
/home/fmars/MIPS_OS/env.c:265
  uput(i);
bfc011a0:	8fc40010 	lw	a0,16(s8)
bfc011a4:	0ff00010 	jal	bfc00040 <uput>
bfc011a8:	00000000 	nop
/home/fmars/MIPS_OS/env.c:266
	 for (i=0;i<10;i++) ;
bfc011ac:	afc00010 	sw	zero,16(s8)
bfc011b0:	0bf00472 	j	bfc011c8 <env_A+0x40>
bfc011b4:	00000000 	nop
bfc011b8:	8fc20010 	lw	v0,16(s8)
bfc011bc:	00000000 	nop
bfc011c0:	24420001 	addiu	v0,v0,1
bfc011c4:	afc20010 	sw	v0,16(s8)
bfc011c8:	8fc20010 	lw	v0,16(s8)
bfc011cc:	00000000 	nop
bfc011d0:	2842000a 	slti	v0,v0,10
bfc011d4:	1440fff8 	bnez	v0,bfc011b8 <env_A+0x30>
bfc011d8:	00000000 	nop
/home/fmars/MIPS_OS/env.c:267
  }
bfc011dc:	0bf00466 	j	bfc01198 <env_A+0x10>
bfc011e0:	00000000 	nop

bfc011e4 <env_B>:
env_B():
/home/fmars/MIPS_OS/env.c:272
  
 }

void env_B()  // // 用户进程B
{
bfc011e4:	27bdffe0 	addiu	sp,sp,-32
bfc011e8:	afbf001c 	sw	ra,28(sp)
bfc011ec:	afbe0018 	sw	s8,24(sp)
bfc011f0:	03a0f021 	move	s8,sp
/home/fmars/MIPS_OS/env.c:278
  int i;
  unsigned int sr,cause;
  while (1)
  {
  //   printf("B");
  i = 66;
bfc011f4:	24020042 	li	v0,66
bfc011f8:	afc20010 	sw	v0,16(s8)
/home/fmars/MIPS_OS/env.c:279
  uput(i);
bfc011fc:	8fc40010 	lw	a0,16(s8)
bfc01200:	0ff00010 	jal	bfc00040 <uput>
bfc01204:	00000000 	nop
/home/fmars/MIPS_OS/env.c:280
	 for (i=0;i<10;i++) ; 
bfc01208:	afc00010 	sw	zero,16(s8)
bfc0120c:	0bf00489 	j	bfc01224 <env_B+0x40>
bfc01210:	00000000 	nop
bfc01214:	8fc20010 	lw	v0,16(s8)
bfc01218:	00000000 	nop
bfc0121c:	24420001 	addiu	v0,v0,1
bfc01220:	afc20010 	sw	v0,16(s8)
bfc01224:	8fc20010 	lw	v0,16(s8)
bfc01228:	00000000 	nop
bfc0122c:	2842000a 	slti	v0,v0,10
bfc01230:	1440fff8 	bnez	v0,bfc01214 <env_B+0x30>
bfc01234:	00000000 	nop
/home/fmars/MIPS_OS/env.c:281
  }
bfc01238:	0bf0047d 	j	bfc011f4 <env_B+0x10>
bfc0123c:	00000000 	nop

bfc01240 <env_C>:
env_C():
/home/fmars/MIPS_OS/env.c:287
  
 }
 
 
void env_C() // // 用户进程C
{
bfc01240:	27bdffe0 	addiu	sp,sp,-32
bfc01244:	afbf001c 	sw	ra,28(sp)
bfc01248:	afbe0018 	sw	s8,24(sp)
bfc0124c:	03a0f021 	move	s8,sp
/home/fmars/MIPS_OS/env.c:294
  unsigned int sr,cause;

  while (1)
  {
  //   printf("C");
	i = 67;
bfc01250:	24020043 	li	v0,67
bfc01254:	afc20010 	sw	v0,16(s8)
/home/fmars/MIPS_OS/env.c:295
  uput(i);
bfc01258:	8fc40010 	lw	a0,16(s8)
bfc0125c:	0ff00010 	jal	bfc00040 <uput>
bfc01260:	00000000 	nop
/home/fmars/MIPS_OS/env.c:296
	for (i=0;i<10;i++) ; 
bfc01264:	afc00010 	sw	zero,16(s8)
bfc01268:	0bf004a0 	j	bfc01280 <env_C+0x40>
bfc0126c:	00000000 	nop
bfc01270:	8fc20010 	lw	v0,16(s8)
bfc01274:	00000000 	nop
bfc01278:	24420001 	addiu	v0,v0,1
bfc0127c:	afc20010 	sw	v0,16(s8)
bfc01280:	8fc20010 	lw	v0,16(s8)
bfc01284:	00000000 	nop
bfc01288:	2842000a 	slti	v0,v0,10
bfc0128c:	1440fff8 	bnez	v0,bfc01270 <env_C+0x30>
bfc01290:	00000000 	nop
/home/fmars/MIPS_OS/env.c:297
  }
bfc01294:	0bf00494 	j	bfc01250 <env_C+0x10>
bfc01298:	00000000 	nop

bfc0129c <create_A>:
create_A():
/home/fmars/MIPS_OS/env.c:303
  
 }
 
 
 void create_A() // 创建用户进程A
 {
bfc0129c:	27bdffe0 	addiu	sp,sp,-32
bfc012a0:	afbf001c 	sw	ra,28(sp)
bfc012a4:	afbe0018 	sw	s8,24(sp)
bfc012a8:	03a0f021 	move	s8,sp
/home/fmars/MIPS_OS/env.c:307
 	struct Env *e;


	if (!(e = LIST_FIRST(&env_free_list))) 
bfc012ac:	3c029000 	lui	v0,0x9000
bfc012b0:	8c423290 	lw	v0,12944(v0)
bfc012b4:	00000000 	nop
bfc012b8:	afc20010 	sw	v0,16(s8)
bfc012bc:	8fc20010 	lw	v0,16(s8)
bfc012c0:	00000000 	nop
bfc012c4:	10400037 	beqz	v0,bfc013a4 <create_A+0x108>
bfc012c8:	00000000 	nop
/home/fmars/MIPS_OS/env.c:310
		return -1;

	e->env_id = mkenvid(e);
bfc012cc:	8fc40010 	lw	a0,16(s8)
bfc012d0:	0ff00250 	jal	bfc00940 <mkenvid>
bfc012d4:	00000000 	nop
bfc012d8:	00401821 	move	v1,v0
bfc012dc:	8fc20010 	lw	v0,16(s8)
bfc012e0:	00000000 	nop
bfc012e4:	ac430098 	sw	v1,152(v0)
/home/fmars/MIPS_OS/env.c:311
	e->env_status = ENV_RUNNABLE;
bfc012e8:	8fc20010 	lw	v0,16(s8)
bfc012ec:	24030001 	li	v1,1
bfc012f0:	ac43009c 	sw	v1,156(v0)
/home/fmars/MIPS_OS/env.c:313

	clear_reg(e);
bfc012f4:	8fc40010 	lw	a0,16(s8)
bfc012f8:	0ff00427 	jal	bfc0109c <clear_reg>
bfc012fc:	00000000 	nop
/home/fmars/MIPS_OS/env.c:314
	e->env_tf.regs[29] = 0x90720000;  // 重要的是设好定义的sp值，与cp0_status值
bfc01300:	8fc20010 	lw	v0,16(s8)
bfc01304:	3c039072 	lui	v1,0x9072
bfc01308:	ac430074 	sw	v1,116(v0)
/home/fmars/MIPS_OS/env.c:315
	e->env_tf.cp0_status = 0x00402001;
bfc0130c:	8fc20010 	lw	v0,16(s8)
bfc01310:	3c030040 	lui	v1,0x40
bfc01314:	34632001 	ori	v1,v1,0x2001
bfc01318:	ac430080 	sw	v1,128(v0)
/home/fmars/MIPS_OS/env.c:317
	
	e->env_tf.pc=&env_A;
bfc0131c:	3c02bfc0 	lui	v0,0xbfc0
bfc01320:	24431188 	addiu	v1,v0,4488
bfc01324:	8fc20010 	lw	v0,16(s8)
bfc01328:	00000000 	nop
bfc0132c:	ac430094 	sw	v1,148(v0)
/home/fmars/MIPS_OS/env.c:318
    e->env_tf.cp0_epc=&env_A;  // 设定好A进程的起始运行地址
bfc01330:	3c02bfc0 	lui	v0,0xbfc0
bfc01334:	24431188 	addiu	v1,v0,4488
bfc01338:	8fc20010 	lw	v0,16(s8)
bfc0133c:	00000000 	nop
bfc01340:	ac430090 	sw	v1,144(v0)
/home/fmars/MIPS_OS/env.c:320
 
	LIST_REMOVE(e, env_link);
bfc01344:	8fc20010 	lw	v0,16(s8)
bfc01348:	00000000 	nop
bfc0134c:	8c4200a0 	lw	v0,160(v0)
bfc01350:	00000000 	nop
bfc01354:	10400009 	beqz	v0,bfc0137c <create_A+0xe0>
bfc01358:	00000000 	nop
bfc0135c:	8fc20010 	lw	v0,16(s8)
bfc01360:	00000000 	nop
bfc01364:	8c4200a0 	lw	v0,160(v0)
bfc01368:	8fc30010 	lw	v1,16(s8)
bfc0136c:	00000000 	nop
bfc01370:	8c6300a4 	lw	v1,164(v1)
bfc01374:	00000000 	nop
bfc01378:	ac4300a4 	sw	v1,164(v0)
bfc0137c:	8fc20010 	lw	v0,16(s8)
bfc01380:	00000000 	nop
bfc01384:	8c4200a4 	lw	v0,164(v0)
bfc01388:	8fc30010 	lw	v1,16(s8)
bfc0138c:	00000000 	nop
bfc01390:	8c6300a0 	lw	v1,160(v1)
bfc01394:	00000000 	nop
bfc01398:	ac430000 	sw	v1,0(v0)
bfc0139c:	0bf004ea 	j	bfc013a8 <create_A+0x10c>
bfc013a0:	00000000 	nop
/home/fmars/MIPS_OS/env.c:308
 {
 	struct Env *e;


	if (!(e = LIST_FIRST(&env_free_list))) 
		return -1;
bfc013a4:	00000000 	nop
/home/fmars/MIPS_OS/env.c:322
	e->env_tf.pc=&env_A;
    e->env_tf.cp0_epc=&env_A;  // 设定好A进程的起始运行地址
 
	LIST_REMOVE(e, env_link);
 
 }
bfc013a8:	03c0e821 	move	sp,s8
bfc013ac:	8fbf001c 	lw	ra,28(sp)
bfc013b0:	8fbe0018 	lw	s8,24(sp)
bfc013b4:	27bd0020 	addiu	sp,sp,32
bfc013b8:	03e00008 	jr	ra
bfc013bc:	00000000 	nop

bfc013c0 <create_B>:
create_B():
/home/fmars/MIPS_OS/env.c:325
 
  void create_B()  // // 创建用户进程B
 {
bfc013c0:	27bdffe0 	addiu	sp,sp,-32
bfc013c4:	afbf001c 	sw	ra,28(sp)
bfc013c8:	afbe0018 	sw	s8,24(sp)
bfc013cc:	03a0f021 	move	s8,sp
/home/fmars/MIPS_OS/env.c:329
 	struct Env *e;


	if (!(e = LIST_FIRST(&env_free_list))) 
bfc013d0:	3c029000 	lui	v0,0x9000
bfc013d4:	8c423290 	lw	v0,12944(v0)
bfc013d8:	00000000 	nop
bfc013dc:	afc20010 	sw	v0,16(s8)
bfc013e0:	8fc20010 	lw	v0,16(s8)
bfc013e4:	00000000 	nop
bfc013e8:	10400037 	beqz	v0,bfc014c8 <create_B+0x108>
bfc013ec:	00000000 	nop
/home/fmars/MIPS_OS/env.c:332
		return -1;

	e->env_id = mkenvid(e);
bfc013f0:	8fc40010 	lw	a0,16(s8)
bfc013f4:	0ff00250 	jal	bfc00940 <mkenvid>
bfc013f8:	00000000 	nop
bfc013fc:	00401821 	move	v1,v0
bfc01400:	8fc20010 	lw	v0,16(s8)
bfc01404:	00000000 	nop
bfc01408:	ac430098 	sw	v1,152(v0)
/home/fmars/MIPS_OS/env.c:333
	e->env_status = ENV_RUNNABLE;
bfc0140c:	8fc20010 	lw	v0,16(s8)
bfc01410:	24030001 	li	v1,1
bfc01414:	ac43009c 	sw	v1,156(v0)
/home/fmars/MIPS_OS/env.c:335

	clear_reg(e);
bfc01418:	8fc40010 	lw	a0,16(s8)
bfc0141c:	0ff00427 	jal	bfc0109c <clear_reg>
bfc01420:	00000000 	nop
/home/fmars/MIPS_OS/env.c:336
	e->env_tf.regs[29] = 0x90730000; 
bfc01424:	8fc20010 	lw	v0,16(s8)
bfc01428:	3c039073 	lui	v1,0x9073
bfc0142c:	ac430074 	sw	v1,116(v0)
/home/fmars/MIPS_OS/env.c:337
	e->env_tf.cp0_status = 0x00402001;
bfc01430:	8fc20010 	lw	v0,16(s8)
bfc01434:	3c030040 	lui	v1,0x40
bfc01438:	34632001 	ori	v1,v1,0x2001
bfc0143c:	ac430080 	sw	v1,128(v0)
/home/fmars/MIPS_OS/env.c:339
	
	e->env_tf.pc=&env_B;
bfc01440:	3c02bfc0 	lui	v0,0xbfc0
bfc01444:	244311e4 	addiu	v1,v0,4580
bfc01448:	8fc20010 	lw	v0,16(s8)
bfc0144c:	00000000 	nop
bfc01450:	ac430094 	sw	v1,148(v0)
/home/fmars/MIPS_OS/env.c:340
    e->env_tf.cp0_epc=&env_B;
bfc01454:	3c02bfc0 	lui	v0,0xbfc0
bfc01458:	244311e4 	addiu	v1,v0,4580
bfc0145c:	8fc20010 	lw	v0,16(s8)
bfc01460:	00000000 	nop
bfc01464:	ac430090 	sw	v1,144(v0)
/home/fmars/MIPS_OS/env.c:342
 
	LIST_REMOVE(e, env_link);
bfc01468:	8fc20010 	lw	v0,16(s8)
bfc0146c:	00000000 	nop
bfc01470:	8c4200a0 	lw	v0,160(v0)
bfc01474:	00000000 	nop
bfc01478:	10400009 	beqz	v0,bfc014a0 <create_B+0xe0>
bfc0147c:	00000000 	nop
bfc01480:	8fc20010 	lw	v0,16(s8)
bfc01484:	00000000 	nop
bfc01488:	8c4200a0 	lw	v0,160(v0)
bfc0148c:	8fc30010 	lw	v1,16(s8)
bfc01490:	00000000 	nop
bfc01494:	8c6300a4 	lw	v1,164(v1)
bfc01498:	00000000 	nop
bfc0149c:	ac4300a4 	sw	v1,164(v0)
bfc014a0:	8fc20010 	lw	v0,16(s8)
bfc014a4:	00000000 	nop
bfc014a8:	8c4200a4 	lw	v0,164(v0)
bfc014ac:	8fc30010 	lw	v1,16(s8)
bfc014b0:	00000000 	nop
bfc014b4:	8c6300a0 	lw	v1,160(v1)
bfc014b8:	00000000 	nop
bfc014bc:	ac430000 	sw	v1,0(v0)
bfc014c0:	0bf00533 	j	bfc014cc <create_B+0x10c>
bfc014c4:	00000000 	nop
/home/fmars/MIPS_OS/env.c:330
 {
 	struct Env *e;


	if (!(e = LIST_FIRST(&env_free_list))) 
		return -1;
bfc014c8:	00000000 	nop
/home/fmars/MIPS_OS/env.c:344
	e->env_tf.pc=&env_B;
    e->env_tf.cp0_epc=&env_B;
 
	LIST_REMOVE(e, env_link);
 
 }
bfc014cc:	03c0e821 	move	sp,s8
bfc014d0:	8fbf001c 	lw	ra,28(sp)
bfc014d4:	8fbe0018 	lw	s8,24(sp)
bfc014d8:	27bd0020 	addiu	sp,sp,32
bfc014dc:	03e00008 	jr	ra
bfc014e0:	00000000 	nop

bfc014e4 <create_C>:
create_C():
/home/fmars/MIPS_OS/env.c:347
 
  void create_C()   // 创建用户进程C
 {
bfc014e4:	27bdffe0 	addiu	sp,sp,-32
bfc014e8:	afbf001c 	sw	ra,28(sp)
bfc014ec:	afbe0018 	sw	s8,24(sp)
bfc014f0:	03a0f021 	move	s8,sp
/home/fmars/MIPS_OS/env.c:351
 	struct Env *e;


	if (!(e = LIST_FIRST(&env_free_list))) 
bfc014f4:	3c029000 	lui	v0,0x9000
bfc014f8:	8c423290 	lw	v0,12944(v0)
bfc014fc:	00000000 	nop
bfc01500:	afc20010 	sw	v0,16(s8)
bfc01504:	8fc20010 	lw	v0,16(s8)
bfc01508:	00000000 	nop
bfc0150c:	10400037 	beqz	v0,bfc015ec <create_C+0x108>
bfc01510:	00000000 	nop
/home/fmars/MIPS_OS/env.c:354
		return -1;

	e->env_id = mkenvid(e);
bfc01514:	8fc40010 	lw	a0,16(s8)
bfc01518:	0ff00250 	jal	bfc00940 <mkenvid>
bfc0151c:	00000000 	nop
bfc01520:	00401821 	move	v1,v0
bfc01524:	8fc20010 	lw	v0,16(s8)
bfc01528:	00000000 	nop
bfc0152c:	ac430098 	sw	v1,152(v0)
/home/fmars/MIPS_OS/env.c:355
	e->env_status = ENV_RUNNABLE;
bfc01530:	8fc20010 	lw	v0,16(s8)
bfc01534:	24030001 	li	v1,1
bfc01538:	ac43009c 	sw	v1,156(v0)
/home/fmars/MIPS_OS/env.c:357
	
	clear_reg(e);
bfc0153c:	8fc40010 	lw	a0,16(s8)
bfc01540:	0ff00427 	jal	bfc0109c <clear_reg>
bfc01544:	00000000 	nop
/home/fmars/MIPS_OS/env.c:358
	e->env_tf.regs[29] = 0x90740000; 
bfc01548:	8fc20010 	lw	v0,16(s8)
bfc0154c:	3c039074 	lui	v1,0x9074
bfc01550:	ac430074 	sw	v1,116(v0)
/home/fmars/MIPS_OS/env.c:359
	e->env_tf.cp0_status = 0x00402001;
bfc01554:	8fc20010 	lw	v0,16(s8)
bfc01558:	3c030040 	lui	v1,0x40
bfc0155c:	34632001 	ori	v1,v1,0x2001
bfc01560:	ac430080 	sw	v1,128(v0)
/home/fmars/MIPS_OS/env.c:361
	
	e->env_tf.pc=&env_C;
bfc01564:	3c02bfc0 	lui	v0,0xbfc0
bfc01568:	24431240 	addiu	v1,v0,4672
bfc0156c:	8fc20010 	lw	v0,16(s8)
bfc01570:	00000000 	nop
bfc01574:	ac430094 	sw	v1,148(v0)
/home/fmars/MIPS_OS/env.c:362
    e->env_tf.cp0_epc=&env_C;
bfc01578:	3c02bfc0 	lui	v0,0xbfc0
bfc0157c:	24431240 	addiu	v1,v0,4672
bfc01580:	8fc20010 	lw	v0,16(s8)
bfc01584:	00000000 	nop
bfc01588:	ac430090 	sw	v1,144(v0)
/home/fmars/MIPS_OS/env.c:364
 
	LIST_REMOVE(e, env_link);
bfc0158c:	8fc20010 	lw	v0,16(s8)
bfc01590:	00000000 	nop
bfc01594:	8c4200a0 	lw	v0,160(v0)
bfc01598:	00000000 	nop
bfc0159c:	10400009 	beqz	v0,bfc015c4 <create_C+0xe0>
bfc015a0:	00000000 	nop
bfc015a4:	8fc20010 	lw	v0,16(s8)
bfc015a8:	00000000 	nop
bfc015ac:	8c4200a0 	lw	v0,160(v0)
bfc015b0:	8fc30010 	lw	v1,16(s8)
bfc015b4:	00000000 	nop
bfc015b8:	8c6300a4 	lw	v1,164(v1)
bfc015bc:	00000000 	nop
bfc015c0:	ac4300a4 	sw	v1,164(v0)
bfc015c4:	8fc20010 	lw	v0,16(s8)
bfc015c8:	00000000 	nop
bfc015cc:	8c4200a4 	lw	v0,164(v0)
bfc015d0:	8fc30010 	lw	v1,16(s8)
bfc015d4:	00000000 	nop
bfc015d8:	8c6300a0 	lw	v1,160(v1)
bfc015dc:	00000000 	nop
bfc015e0:	ac430000 	sw	v1,0(v0)
bfc015e4:	0bf0057c 	j	bfc015f0 <create_C+0x10c>
bfc015e8:	00000000 	nop
/home/fmars/MIPS_OS/env.c:352
 {
 	struct Env *e;


	if (!(e = LIST_FIRST(&env_free_list))) 
		return -1;
bfc015ec:	00000000 	nop
/home/fmars/MIPS_OS/env.c:366
	e->env_tf.pc=&env_C;
    e->env_tf.cp0_epc=&env_C;
 
	LIST_REMOVE(e, env_link);
 
 }
bfc015f0:	03c0e821 	move	sp,s8
bfc015f4:	8fbf001c 	lw	ra,28(sp)
bfc015f8:	8fbe0018 	lw	s8,24(sp)
bfc015fc:	27bd0020 	addiu	sp,sp,32
bfc01600:	03e00008 	jr	ra
bfc01604:	00000000 	nop
	...

bfc01610 <env_pop_tf>:
handle_int():
interupt.S:68
bfc01610:	209a0000 	addi	k0,a0,0
bfc01614:	8f430088 	lw	v1,136(k0)
bfc01618:	00600013 	mtlo	v1
bfc0161c:	8f420084 	lw	v0,132(k0)
bfc01620:	00400011 	mthi	v0
bfc01624:	8f430090 	lw	v1,144(k0)
bfc01628:	40837000 	mtc0	v1,c0_epc
bfc0162c:	8f5f007c 	lw	ra,124(k0)
bfc01630:	8f5e0078 	lw	s8,120(k0)
bfc01634:	8f5d0074 	lw	sp,116(k0)
bfc01638:	8f5c0070 	lw	gp,112(k0)
bfc0163c:	8f590064 	lw	t9,100(k0)
bfc01640:	8f580060 	lw	t8,96(k0)
bfc01644:	8f57005c 	lw	s7,92(k0)
bfc01648:	8f560058 	lw	s6,88(k0)
bfc0164c:	8f550054 	lw	s5,84(k0)
bfc01650:	8f540050 	lw	s4,80(k0)
bfc01654:	8f53004c 	lw	s3,76(k0)
bfc01658:	8f520048 	lw	s2,72(k0)
bfc0165c:	8f510044 	lw	s1,68(k0)
bfc01660:	8f500040 	lw	s0,64(k0)
bfc01664:	8f4f003c 	lw	t7,60(k0)
bfc01668:	8f4e0038 	lw	t6,56(k0)
bfc0166c:	8f4d0034 	lw	t5,52(k0)
bfc01670:	8f4c0030 	lw	t4,48(k0)
bfc01674:	8f4b002c 	lw	t3,44(k0)
bfc01678:	8f4a0028 	lw	t2,40(k0)
bfc0167c:	8f490024 	lw	t1,36(k0)
bfc01680:	8f480020 	lw	t0,32(k0)
bfc01684:	8f47001c 	lw	a3,28(k0)
bfc01688:	8f460018 	lw	a2,24(k0)
bfc0168c:	8f450014 	lw	a1,20(k0)
bfc01690:	8f440010 	lw	a0,16(k0)
bfc01694:	8f43000c 	lw	v1,12(k0)
bfc01698:	8f420008 	lw	v0,8(k0)
bfc0169c:	8f410004 	lw	at,4(k0)
bfc016a0:	8f400000 	lw	zero,0(k0)
bfc016a4:	3c1ba000 	lui	k1,0xa000
bfc016a8:	3c030000 	lui	v1,0x0
bfc016ac:	34632710 	ori	v1,v1,0x2710
bfc016b0:	af630204 	sw	v1,516(k1)
bfc016b4:	24030001 	li	v1,1
bfc016b8:	af630200 	sw	v1,512(k1)
bfc016bc:	42000018 	eret
	...

bfc016e0 <MOD>:
bfc016e0:	0085001b 	divu	zero,a0,a1
bfc016e4:	14a00002 	bnez	a1,bfc016f0 <MOD+0x10>
bfc016e8:	00000000 	nop
bfc016ec:	0007000d 	break	0x7
bfc016f0:	00001010 	mfhi	v0
bfc016f4:	03e00008 	jr	ra
bfc016f8:	00000000 	nop

bfc016fc <DIV>:
bfc016fc:	0085001b 	divu	zero,a0,a1
bfc01700:	14a00002 	bnez	a1,bfc0170c <DIV+0x10>
bfc01704:	00000000 	nop
bfc01708:	0007000d 	break	0x7
bfc0170c:	00001012 	mflo	v0
bfc01710:	03e00008 	jr	ra
bfc01714:	00000000 	nop

bfc01718 <do_reserved>:
	...

bfc01720 <handle_reserved>:
bfc01720:	00000000 	nop
bfc01724:	03a0d021 	move	k0,sp
bfc01728:	3c1d9080 	lui	sp,0x9080
bfc0172c:	03a0d821 	move	k1,sp
bfc01730:	277dff68 	addiu	sp,k1,-152
bfc01734:	afba0074 	sw	k0,116(sp)
bfc01738:	40026000 	mfc0	v0,c0_sr
bfc0173c:	afa20080 	sw	v0,128(sp)
bfc01740:	40026800 	mfc0	v0,c0_cause
bfc01744:	afa2008c 	sw	v0,140(sp)
bfc01748:	40027000 	mfc0	v0,c0_epc
bfc0174c:	afa20090 	sw	v0,144(sp)
bfc01750:	00001010 	mfhi	v0
bfc01754:	afa20084 	sw	v0,132(sp)
bfc01758:	00001012 	mflo	v0
bfc0175c:	afa20088 	sw	v0,136(sp)
bfc01760:	afa00000 	sw	zero,0(sp)
bfc01764:	afa10004 	sw	at,4(sp)
bfc01768:	afa20008 	sw	v0,8(sp)
bfc0176c:	afa3000c 	sw	v1,12(sp)
bfc01770:	afa40010 	sw	a0,16(sp)
bfc01774:	afa50014 	sw	a1,20(sp)
bfc01778:	afa60018 	sw	a2,24(sp)
bfc0177c:	afa7001c 	sw	a3,28(sp)
bfc01780:	afa80020 	sw	t0,32(sp)
bfc01784:	afa90024 	sw	t1,36(sp)
bfc01788:	afaa0028 	sw	t2,40(sp)
bfc0178c:	afab002c 	sw	t3,44(sp)
bfc01790:	afac0030 	sw	t4,48(sp)
bfc01794:	afad0034 	sw	t5,52(sp)
bfc01798:	afae0038 	sw	t6,56(sp)
bfc0179c:	afaf003c 	sw	t7,60(sp)
bfc017a0:	afb00040 	sw	s0,64(sp)
bfc017a4:	afb10044 	sw	s1,68(sp)
bfc017a8:	afb20048 	sw	s2,72(sp)
bfc017ac:	afb3004c 	sw	s3,76(sp)
bfc017b0:	afb40050 	sw	s4,80(sp)
bfc017b4:	afb50054 	sw	s5,84(sp)
bfc017b8:	afb60058 	sw	s6,88(sp)
bfc017bc:	afb7005c 	sw	s7,92(sp)
bfc017c0:	afb80060 	sw	t8,96(sp)
bfc017c4:	afb90064 	sw	t9,100(sp)
bfc017c8:	afba0068 	sw	k0,104(sp)
bfc017cc:	afbb006c 	sw	k1,108(sp)
bfc017d0:	afbc0070 	sw	gp,112(sp)
bfc017d4:	afbe0078 	sw	s8,120(sp)
bfc017d8:	afbf007c 	sw	ra,124(sp)
bfc017dc:	0340e821 	move	sp,k0
bfc017e0:	401a6000 	mfc0	k0,c0_sr
bfc017e4:	375a0001 	ori	k0,k0,0x1
bfc017e8:	3b5a0001 	xori	k0,k0,0x1
bfc017ec:	409a6000 	mtc0	k0,c0_sr
bfc017f0:	03a02021 	move	a0,sp
bfc017f4:	0ff005c6 	jal	bfc01718 <do_reserved>
bfc017f8:	00000000 	nop
bfc017fc:	0bf00d64 	j	bfc03590 <ret_from_exception>
bfc01800:	00000000 	nop
	...

bfc01820 <main>:
main():
/home/fmars/MIPS_OS/init.c:59
  还有， 也有可能是printcharc向串口输出字符时，由于没有原子性，可能被打断，可能出现异常；
  因为当用户程序不能正常运行时，EPC值大多为printcharc里某指令的地址。
*/

int main()
{
bfc01820:	27bdffe0 	addiu	sp,sp,-32
bfc01824:	afbf001c 	sw	ra,28(sp)
bfc01828:	afbe0018 	sw	s8,24(sp)
bfc0182c:	03a0f021 	move	s8,sp
/home/fmars/MIPS_OS/init.c:88
	uput(i);
	uput(j);
	uput(0);
*/

    p_led   = (unsigned int *)(BASE_DEV + MINOR_BASE_LED) ;
bfc01830:	3c02a000 	lui	v0,0xa000
bfc01834:	34420700 	ori	v0,v0,0x700
bfc01838:	afc20010 	sw	v0,16(s8)
/home/fmars/MIPS_OS/init.c:89
    p_uart  = (unsigned int *)(BASE_DEV + MINOR_BASE_UART0) ;
bfc0183c:	3c02a000 	lui	v0,0xa000
bfc01840:	34420500 	ori	v0,v0,0x500
bfc01844:	afc20014 	sw	v0,20(s8)
/home/fmars/MIPS_OS/init.c:91

	*(p_uart + UART_DIV_SND/4) = 0xD9 ;  // 为串口UART0设定波特率
bfc01848:	8fc20014 	lw	v0,20(s8)
bfc0184c:	00000000 	nop
bfc01850:	24420018 	addiu	v0,v0,24
bfc01854:	240300d9 	li	v1,217
bfc01858:	ac430000 	sw	v1,0(v0)
/home/fmars/MIPS_OS/init.c:93
	
	Next_EnvNum=0;
bfc0185c:	3c029000 	lui	v0,0x9000
bfc01860:	ac403298 	sw	zero,12952(v0)
/home/fmars/MIPS_OS/init.c:96
	

	printf("Hello,World! The System is starting...\n");
bfc01864:	3c02bfc0 	lui	v0,0xbfc0
bfc01868:	24443b38 	addiu	a0,v0,15160
bfc0186c:	0ff0080c 	jal	bfc02030 <printf>
bfc01870:	00000000 	nop
/home/fmars/MIPS_OS/init.c:98

	trap_init();
bfc01874:	0ff00e1c 	jal	bfc03870 <trap_init>
bfc01878:	00000000 	nop
/home/fmars/MIPS_OS/init.c:99
	env_init();	
bfc0187c:	0ff00279 	jal	bfc009e4 <env_init>
bfc01880:	00000000 	nop
/home/fmars/MIPS_OS/init.c:101

	curenv = NULL;
bfc01884:	3c029000 	lui	v0,0x9000
bfc01888:	ac400000 	sw	zero,0(v0)
/home/fmars/MIPS_OS/init.c:107

	//ENV_CREATE(A); // 用户程序A、B、C, 方式一: 通过在user/src目录下编写用户程序，编译生成elf文件，
	//ENV_CREATE(B); // 用数组A.char、B.char、C.char编译进操作系统内
	//ENV_CREATE(C);
	
	printf("Begin to create process...\n");
bfc0188c:	3c02bfc0 	lui	v0,0xbfc0
bfc01890:	24443b60 	addiu	a0,v0,15200
bfc01894:	0ff0080c 	jal	bfc02030 <printf>
bfc01898:	00000000 	nop
/home/fmars/MIPS_OS/init.c:108
	create_A(); // 用户程序A、B、C， 方式二： 定义在env.c中, 即直接在OS内编写用户程序
bfc0189c:	0ff004a7 	jal	bfc0129c <create_A>
bfc018a0:	00000000 	nop
/home/fmars/MIPS_OS/init.c:109
	create_B();
bfc018a4:	0ff004f0 	jal	bfc013c0 <create_B>
bfc018a8:	00000000 	nop
/home/fmars/MIPS_OS/init.c:110
	create_C();
bfc018ac:	0ff00539 	jal	bfc014e4 <create_C>
bfc018b0:	00000000 	nop
/home/fmars/MIPS_OS/init.c:111
	printf("End to create process...\n");
bfc018b4:	3c02bfc0 	lui	v0,0xbfc0
bfc018b8:	24443b7c 	addiu	a0,v0,15228
bfc018bc:	0ff0080c 	jal	bfc02030 <printf>
bfc018c0:	00000000 	nop
/home/fmars/MIPS_OS/init.c:113

	printf("Begin to start timer...\n");
bfc018c4:	3c02bfc0 	lui	v0,0xbfc0
bfc018c8:	24443b98 	addiu	a0,v0,15256
bfc018cc:	0ff0080c 	jal	bfc02030 <printf>
bfc018d0:	00000000 	nop
/home/fmars/MIPS_OS/init.c:114
	start_timer();  // 启动中断计时器
bfc018d4:	0ff00005 	jal	bfc00014 <start_timer>
bfc018d8:	00000000 	nop
/home/fmars/MIPS_OS/init.c:126
	printf("  CAUSE=0x");
	print_num_hex(&cause);
	printf("\n");
*/
	
	printf("End to start timer...\n");
bfc018dc:	3c02bfc0 	lui	v0,0xbfc0
bfc018e0:	24443bb4 	addiu	a0,v0,15284
bfc018e4:	0ff0080c 	jal	bfc02030 <printf>
bfc018e8:	00000000 	nop
/home/fmars/MIPS_OS/init.c:128

	env_idle_run();  // 空闲进程
bfc018ec:	0ff00415 	jal	bfc01054 <env_idle_run>
bfc018f0:	00000000 	nop
/home/fmars/MIPS_OS/init.c:131
	

	panic("^^^^^^^^^^^ This is the never reached end ^^^^^^^^^^^^^^\n");
bfc018f4:	3c02bfc0 	lui	v0,0xbfc0
bfc018f8:	24443bcc 	addiu	a0,v0,15308
bfc018fc:	24050083 	li	a1,131
bfc01900:	3c02bfc0 	lui	v0,0xbfc0
bfc01904:	24463bd4 	addiu	a2,v0,15316
bfc01908:	0ff00822 	jal	bfc02088 <_panic>
bfc0190c:	00000000 	nop

bfc01910 <bcopy>:
bcopy():
/home/fmars/MIPS_OS/init.c:139
}



void bcopy(const void *src, void *dst, size_t len)
{
bfc01910:	27bdfff0 	addiu	sp,sp,-16
bfc01914:	afbe000c 	sw	s8,12(sp)
bfc01918:	03a0f021 	move	s8,sp
bfc0191c:	afc40010 	sw	a0,16(s8)
bfc01920:	afc50014 	sw	a1,20(s8)
bfc01924:	afc60018 	sw	a2,24(s8)
/home/fmars/MIPS_OS/init.c:142
	void *max;
	
	max = dst + len;
bfc01928:	8fc30014 	lw	v1,20(s8)
bfc0192c:	8fc20018 	lw	v0,24(s8)
bfc01930:	00000000 	nop
bfc01934:	00621021 	addu	v0,v1,v0
bfc01938:	afc20000 	sw	v0,0(s8)
/home/fmars/MIPS_OS/init.c:143
	if (((int)src%4==0)&&((int)dst%4==0))
bfc0193c:	8fc20010 	lw	v0,16(s8)
bfc01940:	00000000 	nop
bfc01944:	30420003 	andi	v0,v0,0x3
bfc01948:	1440002e 	bnez	v0,bfc01a04 <bcopy+0xf4>
bfc0194c:	00000000 	nop
bfc01950:	8fc20014 	lw	v0,20(s8)
bfc01954:	00000000 	nop
bfc01958:	30420003 	andi	v0,v0,0x3
bfc0195c:	14400029 	bnez	v0,bfc01a04 <bcopy+0xf4>
bfc01960:	00000000 	nop
/home/fmars/MIPS_OS/init.c:145
	{
		while (dst + 3 < max)
bfc01964:	0bf00669 	j	bfc019a4 <bcopy+0x94>
bfc01968:	00000000 	nop
/home/fmars/MIPS_OS/init.c:147
		{
			*(int *)dst = *(int *)src;
bfc0196c:	8fc20010 	lw	v0,16(s8)
bfc01970:	00000000 	nop
bfc01974:	8c430000 	lw	v1,0(v0)
bfc01978:	8fc20014 	lw	v0,20(s8)
bfc0197c:	00000000 	nop
bfc01980:	ac430000 	sw	v1,0(v0)
/home/fmars/MIPS_OS/init.c:148
			dst+=4;
bfc01984:	8fc20014 	lw	v0,20(s8)
bfc01988:	00000000 	nop
bfc0198c:	24420004 	addiu	v0,v0,4
bfc01990:	afc20014 	sw	v0,20(s8)
/home/fmars/MIPS_OS/init.c:149
			src+=4;
bfc01994:	8fc20010 	lw	v0,16(s8)
bfc01998:	00000000 	nop
bfc0199c:	24420004 	addiu	v0,v0,4
bfc019a0:	afc20010 	sw	v0,16(s8)
/home/fmars/MIPS_OS/init.c:145
	void *max;
	
	max = dst + len;
	if (((int)src%4==0)&&((int)dst%4==0))
	{
		while (dst + 3 < max)
bfc019a4:	8fc20014 	lw	v0,20(s8)
bfc019a8:	00000000 	nop
bfc019ac:	24430003 	addiu	v1,v0,3
bfc019b0:	8fc20000 	lw	v0,0(s8)
bfc019b4:	00000000 	nop
bfc019b8:	0062102b 	sltu	v0,v1,v0
bfc019bc:	1440ffeb 	bnez	v0,bfc0196c <bcopy+0x5c>
bfc019c0:	00000000 	nop
/home/fmars/MIPS_OS/init.c:153
			dst+=4;
			src+=4;
		}
	}
	
	while (dst < max)
bfc019c4:	0bf00681 	j	bfc01a04 <bcopy+0xf4>
bfc019c8:	00000000 	nop
/home/fmars/MIPS_OS/init.c:155
	{
		*(char *)dst = *(char *)src;
bfc019cc:	8fc20010 	lw	v0,16(s8)
bfc019d0:	00000000 	nop
bfc019d4:	80430000 	lb	v1,0(v0)
bfc019d8:	8fc20014 	lw	v0,20(s8)
bfc019dc:	00000000 	nop
bfc019e0:	a0430000 	sb	v1,0(v0)
/home/fmars/MIPS_OS/init.c:156
		dst+=1;
bfc019e4:	8fc20014 	lw	v0,20(s8)
bfc019e8:	00000000 	nop
bfc019ec:	24420001 	addiu	v0,v0,1
bfc019f0:	afc20014 	sw	v0,20(s8)
/home/fmars/MIPS_OS/init.c:157
		src+=1;
bfc019f4:	8fc20010 	lw	v0,16(s8)
bfc019f8:	00000000 	nop
bfc019fc:	24420001 	addiu	v0,v0,1
bfc01a00:	afc20010 	sw	v0,16(s8)
/home/fmars/MIPS_OS/init.c:153
			dst+=4;
			src+=4;
		}
	}
	
	while (dst < max)
bfc01a04:	8fc30014 	lw	v1,20(s8)
bfc01a08:	8fc20000 	lw	v0,0(s8)
bfc01a0c:	00000000 	nop
bfc01a10:	0062102b 	sltu	v0,v1,v0
bfc01a14:	1440ffed 	bnez	v0,bfc019cc <bcopy+0xbc>
bfc01a18:	00000000 	nop
/home/fmars/MIPS_OS/init.c:159
	{
		*(char *)dst = *(char *)src;
		dst+=1;
		src+=1;
	}
}
bfc01a1c:	03c0e821 	move	sp,s8
bfc01a20:	8fbe000c 	lw	s8,12(sp)
bfc01a24:	27bd0010 	addiu	sp,sp,16
bfc01a28:	03e00008 	jr	ra
bfc01a2c:	00000000 	nop

bfc01a30 <bzero>:
bzero():
/home/fmars/MIPS_OS/init.c:163


void bzero(void *v, u_int n)
{
bfc01a30:	27bdfff0 	addiu	sp,sp,-16
bfc01a34:	afbe000c 	sw	s8,12(sp)
bfc01a38:	03a0f021 	move	s8,sp
bfc01a3c:	afc40010 	sw	a0,16(s8)
bfc01a40:	afc50014 	sw	a1,20(s8)
/home/fmars/MIPS_OS/init.c:167
	char *p;
	int m;

	p = v;
bfc01a44:	8fc20010 	lw	v0,16(s8)
bfc01a48:	00000000 	nop
bfc01a4c:	afc20000 	sw	v0,0(s8)
/home/fmars/MIPS_OS/init.c:168
	m = n;
bfc01a50:	8fc20014 	lw	v0,20(s8)
bfc01a54:	00000000 	nop
bfc01a58:	afc20004 	sw	v0,4(s8)
/home/fmars/MIPS_OS/init.c:169
	while (--m >= 0)
bfc01a5c:	0bf006a0 	j	bfc01a80 <bzero+0x50>
bfc01a60:	00000000 	nop
/home/fmars/MIPS_OS/init.c:170
		*p++ = 0;
bfc01a64:	8fc20000 	lw	v0,0(s8)
bfc01a68:	00000000 	nop
bfc01a6c:	a0400000 	sb	zero,0(v0)
bfc01a70:	8fc20000 	lw	v0,0(s8)
bfc01a74:	00000000 	nop
bfc01a78:	24420001 	addiu	v0,v0,1
bfc01a7c:	afc20000 	sw	v0,0(s8)
/home/fmars/MIPS_OS/init.c:169
	char *p;
	int m;

	p = v;
	m = n;
	while (--m >= 0)
bfc01a80:	8fc20004 	lw	v0,4(s8)
bfc01a84:	00000000 	nop
bfc01a88:	2442ffff 	addiu	v0,v0,-1
bfc01a8c:	afc20004 	sw	v0,4(s8)
bfc01a90:	8fc20004 	lw	v0,4(s8)
bfc01a94:	00000000 	nop
bfc01a98:	0441fff2 	bgez	v0,bfc01a64 <bzero+0x34>
bfc01a9c:	00000000 	nop
/home/fmars/MIPS_OS/init.c:171
		*p++ = 0;
}
bfc01aa0:	03c0e821 	move	sp,s8
bfc01aa4:	8fbe000c 	lw	s8,12(sp)
bfc01aa8:	27bd0010 	addiu	sp,sp,16
bfc01aac:	03e00008 	jr	ra
bfc01ab0:	00000000 	nop

bfc01ab4 <myreadsr>:
myreadsr():
/home/fmars/MIPS_OS/init.c:178




static unsigned int __inline__ myreadsr(void)
{
bfc01ab4:	27bdfff0 	addiu	sp,sp,-16
bfc01ab8:	afbe000c 	sw	s8,12(sp)
bfc01abc:	afb00008 	sw	s0,8(sp)
bfc01ac0:	03a0f021 	move	s8,sp
/home/fmars/MIPS_OS/init.c:181
    unsigned int p ;
    
    asm( "mfc0 %0, $12" 
bfc01ac4:	40106000 	mfc0	s0,c0_sr
bfc01ac8:	00000000 	nop
bfc01acc:	afd00000 	sw	s0,0(s8)
/home/fmars/MIPS_OS/init.c:185
        :"=r"(p)
    ) ;
    
    return p ;
bfc01ad0:	8fc20000 	lw	v0,0(s8)
/home/fmars/MIPS_OS/init.c:186
}
bfc01ad4:	03c0e821 	move	sp,s8
bfc01ad8:	8fbe000c 	lw	s8,12(sp)
bfc01adc:	8fb00008 	lw	s0,8(sp)
bfc01ae0:	27bd0010 	addiu	sp,sp,16
bfc01ae4:	03e00008 	jr	ra
bfc01ae8:	00000000 	nop

bfc01aec <myreadcause>:
myreadcause():
/home/fmars/MIPS_OS/init.c:189

static unsigned int __inline__ myreadcause(void)
{
bfc01aec:	27bdfff0 	addiu	sp,sp,-16
bfc01af0:	afbe000c 	sw	s8,12(sp)
bfc01af4:	afb00008 	sw	s0,8(sp)
bfc01af8:	03a0f021 	move	s8,sp
/home/fmars/MIPS_OS/init.c:192
    unsigned int p ;
    
    asm( "mfc0 %0, $13" 
bfc01afc:	40106800 	mfc0	s0,c0_cause
bfc01b00:	00000000 	nop
bfc01b04:	afd00000 	sw	s0,0(s8)
/home/fmars/MIPS_OS/init.c:196
        :"=r"(p)
    ) ;
    
    return p ;
bfc01b08:	8fc20000 	lw	v0,0(s8)
/home/fmars/MIPS_OS/init.c:197
}
bfc01b0c:	03c0e821 	move	sp,s8
bfc01b10:	8fbe000c 	lw	s8,12(sp)
bfc01b14:	8fb00008 	lw	s0,8(sp)
bfc01b18:	27bd0010 	addiu	sp,sp,16
bfc01b1c:	03e00008 	jr	ra
bfc01b20:	00000000 	nop

bfc01b24 <signal_exception>:
signal_exception():
/home/fmars/MIPS_OS/init.c:201


void  signal_exception( void ) // 调试用，表明进入异常处理 
{
bfc01b24:	27bdffd8 	addiu	sp,sp,-40
bfc01b28:	afbf0024 	sw	ra,36(sp)
bfc01b2c:	afbe0020 	sw	s8,32(sp)
bfc01b30:	03a0f021 	move	s8,sp
/home/fmars/MIPS_OS/init.c:207
    unsigned int sr, cause ;

    unsigned int *p_led ;


    p_led   = (unsigned int *)(BASE_DEV + MINOR_BASE_LED) ;
bfc01b34:	3c02a000 	lui	v0,0xa000
bfc01b38:	34420700 	ori	v0,v0,0x700
bfc01b3c:	afc20010 	sw	v0,16(s8)
/home/fmars/MIPS_OS/init.c:210
 

    cause = myreadcause() ;
bfc01b40:	0ff006bb 	jal	bfc01aec <myreadcause>
bfc01b44:	00000000 	nop
bfc01b48:	afc20014 	sw	v0,20(s8)
/home/fmars/MIPS_OS/init.c:211
    sr = myreadsr() ;
bfc01b4c:	0ff006ad 	jal	bfc01ab4 <myreadsr>
bfc01b50:	00000000 	nop
bfc01b54:	afc20018 	sw	v0,24(s8)
/home/fmars/MIPS_OS/init.c:213
	
	*p_led=CAUSE_EXCCODE(cause)+128; 
bfc01b58:	8fc20014 	lw	v0,20(s8)
bfc01b5c:	00000000 	nop
bfc01b60:	304200fc 	andi	v0,v0,0xfc
bfc01b64:	00021082 	srl	v0,v0,0x2
bfc01b68:	24430080 	addiu	v1,v0,128
bfc01b6c:	8fc20010 	lw	v0,16(s8)
bfc01b70:	00000000 	nop
bfc01b74:	ac430000 	sw	v1,0(v0)
/home/fmars/MIPS_OS/init.c:218
    
//	printf("Enter exception...");


}
bfc01b78:	03c0e821 	move	sp,s8
bfc01b7c:	8fbf0024 	lw	ra,36(sp)
bfc01b80:	8fbe0020 	lw	s8,32(sp)
bfc01b84:	27bd0028 	addiu	sp,sp,40
bfc01b88:	03e00008 	jr	ra
bfc01b8c:	00000000 	nop

bfc01b90 <signal_int>:
signal_int():
/home/fmars/MIPS_OS/init.c:222


void  signal_int( void )  // 调试用，表明进入中断处理 
{
bfc01b90:	27bdfff8 	addiu	sp,sp,-8
bfc01b94:	afbe0004 	sw	s8,4(sp)
bfc01b98:	03a0f021 	move	s8,sp
/home/fmars/MIPS_OS/init.c:261
		
//fmars	
	printf("\nEnter Interruption............\n"); 
//	printf("Save Old Env Regs:\n");
*/
}
bfc01b9c:	03c0e821 	move	sp,s8
bfc01ba0:	8fbe0004 	lw	s8,4(sp)
bfc01ba4:	27bd0008 	addiu	sp,sp,8
bfc01ba8:	03e00008 	jr	ra
bfc01bac:	00000000 	nop

bfc01bb0 <leave_int>:
leave_int():
/home/fmars/MIPS_OS/init.c:265


void  leave_int( void )
{
bfc01bb0:	27bdfff8 	addiu	sp,sp,-8
bfc01bb4:	afbe0004 	sw	s8,4(sp)
bfc01bb8:	03a0f021 	move	s8,sp
/home/fmars/MIPS_OS/init.c:267
    //printf("Leave interrupt process program............\n\n");
}
bfc01bbc:	03c0e821 	move	sp,s8
bfc01bc0:	8fbe0004 	lw	s8,4(sp)
bfc01bc4:	27bd0008 	addiu	sp,sp,8
bfc01bc8:	03e00008 	jr	ra
bfc01bcc:	00000000 	nop

bfc01bd0 <print_hex>:
print_hex():
/home/fmars/MIPS_OS/init.c:272



void print_hex(unsigned char n)
{
bfc01bd0:	27bdffe8 	addiu	sp,sp,-24
bfc01bd4:	afbf0014 	sw	ra,20(sp)
bfc01bd8:	afbe0010 	sw	s8,16(sp)
bfc01bdc:	03a0f021 	move	s8,sp
bfc01be0:	00801021 	move	v0,a0
bfc01be4:	a3c20018 	sb	v0,24(s8)
/home/fmars/MIPS_OS/init.c:273
     if (n<10) printcharc('0'+n);
bfc01be8:	93c20018 	lbu	v0,24(s8)
bfc01bec:	00000000 	nop
bfc01bf0:	2c42000a 	sltiu	v0,v0,10
bfc01bf4:	1040000a 	beqz	v0,bfc01c20 <print_hex+0x50>
bfc01bf8:	00000000 	nop
bfc01bfc:	93c20018 	lbu	v0,24(s8)
bfc01c00:	00000000 	nop
bfc01c04:	24420030 	addiu	v0,v0,48
bfc01c08:	304200ff 	andi	v0,v0,0xff
bfc01c0c:	00402021 	move	a0,v0
bfc01c10:	0ff00200 	jal	bfc00800 <printcharc>
bfc01c14:	00000000 	nop
bfc01c18:	0bf0070f 	j	bfc01c3c <print_hex+0x6c>
bfc01c1c:	00000000 	nop
/home/fmars/MIPS_OS/init.c:274
	 else printcharc('A'+n-10);
bfc01c20:	93c20018 	lbu	v0,24(s8)
bfc01c24:	00000000 	nop
bfc01c28:	24420037 	addiu	v0,v0,55
bfc01c2c:	304200ff 	andi	v0,v0,0xff
bfc01c30:	00402021 	move	a0,v0
bfc01c34:	0ff00200 	jal	bfc00800 <printcharc>
bfc01c38:	00000000 	nop
/home/fmars/MIPS_OS/init.c:275
}
bfc01c3c:	03c0e821 	move	sp,s8
bfc01c40:	8fbf0014 	lw	ra,20(sp)
bfc01c44:	8fbe0010 	lw	s8,16(sp)
bfc01c48:	27bd0018 	addiu	sp,sp,24
bfc01c4c:	03e00008 	jr	ra
bfc01c50:	00000000 	nop

bfc01c54 <print_num_hex>:
print_num_hex():
/home/fmars/MIPS_OS/init.c:278

void print_num_hex(unsigned int *n) // 输出整数16进制值
{
bfc01c54:	27bdffa8 	addiu	sp,sp,-88
bfc01c58:	afbf0054 	sw	ra,84(sp)
bfc01c5c:	afbe0050 	sw	s8,80(sp)
bfc01c60:	03a0f021 	move	s8,sp
bfc01c64:	afc40058 	sw	a0,88(s8)
/home/fmars/MIPS_OS/init.c:283
	   int i;
       unsigned char buf[50],*ch;
       unsigned char c,c_h,c_l;	   

	   ch=(unsigned int *)n;
bfc01c68:	8fc20058 	lw	v0,88(s8)
bfc01c6c:	00000000 	nop
bfc01c70:	afc20014 	sw	v0,20(s8)
/home/fmars/MIPS_OS/init.c:284
	   ch=ch+3;
bfc01c74:	8fc20014 	lw	v0,20(s8)
bfc01c78:	00000000 	nop
bfc01c7c:	24420003 	addiu	v0,v0,3
bfc01c80:	afc20014 	sw	v0,20(s8)
/home/fmars/MIPS_OS/init.c:286
	   
	   for (i=0; i<4; i++ )
bfc01c84:	afc00010 	sw	zero,16(s8)
bfc01c88:	0bf00747 	j	bfc01d1c <print_num_hex+0xc8>
bfc01c8c:	00000000 	nop
/home/fmars/MIPS_OS/init.c:288
	   {
	      c=*ch--;
bfc01c90:	8fc20014 	lw	v0,20(s8)
bfc01c94:	00000000 	nop
bfc01c98:	90420000 	lbu	v0,0(v0)
bfc01c9c:	00000000 	nop
bfc01ca0:	a3c20018 	sb	v0,24(s8)
bfc01ca4:	8fc20014 	lw	v0,20(s8)
bfc01ca8:	00000000 	nop
bfc01cac:	2442ffff 	addiu	v0,v0,-1
bfc01cb0:	afc20014 	sw	v0,20(s8)
/home/fmars/MIPS_OS/init.c:289
		  c_l=c & 0x0F;
bfc01cb4:	93c20018 	lbu	v0,24(s8)
bfc01cb8:	00000000 	nop
bfc01cbc:	3042000f 	andi	v0,v0,0xf
bfc01cc0:	a3c20019 	sb	v0,25(s8)
/home/fmars/MIPS_OS/init.c:290
		  c_h=c & 0xF0;
bfc01cc4:	93c30018 	lbu	v1,24(s8)
bfc01cc8:	2402fff0 	li	v0,-16
bfc01ccc:	00621024 	and	v0,v1,v0
bfc01cd0:	a3c2001a 	sb	v0,26(s8)
/home/fmars/MIPS_OS/init.c:291
		  c_h=c_h>>4;
bfc01cd4:	93c2001a 	lbu	v0,26(s8)
bfc01cd8:	00000000 	nop
bfc01cdc:	00021102 	srl	v0,v0,0x4
bfc01ce0:	a3c2001a 	sb	v0,26(s8)
/home/fmars/MIPS_OS/init.c:292
		  print_hex(c_h);
bfc01ce4:	93c2001a 	lbu	v0,26(s8)
bfc01ce8:	00000000 	nop
bfc01cec:	00402021 	move	a0,v0
bfc01cf0:	0ff006f4 	jal	bfc01bd0 <print_hex>
bfc01cf4:	00000000 	nop
/home/fmars/MIPS_OS/init.c:293
		  print_hex(c_l); 
bfc01cf8:	93c20019 	lbu	v0,25(s8)
bfc01cfc:	00000000 	nop
bfc01d00:	00402021 	move	a0,v0
bfc01d04:	0ff006f4 	jal	bfc01bd0 <print_hex>
bfc01d08:	00000000 	nop
/home/fmars/MIPS_OS/init.c:286
       unsigned char c,c_h,c_l;	   

	   ch=(unsigned int *)n;
	   ch=ch+3;
	   
	   for (i=0; i<4; i++ )
bfc01d0c:	8fc20010 	lw	v0,16(s8)
bfc01d10:	00000000 	nop
bfc01d14:	24420001 	addiu	v0,v0,1
bfc01d18:	afc20010 	sw	v0,16(s8)
bfc01d1c:	8fc20010 	lw	v0,16(s8)
bfc01d20:	00000000 	nop
bfc01d24:	28420004 	slti	v0,v0,4
bfc01d28:	1440ffd9 	bnez	v0,bfc01c90 <print_num_hex+0x3c>
bfc01d2c:	00000000 	nop
/home/fmars/MIPS_OS/init.c:296
		  c_h=c_h>>4;
		  print_hex(c_h);
		  print_hex(c_l); 
	   }
		
}
bfc01d30:	03c0e821 	move	sp,s8
bfc01d34:	8fbf0054 	lw	ra,84(sp)
bfc01d38:	8fbe0050 	lw	s8,80(sp)
bfc01d3c:	27bd0058 	addiu	sp,sp,88
bfc01d40:	03e00008 	jr	ra
bfc01d44:	00000000 	nop

bfc01d48 <print_num_hex2>:
print_num_hex2():
/home/fmars/MIPS_OS/init.c:299

void print_num_hex2(unsigned int *n)
{
bfc01d48:	27bdffa8 	addiu	sp,sp,-88
bfc01d4c:	afbf0054 	sw	ra,84(sp)
bfc01d50:	afbe0050 	sw	s8,80(sp)
bfc01d54:	03a0f021 	move	s8,sp
bfc01d58:	afc40058 	sw	a0,88(s8)
/home/fmars/MIPS_OS/init.c:304
	   int i;
       unsigned char buf[50],*ch;
       unsigned char c,c_h,c_l;	   

	   ch=(unsigned int *)n;
bfc01d5c:	8fc20058 	lw	v0,88(s8)
bfc01d60:	00000000 	nop
bfc01d64:	afc20014 	sw	v0,20(s8)
/home/fmars/MIPS_OS/init.c:305
	   ch=ch+3;
bfc01d68:	8fc20014 	lw	v0,20(s8)
bfc01d6c:	00000000 	nop
bfc01d70:	24420003 	addiu	v0,v0,3
bfc01d74:	afc20014 	sw	v0,20(s8)
/home/fmars/MIPS_OS/init.c:307
	   
	   for (i=0; i<4; i++ )
bfc01d78:	afc00010 	sw	zero,16(s8)
bfc01d7c:	0bf00793 	j	bfc01e4c <print_num_hex2+0x104>
bfc01d80:	00000000 	nop
/home/fmars/MIPS_OS/init.c:309
	   {
	      c=*ch--;
bfc01d84:	8fc20014 	lw	v0,20(s8)
bfc01d88:	00000000 	nop
bfc01d8c:	90420000 	lbu	v0,0(v0)
bfc01d90:	00000000 	nop
bfc01d94:	a3c20018 	sb	v0,24(s8)
bfc01d98:	8fc20014 	lw	v0,20(s8)
bfc01d9c:	00000000 	nop
bfc01da0:	2442ffff 	addiu	v0,v0,-1
bfc01da4:	afc20014 	sw	v0,20(s8)
/home/fmars/MIPS_OS/init.c:310
		  c_l=c & 0x0F;
bfc01da8:	93c20018 	lbu	v0,24(s8)
bfc01dac:	00000000 	nop
bfc01db0:	3042000f 	andi	v0,v0,0xf
bfc01db4:	a3c20019 	sb	v0,25(s8)
/home/fmars/MIPS_OS/init.c:311
		  c_h=c & 0xF0;
bfc01db8:	93c30018 	lbu	v1,24(s8)
bfc01dbc:	2402fff0 	li	v0,-16
bfc01dc0:	00621024 	and	v0,v1,v0
bfc01dc4:	a3c2001a 	sb	v0,26(s8)
/home/fmars/MIPS_OS/init.c:312
		  c_h=c_h>>4;
bfc01dc8:	93c2001a 	lbu	v0,26(s8)
bfc01dcc:	00000000 	nop
bfc01dd0:	00021102 	srl	v0,v0,0x4
bfc01dd4:	a3c2001a 	sb	v0,26(s8)
/home/fmars/MIPS_OS/init.c:313
		  if (c_h==0 && c_l==0 && i!=3) continue;
bfc01dd8:	93c2001a 	lbu	v0,26(s8)
bfc01ddc:	00000000 	nop
bfc01de0:	14400009 	bnez	v0,bfc01e08 <print_num_hex2+0xc0>
bfc01de4:	00000000 	nop
bfc01de8:	93c20019 	lbu	v0,25(s8)
bfc01dec:	00000000 	nop
bfc01df0:	14400005 	bnez	v0,bfc01e08 <print_num_hex2+0xc0>
bfc01df4:	00000000 	nop
bfc01df8:	8fc30010 	lw	v1,16(s8)
bfc01dfc:	24020003 	li	v0,3
bfc01e00:	1462000d 	bne	v1,v0,bfc01e38 <print_num_hex2+0xf0>
bfc01e04:	00000000 	nop
/home/fmars/MIPS_OS/init.c:314
		  print_hex(c_h);
bfc01e08:	93c2001a 	lbu	v0,26(s8)
bfc01e0c:	00000000 	nop
bfc01e10:	00402021 	move	a0,v0
bfc01e14:	0ff006f4 	jal	bfc01bd0 <print_hex>
bfc01e18:	00000000 	nop
/home/fmars/MIPS_OS/init.c:315
		  print_hex(c_l); 
bfc01e1c:	93c20019 	lbu	v0,25(s8)
bfc01e20:	00000000 	nop
bfc01e24:	00402021 	move	a0,v0
bfc01e28:	0ff006f4 	jal	bfc01bd0 <print_hex>
bfc01e2c:	00000000 	nop
bfc01e30:	0bf0078f 	j	bfc01e3c <print_num_hex2+0xf4>
bfc01e34:	00000000 	nop
/home/fmars/MIPS_OS/init.c:313
	   {
	      c=*ch--;
		  c_l=c & 0x0F;
		  c_h=c & 0xF0;
		  c_h=c_h>>4;
		  if (c_h==0 && c_l==0 && i!=3) continue;
bfc01e38:	00000000 	nop
/home/fmars/MIPS_OS/init.c:307
       unsigned char c,c_h,c_l;	   

	   ch=(unsigned int *)n;
	   ch=ch+3;
	   
	   for (i=0; i<4; i++ )
bfc01e3c:	8fc20010 	lw	v0,16(s8)
bfc01e40:	00000000 	nop
bfc01e44:	24420001 	addiu	v0,v0,1
bfc01e48:	afc20010 	sw	v0,16(s8)
bfc01e4c:	8fc20010 	lw	v0,16(s8)
bfc01e50:	00000000 	nop
bfc01e54:	28420004 	slti	v0,v0,4
bfc01e58:	1440ffca 	bnez	v0,bfc01d84 <print_num_hex2+0x3c>
bfc01e5c:	00000000 	nop
/home/fmars/MIPS_OS/init.c:318
		  if (c_h==0 && c_l==0 && i!=3) continue;
		  print_hex(c_h);
		  print_hex(c_l); 
	   }
		
}
bfc01e60:	03c0e821 	move	sp,s8
bfc01e64:	8fbf0054 	lw	ra,84(sp)
bfc01e68:	8fbe0050 	lw	s8,80(sp)
bfc01e6c:	27bd0058 	addiu	sp,sp,88
bfc01e70:	03e00008 	jr	ra
bfc01e74:	00000000 	nop

bfc01e78 <print_reg>:
print_reg():
/home/fmars/MIPS_OS/init.c:321

void print_reg(unsigned int *n, int len)  // 调试用，打印寄存器值
{
bfc01e78:	27bdfff0 	addiu	sp,sp,-16
bfc01e7c:	afbe000c 	sw	s8,12(sp)
bfc01e80:	03a0f021 	move	s8,sp
bfc01e84:	afc40010 	sw	a0,16(s8)
bfc01e88:	afc50014 	sw	a1,20(s8)
/home/fmars/MIPS_OS/init.c:324
    int i;
//fmars
	for (i=0;i<len;i++)
bfc01e8c:	afc00000 	sw	zero,0(s8)
bfc01e90:	0bf007ae 	j	bfc01eb8 <print_reg+0x40>
bfc01e94:	00000000 	nop
/home/fmars/MIPS_OS/init.c:352
	   print_num_hex(n);
	   printf("  ");
	   
	   if (i==7 || i==15 || i==23 || i==31) printf("\n"); 
		*/
	   n=n+1;
bfc01e98:	8fc20010 	lw	v0,16(s8)
bfc01e9c:	00000000 	nop
bfc01ea0:	24420004 	addiu	v0,v0,4
bfc01ea4:	afc20010 	sw	v0,16(s8)
/home/fmars/MIPS_OS/init.c:324

void print_reg(unsigned int *n, int len)  // 调试用，打印寄存器值
{
    int i;
//fmars
	for (i=0;i<len;i++)
bfc01ea8:	8fc20000 	lw	v0,0(s8)
bfc01eac:	00000000 	nop
bfc01eb0:	24420001 	addiu	v0,v0,1
bfc01eb4:	afc20000 	sw	v0,0(s8)
bfc01eb8:	8fc30000 	lw	v1,0(s8)
bfc01ebc:	8fc20014 	lw	v0,20(s8)
bfc01ec0:	00000000 	nop
bfc01ec4:	0062102a 	slt	v0,v1,v0
bfc01ec8:	1440fff3 	bnez	v0,bfc01e98 <print_reg+0x20>
bfc01ecc:	00000000 	nop
/home/fmars/MIPS_OS/init.c:355
	   if (i==7 || i==15 || i==23 || i==31) printf("\n"); 
		*/
	   n=n+1;
	}
	//printf("\n");  
}	   	  
bfc01ed0:	03c0e821 	move	sp,s8
bfc01ed4:	8fbe000c 	lw	s8,12(sp)
bfc01ed8:	27bd0010 	addiu	sp,sp,16
bfc01edc:	03e00008 	jr	ra
bfc01ee0:	00000000 	nop
	...

bfc01ef0 <pa2sector>:
pa2sector():
/home/fmars/MIPS_OS/pmap.c:7
#include "include/pmap.h"

struct sector sectors[SEC_NUM]; 


struct sector * pa2sector(unsigned int pa ){
bfc01ef0:	27bdfff8 	addiu	sp,sp,-8
bfc01ef4:	afbe0004 	sw	s8,4(sp)
bfc01ef8:	03a0f021 	move	s8,sp
bfc01efc:	afc40008 	sw	a0,8(s8)
/home/fmars/MIPS_OS/pmap.c:8
	return &sectors [(pa - KSEG0_START)/SEC_SIZE];
bfc01f00:	8fc30008 	lw	v1,8(s8)
bfc01f04:	3c028000 	lui	v0,0x8000
bfc01f08:	00621021 	addu	v0,v1,v0
bfc01f0c:	00021502 	srl	v0,v0,0x14
bfc01f10:	00021880 	sll	v1,v0,0x2
bfc01f14:	3c029000 	lui	v0,0x9000
bfc01f18:	24422a10 	addiu	v0,v0,10768
bfc01f1c:	00621021 	addu	v0,v1,v0
/home/fmars/MIPS_OS/pmap.c:9
}
bfc01f20:	03c0e821 	move	sp,s8
bfc01f24:	8fbe0004 	lw	s8,4(sp)
bfc01f28:	27bd0008 	addiu	sp,sp,8
bfc01f2c:	03e00008 	jr	ra
bfc01f30:	00000000 	nop

bfc01f34 <memmory_init>:
memmory_init():
/home/fmars/MIPS_OS/pmap.c:12


void memmory_init(){
bfc01f34:	27bdffe8 	addiu	sp,sp,-24
bfc01f38:	afbf0014 	sw	ra,20(sp)
bfc01f3c:	afbe0010 	sw	s8,16(sp)
bfc01f40:	03a0f021 	move	s8,sp
/home/fmars/MIPS_OS/pmap.c:13
	bzero(sectors, sizeof(sectors));
bfc01f44:	3c029000 	lui	v0,0x9000
bfc01f48:	24442a10 	addiu	a0,v0,10768
bfc01f4c:	24050800 	li	a1,2048
bfc01f50:	0ff0068c 	jal	bfc01a30 <bzero>
bfc01f54:	00000000 	nop
/home/fmars/MIPS_OS/pmap.c:15

}
bfc01f58:	03c0e821 	move	sp,s8
bfc01f5c:	8fbf0014 	lw	ra,20(sp)
bfc01f60:	8fbe0010 	lw	s8,16(sp)
bfc01f64:	27bd0018 	addiu	sp,sp,24
bfc01f68:	03e00008 	jr	ra
bfc01f6c:	00000000 	nop

bfc01f70 <myoutput>:
myoutput():
/home/fmars/MIPS_OS/print.c:24
void printcharc(unsigned char ch);

void halt(void);

void myoutput(void *arg, unsigned char *s, int l)
{
bfc01f70:	27bdffe0 	addiu	sp,sp,-32
bfc01f74:	afbf001c 	sw	ra,28(sp)
bfc01f78:	afbe0018 	sw	s8,24(sp)
bfc01f7c:	03a0f021 	move	s8,sp
bfc01f80:	afc40020 	sw	a0,32(s8)
bfc01f84:	afc50024 	sw	a1,36(s8)
bfc01f88:	afc60028 	sw	a2,40(s8)
/home/fmars/MIPS_OS/print.c:28
    int i;

    // special termination call
    if ((l==1) && (s[0] == '\0')) {return;}
bfc01f8c:	8fc30028 	lw	v1,40(s8)
bfc01f90:	24020001 	li	v0,1
bfc01f94:	14620007 	bne	v1,v0,bfc01fb4 <myoutput+0x44>
bfc01f98:	00000000 	nop
bfc01f9c:	8fc20024 	lw	v0,36(s8)
bfc01fa0:	00000000 	nop
bfc01fa4:	90420000 	lbu	v0,0(v0)
bfc01fa8:	00000000 	nop
bfc01fac:	10400019 	beqz	v0,bfc02014 <myoutput+0xa4>
bfc01fb0:	00000000 	nop
/home/fmars/MIPS_OS/print.c:30
    
    for (i=0; i< l; i++) {
bfc01fb4:	afc00010 	sw	zero,16(s8)
bfc01fb8:	0bf007fd 	j	bfc01ff4 <myoutput+0x84>
bfc01fbc:	00000000 	nop
/home/fmars/MIPS_OS/print.c:31
	printcharc(s[i]);
bfc01fc0:	8fc20010 	lw	v0,16(s8)
bfc01fc4:	8fc30024 	lw	v1,36(s8)
bfc01fc8:	00000000 	nop
bfc01fcc:	00621021 	addu	v0,v1,v0
bfc01fd0:	90420000 	lbu	v0,0(v0)
bfc01fd4:	00000000 	nop
bfc01fd8:	00402021 	move	a0,v0
bfc01fdc:	0ff00200 	jal	bfc00800 <printcharc>
bfc01fe0:	00000000 	nop
/home/fmars/MIPS_OS/print.c:30
    int i;

    // special termination call
    if ((l==1) && (s[0] == '\0')) {return;}
    
    for (i=0; i< l; i++) {
bfc01fe4:	8fc20010 	lw	v0,16(s8)
bfc01fe8:	00000000 	nop
bfc01fec:	24420001 	addiu	v0,v0,1
bfc01ff0:	afc20010 	sw	v0,16(s8)
bfc01ff4:	8fc30010 	lw	v1,16(s8)
bfc01ff8:	8fc20028 	lw	v0,40(s8)
bfc01ffc:	00000000 	nop
bfc02000:	0062102a 	slt	v0,v1,v0
bfc02004:	1440ffee 	bnez	v0,bfc01fc0 <myoutput+0x50>
bfc02008:	00000000 	nop
bfc0200c:	0bf00806 	j	bfc02018 <myoutput+0xa8>
bfc02010:	00000000 	nop
/home/fmars/MIPS_OS/print.c:28
void myoutput(void *arg, unsigned char *s, int l)
{
    int i;

    // special termination call
    if ((l==1) && (s[0] == '\0')) {return;}
bfc02014:	00000000 	nop
/home/fmars/MIPS_OS/print.c:34
    
    for (i=0; i< l; i++) {
	printcharc(s[i]);
	//if (s[i] == '\n') printcharc('\n');
    }
}
bfc02018:	03c0e821 	move	sp,s8
bfc0201c:	8fbf001c 	lw	ra,28(sp)
bfc02020:	8fbe0018 	lw	s8,24(sp)
bfc02024:	27bd0020 	addiu	sp,sp,32
bfc02028:	03e00008 	jr	ra
bfc0202c:	00000000 	nop

bfc02030 <printf>:
printf():
/home/fmars/MIPS_OS/print.c:38
//fmars chage unsigned char * to char *
//void printf(unsigned char *fmt, ...)
void printf(unsigned char *fmt, ...)
{
bfc02030:	27bdffe0 	addiu	sp,sp,-32
bfc02034:	afbf001c 	sw	ra,28(sp)
bfc02038:	afbe0018 	sw	s8,24(sp)
bfc0203c:	03a0f021 	move	s8,sp
bfc02040:	afc50024 	sw	a1,36(s8)
bfc02044:	afc60028 	sw	a2,40(s8)
bfc02048:	afc7002c 	sw	a3,44(s8)
bfc0204c:	afc40020 	sw	a0,32(s8)
/home/fmars/MIPS_OS/print.c:40
    va_list ap;
    va_start(ap, fmt);
bfc02050:	27c20024 	addiu	v0,s8,36
bfc02054:	afc20010 	sw	v0,16(s8)
/home/fmars/MIPS_OS/print.c:41
    lp_Print(0, fmt, ap);
bfc02058:	8fc20010 	lw	v0,16(s8)
bfc0205c:	00002021 	move	a0,zero
bfc02060:	8fc50020 	lw	a1,32(s8)
bfc02064:	00403021 	move	a2,v0
bfc02068:	0ff0083e 	jal	bfc020f8 <lp_Print>
bfc0206c:	00000000 	nop
/home/fmars/MIPS_OS/print.c:43
    va_end(ap);
}
bfc02070:	03c0e821 	move	sp,s8
bfc02074:	8fbf001c 	lw	ra,28(sp)
bfc02078:	8fbe0018 	lw	s8,24(sp)
bfc0207c:	27bd0020 	addiu	sp,sp,32
bfc02080:	03e00008 	jr	ra
bfc02084:	00000000 	nop

bfc02088 <_panic>:
_panic():
/home/fmars/MIPS_OS/print.c:47

void
_panic(const unsigned char *file, int line, const unsigned char *fmt,...)
{
bfc02088:	27bdffe0 	addiu	sp,sp,-32
bfc0208c:	afbf001c 	sw	ra,28(sp)
bfc02090:	afbe0018 	sw	s8,24(sp)
bfc02094:	03a0f021 	move	s8,sp
bfc02098:	afc40020 	sw	a0,32(s8)
bfc0209c:	afc50024 	sw	a1,36(s8)
bfc020a0:	afc7002c 	sw	a3,44(s8)
bfc020a4:	afc60028 	sw	a2,40(s8)
/home/fmars/MIPS_OS/print.c:51
	va_list ap;


	va_start(ap, fmt);
bfc020a8:	27c2002c 	addiu	v0,s8,44
bfc020ac:	afc20010 	sw	v0,16(s8)
/home/fmars/MIPS_OS/print.c:52
	printf("panic at %s:%d: ", file, line);
bfc020b0:	3c02bfc0 	lui	v0,0xbfc0
bfc020b4:	24443c10 	addiu	a0,v0,15376
bfc020b8:	8fc50020 	lw	a1,32(s8)
bfc020bc:	8fc60024 	lw	a2,36(s8)
bfc020c0:	0ff0080c 	jal	bfc02030 <printf>
bfc020c4:	00000000 	nop
/home/fmars/MIPS_OS/print.c:53
	lp_Print( 0, (unsigned char *)fmt, ap);
bfc020c8:	8fc20010 	lw	v0,16(s8)
bfc020cc:	00002021 	move	a0,zero
bfc020d0:	8fc50028 	lw	a1,40(s8)
bfc020d4:	00403021 	move	a2,v0
bfc020d8:	0ff0083e 	jal	bfc020f8 <lp_Print>
bfc020dc:	00000000 	nop
/home/fmars/MIPS_OS/print.c:54
	printf("\n");
bfc020e0:	3c02bfc0 	lui	v0,0xbfc0
bfc020e4:	24443c24 	addiu	a0,v0,15396
bfc020e8:	0ff0080c 	jal	bfc02030 <printf>
bfc020ec:	00000000 	nop
/home/fmars/MIPS_OS/print.c:58
	va_end(ap);


	for(;;);
bfc020f0:	0bf0083c 	j	bfc020f0 <_panic+0x68>
bfc020f4:	00000000 	nop

bfc020f8 <lp_Print>:
lp_Print():
/home/fmars/MIPS_OS/print.c:98
void
lp_Print(//void (*output)(void *, unsigned char *, int), 
	 void * arg,
	 unsigned char *fmt, 
	 va_list ap)
{
bfc020f8:	27bdff58 	addiu	sp,sp,-168
bfc020fc:	afbf00a4 	sw	ra,164(sp)
bfc02100:	afbe00a0 	sw	s8,160(sp)
bfc02104:	03a0f021 	move	s8,sp
bfc02108:	afc400a8 	sw	a0,168(s8)
bfc0210c:	afc500ac 	sw	a1,172(s8)
bfc02110:	afc600b0 	sw	a2,176(s8)
/home/fmars/MIPS_OS/print.c:128
    int length;

    for(;;) {
	{ 
	    /* scan for the next '%' */
	    unsigned char *fmtStart = fmt;
bfc02114:	8fc200ac 	lw	v0,172(s8)
bfc02118:	00000000 	nop
bfc0211c:	afc2003c 	sw	v0,60(s8)
/home/fmars/MIPS_OS/print.c:129
	    while ( (*fmt != '\0') && (*fmt != '%')) {
bfc02120:	0bf0084e 	j	bfc02138 <lp_Print+0x40>
bfc02124:	00000000 	nop
/home/fmars/MIPS_OS/print.c:130
		fmt ++;
bfc02128:	8fc200ac 	lw	v0,172(s8)
bfc0212c:	00000000 	nop
bfc02130:	24420001 	addiu	v0,v0,1
bfc02134:	afc200ac 	sw	v0,172(s8)
/home/fmars/MIPS_OS/print.c:129

    for(;;) {
	{ 
	    /* scan for the next '%' */
	    unsigned char *fmtStart = fmt;
	    while ( (*fmt != '\0') && (*fmt != '%')) {
bfc02138:	8fc200ac 	lw	v0,172(s8)
bfc0213c:	00000000 	nop
bfc02140:	90420000 	lbu	v0,0(v0)
bfc02144:	00000000 	nop
bfc02148:	10400007 	beqz	v0,bfc02168 <lp_Print+0x70>
bfc0214c:	00000000 	nop
bfc02150:	8fc200ac 	lw	v0,172(s8)
bfc02154:	00000000 	nop
bfc02158:	90430000 	lbu	v1,0(v0)
bfc0215c:	24020025 	li	v0,37
bfc02160:	1462fff1 	bne	v1,v0,bfc02128 <lp_Print+0x30>
bfc02164:	00000000 	nop
/home/fmars/MIPS_OS/print.c:134
		fmt ++;
	    }

	    /* flush the string found so far */
	    myoutput(arg, fmtStart, fmt-fmtStart);
bfc02168:	8fc300ac 	lw	v1,172(s8)
bfc0216c:	8fc2003c 	lw	v0,60(s8)
bfc02170:	00000000 	nop
bfc02174:	00621023 	subu	v0,v1,v0
bfc02178:	8fc400a8 	lw	a0,168(s8)
bfc0217c:	8fc5003c 	lw	a1,60(s8)
bfc02180:	00403021 	move	a2,v0
bfc02184:	0ff007dc 	jal	bfc01f70 <myoutput>
bfc02188:	00000000 	nop
/home/fmars/MIPS_OS/print.c:137

	    /* are we hitting the end? */
	    if (*fmt == '\0') break;
bfc0218c:	8fc200ac 	lw	v0,172(s8)
bfc02190:	00000000 	nop
bfc02194:	90420000 	lbu	v0,0(v0)
bfc02198:	00000000 	nop
bfc0219c:	10400208 	beqz	v0,bfc029c0 <lp_Print+0x8c8>
bfc021a0:	00000000 	nop
/home/fmars/MIPS_OS/print.c:141
	}

	/* we found a '%' */
	fmt ++;
bfc021a4:	8fc200ac 	lw	v0,172(s8)
bfc021a8:	00000000 	nop
bfc021ac:	24420001 	addiu	v0,v0,1
bfc021b0:	afc200ac 	sw	v0,172(s8)
/home/fmars/MIPS_OS/print.c:144
	
	/* check for long */
	if (*fmt == 'l') {
bfc021b4:	8fc200ac 	lw	v0,172(s8)
bfc021b8:	00000000 	nop
bfc021bc:	90430000 	lbu	v1,0(v0)
bfc021c0:	2402006c 	li	v0,108
bfc021c4:	14620009 	bne	v1,v0,bfc021ec <lp_Print+0xf4>
bfc021c8:	00000000 	nop
/home/fmars/MIPS_OS/print.c:145
	    longFlag = 1;
bfc021cc:	24020001 	li	v0,1
bfc021d0:	afc20024 	sw	v0,36(s8)
/home/fmars/MIPS_OS/print.c:146
	    fmt ++;
bfc021d4:	8fc200ac 	lw	v0,172(s8)
bfc021d8:	00000000 	nop
bfc021dc:	24420001 	addiu	v0,v0,1
bfc021e0:	afc200ac 	sw	v0,172(s8)
bfc021e4:	0bf0087c 	j	bfc021f0 <lp_Print+0xf8>
bfc021e8:	00000000 	nop
/home/fmars/MIPS_OS/print.c:148
	} else {
	    longFlag = 0;
bfc021ec:	afc00024 	sw	zero,36(s8)
/home/fmars/MIPS_OS/print.c:152
	}

	/* check for other prefixes */
	width = 0;
bfc021f0:	afc0002c 	sw	zero,44(s8)
/home/fmars/MIPS_OS/print.c:153
	prec = -1;
bfc021f4:	2402ffff 	li	v0,-1
bfc021f8:	afc20030 	sw	v0,48(s8)
/home/fmars/MIPS_OS/print.c:154
	ladjust = 0;
bfc021fc:	afc00034 	sw	zero,52(s8)
/home/fmars/MIPS_OS/print.c:155
	padc = ' ';
bfc02200:	24020020 	li	v0,32
bfc02204:	a3c20038 	sb	v0,56(s8)
/home/fmars/MIPS_OS/print.c:157

	if (*fmt == '-') {
bfc02208:	8fc200ac 	lw	v0,172(s8)
bfc0220c:	00000000 	nop
bfc02210:	90430000 	lbu	v1,0(v0)
bfc02214:	2402002d 	li	v0,45
bfc02218:	14620007 	bne	v1,v0,bfc02238 <lp_Print+0x140>
bfc0221c:	00000000 	nop
/home/fmars/MIPS_OS/print.c:158
	    ladjust = 1;
bfc02220:	24020001 	li	v0,1
bfc02224:	afc20034 	sw	v0,52(s8)
/home/fmars/MIPS_OS/print.c:159
	    fmt ++;
bfc02228:	8fc200ac 	lw	v0,172(s8)
bfc0222c:	00000000 	nop
bfc02230:	24420001 	addiu	v0,v0,1
bfc02234:	afc200ac 	sw	v0,172(s8)
/home/fmars/MIPS_OS/print.c:162
	}

	if (*fmt == '0') {
bfc02238:	8fc200ac 	lw	v0,172(s8)
bfc0223c:	00000000 	nop
bfc02240:	90430000 	lbu	v1,0(v0)
bfc02244:	24020030 	li	v0,48
bfc02248:	14620007 	bne	v1,v0,bfc02268 <lp_Print+0x170>
bfc0224c:	00000000 	nop
/home/fmars/MIPS_OS/print.c:163
	    padc = '0';
bfc02250:	24020030 	li	v0,48
bfc02254:	a3c20038 	sb	v0,56(s8)
/home/fmars/MIPS_OS/print.c:164
	    fmt++;
bfc02258:	8fc200ac 	lw	v0,172(s8)
bfc0225c:	00000000 	nop
bfc02260:	24420001 	addiu	v0,v0,1
bfc02264:	afc200ac 	sw	v0,172(s8)
/home/fmars/MIPS_OS/print.c:167
	}

	if (IsDigit(*fmt)) {
bfc02268:	8fc200ac 	lw	v0,172(s8)
bfc0226c:	00000000 	nop
bfc02270:	90420000 	lbu	v0,0(v0)
bfc02274:	00000000 	nop
bfc02278:	2c420030 	sltiu	v0,v0,48
bfc0227c:	14400028 	bnez	v0,bfc02320 <lp_Print+0x228>
bfc02280:	00000000 	nop
bfc02284:	8fc200ac 	lw	v0,172(s8)
bfc02288:	00000000 	nop
bfc0228c:	90420000 	lbu	v0,0(v0)
bfc02290:	00000000 	nop
bfc02294:	2c42003a 	sltiu	v0,v0,58
bfc02298:	10400021 	beqz	v0,bfc02320 <lp_Print+0x228>
bfc0229c:	00000000 	nop
/home/fmars/MIPS_OS/print.c:168
	    while (IsDigit(*fmt)) {
bfc022a0:	0bf008ba 	j	bfc022e8 <lp_Print+0x1f0>
bfc022a4:	00000000 	nop
/home/fmars/MIPS_OS/print.c:169
		width = 10 * width + Ctod(*fmt++);
bfc022a8:	8fc2002c 	lw	v0,44(s8)
bfc022ac:	00000000 	nop
bfc022b0:	00021040 	sll	v0,v0,0x1
bfc022b4:	00021880 	sll	v1,v0,0x2
bfc022b8:	00431821 	addu	v1,v0,v1
bfc022bc:	8fc200ac 	lw	v0,172(s8)
bfc022c0:	00000000 	nop
bfc022c4:	90420000 	lbu	v0,0(v0)
bfc022c8:	00000000 	nop
bfc022cc:	2442ffd0 	addiu	v0,v0,-48
bfc022d0:	00621021 	addu	v0,v1,v0
bfc022d4:	afc2002c 	sw	v0,44(s8)
bfc022d8:	8fc200ac 	lw	v0,172(s8)
bfc022dc:	00000000 	nop
bfc022e0:	24420001 	addiu	v0,v0,1
bfc022e4:	afc200ac 	sw	v0,172(s8)
/home/fmars/MIPS_OS/print.c:168
	    padc = '0';
	    fmt++;
	}

	if (IsDigit(*fmt)) {
	    while (IsDigit(*fmt)) {
bfc022e8:	8fc200ac 	lw	v0,172(s8)
bfc022ec:	00000000 	nop
bfc022f0:	90420000 	lbu	v0,0(v0)
bfc022f4:	00000000 	nop
bfc022f8:	2c420030 	sltiu	v0,v0,48
bfc022fc:	14400008 	bnez	v0,bfc02320 <lp_Print+0x228>
bfc02300:	00000000 	nop
bfc02304:	8fc200ac 	lw	v0,172(s8)
bfc02308:	00000000 	nop
bfc0230c:	90420000 	lbu	v0,0(v0)
bfc02310:	00000000 	nop
bfc02314:	2c42003a 	sltiu	v0,v0,58
bfc02318:	1440ffe3 	bnez	v0,bfc022a8 <lp_Print+0x1b0>
bfc0231c:	00000000 	nop
/home/fmars/MIPS_OS/print.c:173
		width = 10 * width + Ctod(*fmt++);
	    }
	}

	if (*fmt == '.') {
bfc02320:	8fc200ac 	lw	v0,172(s8)
bfc02324:	00000000 	nop
bfc02328:	90430000 	lbu	v1,0(v0)
bfc0232c:	2402002e 	li	v0,46
bfc02330:	14620034 	bne	v1,v0,bfc02404 <lp_Print+0x30c>
bfc02334:	00000000 	nop
/home/fmars/MIPS_OS/print.c:174
	    fmt ++;
bfc02338:	8fc200ac 	lw	v0,172(s8)
bfc0233c:	00000000 	nop
bfc02340:	24420001 	addiu	v0,v0,1
bfc02344:	afc200ac 	sw	v0,172(s8)
/home/fmars/MIPS_OS/print.c:175
	    if (IsDigit(*fmt)) {
bfc02348:	8fc200ac 	lw	v0,172(s8)
bfc0234c:	00000000 	nop
bfc02350:	90420000 	lbu	v0,0(v0)
bfc02354:	00000000 	nop
bfc02358:	2c420030 	sltiu	v0,v0,48
bfc0235c:	14400029 	bnez	v0,bfc02404 <lp_Print+0x30c>
bfc02360:	00000000 	nop
bfc02364:	8fc200ac 	lw	v0,172(s8)
bfc02368:	00000000 	nop
bfc0236c:	90420000 	lbu	v0,0(v0)
bfc02370:	00000000 	nop
bfc02374:	2c42003a 	sltiu	v0,v0,58
bfc02378:	10400022 	beqz	v0,bfc02404 <lp_Print+0x30c>
bfc0237c:	00000000 	nop
/home/fmars/MIPS_OS/print.c:176
		prec = 0;
bfc02380:	afc00030 	sw	zero,48(s8)
/home/fmars/MIPS_OS/print.c:177
		while (IsDigit(*fmt)) {
bfc02384:	0bf008f3 	j	bfc023cc <lp_Print+0x2d4>
bfc02388:	00000000 	nop
/home/fmars/MIPS_OS/print.c:178
		    prec = prec*10 + Ctod(*fmt++);
bfc0238c:	8fc20030 	lw	v0,48(s8)
bfc02390:	00000000 	nop
bfc02394:	00021040 	sll	v0,v0,0x1
bfc02398:	00021880 	sll	v1,v0,0x2
bfc0239c:	00431821 	addu	v1,v0,v1
bfc023a0:	8fc200ac 	lw	v0,172(s8)
bfc023a4:	00000000 	nop
bfc023a8:	90420000 	lbu	v0,0(v0)
bfc023ac:	00000000 	nop
bfc023b0:	2442ffd0 	addiu	v0,v0,-48
bfc023b4:	00621021 	addu	v0,v1,v0
bfc023b8:	afc20030 	sw	v0,48(s8)
bfc023bc:	8fc200ac 	lw	v0,172(s8)
bfc023c0:	00000000 	nop
bfc023c4:	24420001 	addiu	v0,v0,1
bfc023c8:	afc200ac 	sw	v0,172(s8)
/home/fmars/MIPS_OS/print.c:177

	if (*fmt == '.') {
	    fmt ++;
	    if (IsDigit(*fmt)) {
		prec = 0;
		while (IsDigit(*fmt)) {
bfc023cc:	8fc200ac 	lw	v0,172(s8)
bfc023d0:	00000000 	nop
bfc023d4:	90420000 	lbu	v0,0(v0)
bfc023d8:	00000000 	nop
bfc023dc:	2c420030 	sltiu	v0,v0,48
bfc023e0:	14400008 	bnez	v0,bfc02404 <lp_Print+0x30c>
bfc023e4:	00000000 	nop
bfc023e8:	8fc200ac 	lw	v0,172(s8)
bfc023ec:	00000000 	nop
bfc023f0:	90420000 	lbu	v0,0(v0)
bfc023f4:	00000000 	nop
bfc023f8:	2c42003a 	sltiu	v0,v0,58
bfc023fc:	1440ffe3 	bnez	v0,bfc0238c <lp_Print+0x294>
bfc02400:	00000000 	nop
/home/fmars/MIPS_OS/print.c:185
	    }
	}


	/* check format flag */
	negFlag = 0;
bfc02404:	afc00028 	sw	zero,40(s8)
/home/fmars/MIPS_OS/print.c:186
	switch (*fmt) {
bfc02408:	8fc200ac 	lw	v0,172(s8)
bfc0240c:	00000000 	nop
bfc02410:	90420000 	lbu	v0,0(v0)
bfc02414:	00000000 	nop
bfc02418:	2c430079 	sltiu	v1,v0,121
bfc0241c:	1060015d 	beqz	v1,bfc02994 <lp_Print+0x89c>
bfc02420:	00000000 	nop
bfc02424:	00021880 	sll	v1,v0,0x2
bfc02428:	3c02bfc0 	lui	v0,0xbfc0
bfc0242c:	24423c48 	addiu	v0,v0,15432
bfc02430:	00621021 	addu	v0,v1,v0
bfc02434:	8c420000 	lw	v0,0(v0)
bfc02438:	00000000 	nop
bfc0243c:	00400008 	jr	v0
bfc02440:	00000000 	nop
/home/fmars/MIPS_OS/print.c:188
	 case 'b':
	    if (longFlag) { 
bfc02444:	8fc20024 	lw	v0,36(s8)
bfc02448:	00000000 	nop
bfc0244c:	1040000a 	beqz	v0,bfc02478 <lp_Print+0x380>
bfc02450:	00000000 	nop
/home/fmars/MIPS_OS/print.c:189
		num = va_arg(ap, long int); 
bfc02454:	8fc200b0 	lw	v0,176(s8)
bfc02458:	00000000 	nop
bfc0245c:	24430004 	addiu	v1,v0,4
bfc02460:	afc300b0 	sw	v1,176(s8)
bfc02464:	8c420000 	lw	v0,0(v0)
bfc02468:	00000000 	nop
bfc0246c:	afc20020 	sw	v0,32(s8)
bfc02470:	0bf00925 	j	bfc02494 <lp_Print+0x39c>
bfc02474:	00000000 	nop
/home/fmars/MIPS_OS/print.c:191
	    } else { 
		num = va_arg(ap, int);
bfc02478:	8fc200b0 	lw	v0,176(s8)
bfc0247c:	00000000 	nop
bfc02480:	24430004 	addiu	v1,v0,4
bfc02484:	afc300b0 	sw	v1,176(s8)
bfc02488:	8c420000 	lw	v0,0(v0)
bfc0248c:	00000000 	nop
bfc02490:	afc20020 	sw	v0,32(s8)
/home/fmars/MIPS_OS/print.c:193
	    }
	    length = PrintNum(buf, num, 2, 0, width, ladjust, padc, 0);
bfc02494:	8fc20020 	lw	v0,32(s8)
bfc02498:	93c40038 	lbu	a0,56(s8)
bfc0249c:	27c3004c 	addiu	v1,s8,76
bfc024a0:	8fc5002c 	lw	a1,44(s8)
bfc024a4:	00000000 	nop
bfc024a8:	afa50010 	sw	a1,16(sp)
bfc024ac:	8fc50034 	lw	a1,52(s8)
bfc024b0:	00000000 	nop
bfc024b4:	afa50014 	sw	a1,20(sp)
bfc024b8:	afa40018 	sw	a0,24(sp)
bfc024bc:	afa0001c 	sw	zero,28(sp)
bfc024c0:	00602021 	move	a0,v1
bfc024c4:	00402821 	move	a1,v0
bfc024c8:	24060002 	li	a2,2
bfc024cc:	00003821 	move	a3,zero
bfc024d0:	0ff00bc0 	jal	bfc02f00 <PrintNum>
bfc024d4:	00000000 	nop
bfc024d8:	afc20040 	sw	v0,64(s8)
/home/fmars/MIPS_OS/print.c:194
	    myoutput(arg, buf, length);
bfc024dc:	27c2004c 	addiu	v0,s8,76
bfc024e0:	8fc400a8 	lw	a0,168(s8)
bfc024e4:	00402821 	move	a1,v0
bfc024e8:	8fc60040 	lw	a2,64(s8)
bfc024ec:	0ff007dc 	jal	bfc01f70 <myoutput>
bfc024f0:	00000000 	nop
/home/fmars/MIPS_OS/print.c:195
	    break;
bfc024f4:	0bf00a6a 	j	bfc029a8 <lp_Print+0x8b0>
bfc024f8:	00000000 	nop
/home/fmars/MIPS_OS/print.c:199

	 case 'd':
	 case 'D':
	    if (longFlag) { 
bfc024fc:	8fc20024 	lw	v0,36(s8)
bfc02500:	00000000 	nop
bfc02504:	1040000a 	beqz	v0,bfc02530 <lp_Print+0x438>
bfc02508:	00000000 	nop
/home/fmars/MIPS_OS/print.c:200
		num = va_arg(ap, long int);
bfc0250c:	8fc200b0 	lw	v0,176(s8)
bfc02510:	00000000 	nop
bfc02514:	24430004 	addiu	v1,v0,4
bfc02518:	afc300b0 	sw	v1,176(s8)
bfc0251c:	8c420000 	lw	v0,0(v0)
bfc02520:	00000000 	nop
bfc02524:	afc20020 	sw	v0,32(s8)
bfc02528:	0bf00953 	j	bfc0254c <lp_Print+0x454>
bfc0252c:	00000000 	nop
/home/fmars/MIPS_OS/print.c:202
	    } else { 
		num = va_arg(ap, int); 
bfc02530:	8fc200b0 	lw	v0,176(s8)
bfc02534:	00000000 	nop
bfc02538:	24430004 	addiu	v1,v0,4
bfc0253c:	afc300b0 	sw	v1,176(s8)
bfc02540:	8c420000 	lw	v0,0(v0)
bfc02544:	00000000 	nop
bfc02548:	afc20020 	sw	v0,32(s8)
/home/fmars/MIPS_OS/print.c:204
	    }
	    if (num < 0) {
bfc0254c:	8fc20020 	lw	v0,32(s8)
bfc02550:	00000000 	nop
bfc02554:	04410007 	bgez	v0,bfc02574 <lp_Print+0x47c>
bfc02558:	00000000 	nop
/home/fmars/MIPS_OS/print.c:205
		num = - num;
bfc0255c:	8fc20020 	lw	v0,32(s8)
bfc02560:	00000000 	nop
bfc02564:	00021023 	negu	v0,v0
bfc02568:	afc20020 	sw	v0,32(s8)
/home/fmars/MIPS_OS/print.c:206
		negFlag = 1;
bfc0256c:	24020001 	li	v0,1
bfc02570:	afc20028 	sw	v0,40(s8)
/home/fmars/MIPS_OS/print.c:208
	    }
	    length = PrintNum(buf, num, 10, negFlag, width, ladjust, padc, 0);
bfc02574:	8fc20020 	lw	v0,32(s8)
bfc02578:	93c40038 	lbu	a0,56(s8)
bfc0257c:	27c3004c 	addiu	v1,s8,76
bfc02580:	8fc5002c 	lw	a1,44(s8)
bfc02584:	00000000 	nop
bfc02588:	afa50010 	sw	a1,16(sp)
bfc0258c:	8fc50034 	lw	a1,52(s8)
bfc02590:	00000000 	nop
bfc02594:	afa50014 	sw	a1,20(sp)
bfc02598:	afa40018 	sw	a0,24(sp)
bfc0259c:	afa0001c 	sw	zero,28(sp)
bfc025a0:	00602021 	move	a0,v1
bfc025a4:	00402821 	move	a1,v0
bfc025a8:	2406000a 	li	a2,10
bfc025ac:	8fc70028 	lw	a3,40(s8)
bfc025b0:	0ff00bc0 	jal	bfc02f00 <PrintNum>
bfc025b4:	00000000 	nop
bfc025b8:	afc20040 	sw	v0,64(s8)
/home/fmars/MIPS_OS/print.c:209
	    myoutput(arg, buf, length);
bfc025bc:	27c2004c 	addiu	v0,s8,76
bfc025c0:	8fc400a8 	lw	a0,168(s8)
bfc025c4:	00402821 	move	a1,v0
bfc025c8:	8fc60040 	lw	a2,64(s8)
bfc025cc:	0ff007dc 	jal	bfc01f70 <myoutput>
bfc025d0:	00000000 	nop
/home/fmars/MIPS_OS/print.c:210
	    break;
bfc025d4:	0bf00a6a 	j	bfc029a8 <lp_Print+0x8b0>
bfc025d8:	00000000 	nop
/home/fmars/MIPS_OS/print.c:214

	 case 'o':
	 case 'O':
	    if (longFlag) { 
bfc025dc:	8fc20024 	lw	v0,36(s8)
bfc025e0:	00000000 	nop
bfc025e4:	1040000a 	beqz	v0,bfc02610 <lp_Print+0x518>
bfc025e8:	00000000 	nop
/home/fmars/MIPS_OS/print.c:215
		num = va_arg(ap, long int);
bfc025ec:	8fc200b0 	lw	v0,176(s8)
bfc025f0:	00000000 	nop
bfc025f4:	24430004 	addiu	v1,v0,4
bfc025f8:	afc300b0 	sw	v1,176(s8)
bfc025fc:	8c420000 	lw	v0,0(v0)
bfc02600:	00000000 	nop
bfc02604:	afc20020 	sw	v0,32(s8)
bfc02608:	0bf0098b 	j	bfc0262c <lp_Print+0x534>
bfc0260c:	00000000 	nop
/home/fmars/MIPS_OS/print.c:217
	    } else { 
		num = va_arg(ap, int); 
bfc02610:	8fc200b0 	lw	v0,176(s8)
bfc02614:	00000000 	nop
bfc02618:	24430004 	addiu	v1,v0,4
bfc0261c:	afc300b0 	sw	v1,176(s8)
bfc02620:	8c420000 	lw	v0,0(v0)
bfc02624:	00000000 	nop
bfc02628:	afc20020 	sw	v0,32(s8)
/home/fmars/MIPS_OS/print.c:219
	    }
	    length = PrintNum(buf, num, 8, 0, width, ladjust, padc, 0);
bfc0262c:	8fc20020 	lw	v0,32(s8)
bfc02630:	93c40038 	lbu	a0,56(s8)
bfc02634:	27c3004c 	addiu	v1,s8,76
bfc02638:	8fc5002c 	lw	a1,44(s8)
bfc0263c:	00000000 	nop
bfc02640:	afa50010 	sw	a1,16(sp)
bfc02644:	8fc50034 	lw	a1,52(s8)
bfc02648:	00000000 	nop
bfc0264c:	afa50014 	sw	a1,20(sp)
bfc02650:	afa40018 	sw	a0,24(sp)
bfc02654:	afa0001c 	sw	zero,28(sp)
bfc02658:	00602021 	move	a0,v1
bfc0265c:	00402821 	move	a1,v0
bfc02660:	24060008 	li	a2,8
bfc02664:	00003821 	move	a3,zero
bfc02668:	0ff00bc0 	jal	bfc02f00 <PrintNum>
bfc0266c:	00000000 	nop
bfc02670:	afc20040 	sw	v0,64(s8)
/home/fmars/MIPS_OS/print.c:220
	    myoutput(arg, buf, length);
bfc02674:	27c2004c 	addiu	v0,s8,76
bfc02678:	8fc400a8 	lw	a0,168(s8)
bfc0267c:	00402821 	move	a1,v0
bfc02680:	8fc60040 	lw	a2,64(s8)
bfc02684:	0ff007dc 	jal	bfc01f70 <myoutput>
bfc02688:	00000000 	nop
/home/fmars/MIPS_OS/print.c:221
	    break;
bfc0268c:	0bf00a6a 	j	bfc029a8 <lp_Print+0x8b0>
bfc02690:	00000000 	nop
/home/fmars/MIPS_OS/print.c:225

	 case 'u':
	 case 'U':
	    if (longFlag) { 
bfc02694:	8fc20024 	lw	v0,36(s8)
bfc02698:	00000000 	nop
bfc0269c:	1040000a 	beqz	v0,bfc026c8 <lp_Print+0x5d0>
bfc026a0:	00000000 	nop
/home/fmars/MIPS_OS/print.c:226
		num = va_arg(ap, long int);
bfc026a4:	8fc200b0 	lw	v0,176(s8)
bfc026a8:	00000000 	nop
bfc026ac:	24430004 	addiu	v1,v0,4
bfc026b0:	afc300b0 	sw	v1,176(s8)
bfc026b4:	8c420000 	lw	v0,0(v0)
bfc026b8:	00000000 	nop
bfc026bc:	afc20020 	sw	v0,32(s8)
bfc026c0:	0bf009b9 	j	bfc026e4 <lp_Print+0x5ec>
bfc026c4:	00000000 	nop
/home/fmars/MIPS_OS/print.c:228
	    } else { 
		num = va_arg(ap, int); 
bfc026c8:	8fc200b0 	lw	v0,176(s8)
bfc026cc:	00000000 	nop
bfc026d0:	24430004 	addiu	v1,v0,4
bfc026d4:	afc300b0 	sw	v1,176(s8)
bfc026d8:	8c420000 	lw	v0,0(v0)
bfc026dc:	00000000 	nop
bfc026e0:	afc20020 	sw	v0,32(s8)
/home/fmars/MIPS_OS/print.c:230
	    }
	    length = PrintNum(buf, num, 10, 0, width, ladjust, padc, 0);
bfc026e4:	8fc20020 	lw	v0,32(s8)
bfc026e8:	93c40038 	lbu	a0,56(s8)
bfc026ec:	27c3004c 	addiu	v1,s8,76
bfc026f0:	8fc5002c 	lw	a1,44(s8)
bfc026f4:	00000000 	nop
bfc026f8:	afa50010 	sw	a1,16(sp)
bfc026fc:	8fc50034 	lw	a1,52(s8)
bfc02700:	00000000 	nop
bfc02704:	afa50014 	sw	a1,20(sp)
bfc02708:	afa40018 	sw	a0,24(sp)
bfc0270c:	afa0001c 	sw	zero,28(sp)
bfc02710:	00602021 	move	a0,v1
bfc02714:	00402821 	move	a1,v0
bfc02718:	2406000a 	li	a2,10
bfc0271c:	00003821 	move	a3,zero
bfc02720:	0ff00bc0 	jal	bfc02f00 <PrintNum>
bfc02724:	00000000 	nop
bfc02728:	afc20040 	sw	v0,64(s8)
/home/fmars/MIPS_OS/print.c:231
	    myoutput(arg, buf, length);
bfc0272c:	27c2004c 	addiu	v0,s8,76
bfc02730:	8fc400a8 	lw	a0,168(s8)
bfc02734:	00402821 	move	a1,v0
bfc02738:	8fc60040 	lw	a2,64(s8)
bfc0273c:	0ff007dc 	jal	bfc01f70 <myoutput>
bfc02740:	00000000 	nop
/home/fmars/MIPS_OS/print.c:232
	    break;
bfc02744:	0bf00a6a 	j	bfc029a8 <lp_Print+0x8b0>
bfc02748:	00000000 	nop
/home/fmars/MIPS_OS/print.c:235
	    
	 case 'x':
	    if (longFlag) { 
bfc0274c:	8fc20024 	lw	v0,36(s8)
bfc02750:	00000000 	nop
bfc02754:	1040000a 	beqz	v0,bfc02780 <lp_Print+0x688>
bfc02758:	00000000 	nop
/home/fmars/MIPS_OS/print.c:236
		num = va_arg(ap, long int);
bfc0275c:	8fc200b0 	lw	v0,176(s8)
bfc02760:	00000000 	nop
bfc02764:	24430004 	addiu	v1,v0,4
bfc02768:	afc300b0 	sw	v1,176(s8)
bfc0276c:	8c420000 	lw	v0,0(v0)
bfc02770:	00000000 	nop
bfc02774:	afc20020 	sw	v0,32(s8)
bfc02778:	0bf009e7 	j	bfc0279c <lp_Print+0x6a4>
bfc0277c:	00000000 	nop
/home/fmars/MIPS_OS/print.c:238
	    } else { 
		num = va_arg(ap, int); 
bfc02780:	8fc200b0 	lw	v0,176(s8)
bfc02784:	00000000 	nop
bfc02788:	24430004 	addiu	v1,v0,4
bfc0278c:	afc300b0 	sw	v1,176(s8)
bfc02790:	8c420000 	lw	v0,0(v0)
bfc02794:	00000000 	nop
bfc02798:	afc20020 	sw	v0,32(s8)
/home/fmars/MIPS_OS/print.c:240
	    }
	    length = PrintNum(buf, num, 16, 0, width, ladjust, padc, 0);
bfc0279c:	8fc20020 	lw	v0,32(s8)
bfc027a0:	93c40038 	lbu	a0,56(s8)
bfc027a4:	27c3004c 	addiu	v1,s8,76
bfc027a8:	8fc5002c 	lw	a1,44(s8)
bfc027ac:	00000000 	nop
bfc027b0:	afa50010 	sw	a1,16(sp)
bfc027b4:	8fc50034 	lw	a1,52(s8)
bfc027b8:	00000000 	nop
bfc027bc:	afa50014 	sw	a1,20(sp)
bfc027c0:	afa40018 	sw	a0,24(sp)
bfc027c4:	afa0001c 	sw	zero,28(sp)
bfc027c8:	00602021 	move	a0,v1
bfc027cc:	00402821 	move	a1,v0
bfc027d0:	24060010 	li	a2,16
bfc027d4:	00003821 	move	a3,zero
bfc027d8:	0ff00bc0 	jal	bfc02f00 <PrintNum>
bfc027dc:	00000000 	nop
bfc027e0:	afc20040 	sw	v0,64(s8)
/home/fmars/MIPS_OS/print.c:241
	    myoutput(arg, buf, length);
bfc027e4:	27c2004c 	addiu	v0,s8,76
bfc027e8:	8fc400a8 	lw	a0,168(s8)
bfc027ec:	00402821 	move	a1,v0
bfc027f0:	8fc60040 	lw	a2,64(s8)
bfc027f4:	0ff007dc 	jal	bfc01f70 <myoutput>
bfc027f8:	00000000 	nop
/home/fmars/MIPS_OS/print.c:242
	    break;
bfc027fc:	0bf00a6a 	j	bfc029a8 <lp_Print+0x8b0>
bfc02800:	00000000 	nop
/home/fmars/MIPS_OS/print.c:245

	 case 'X':
	    if (longFlag) { 
bfc02804:	8fc20024 	lw	v0,36(s8)
bfc02808:	00000000 	nop
bfc0280c:	1040000a 	beqz	v0,bfc02838 <lp_Print+0x740>
bfc02810:	00000000 	nop
/home/fmars/MIPS_OS/print.c:246
		num = va_arg(ap, long int);
bfc02814:	8fc200b0 	lw	v0,176(s8)
bfc02818:	00000000 	nop
bfc0281c:	24430004 	addiu	v1,v0,4
bfc02820:	afc300b0 	sw	v1,176(s8)
bfc02824:	8c420000 	lw	v0,0(v0)
bfc02828:	00000000 	nop
bfc0282c:	afc20020 	sw	v0,32(s8)
bfc02830:	0bf00a15 	j	bfc02854 <lp_Print+0x75c>
bfc02834:	00000000 	nop
/home/fmars/MIPS_OS/print.c:248
	    } else { 
		num = va_arg(ap, int); 
bfc02838:	8fc200b0 	lw	v0,176(s8)
bfc0283c:	00000000 	nop
bfc02840:	24430004 	addiu	v1,v0,4
bfc02844:	afc300b0 	sw	v1,176(s8)
bfc02848:	8c420000 	lw	v0,0(v0)
bfc0284c:	00000000 	nop
bfc02850:	afc20020 	sw	v0,32(s8)
/home/fmars/MIPS_OS/print.c:250
	    }
	    length = PrintNum(buf, num, 16, 0, width, ladjust, padc, 1);
bfc02854:	8fc20020 	lw	v0,32(s8)
bfc02858:	93c40038 	lbu	a0,56(s8)
bfc0285c:	27c3004c 	addiu	v1,s8,76
bfc02860:	8fc5002c 	lw	a1,44(s8)
bfc02864:	00000000 	nop
bfc02868:	afa50010 	sw	a1,16(sp)
bfc0286c:	8fc50034 	lw	a1,52(s8)
bfc02870:	00000000 	nop
bfc02874:	afa50014 	sw	a1,20(sp)
bfc02878:	afa40018 	sw	a0,24(sp)
bfc0287c:	24040001 	li	a0,1
bfc02880:	afa4001c 	sw	a0,28(sp)
bfc02884:	00602021 	move	a0,v1
bfc02888:	00402821 	move	a1,v0
bfc0288c:	24060010 	li	a2,16
bfc02890:	00003821 	move	a3,zero
bfc02894:	0ff00bc0 	jal	bfc02f00 <PrintNum>
bfc02898:	00000000 	nop
bfc0289c:	afc20040 	sw	v0,64(s8)
/home/fmars/MIPS_OS/print.c:251
	    myoutput(arg, buf, length);
bfc028a0:	27c2004c 	addiu	v0,s8,76
bfc028a4:	8fc400a8 	lw	a0,168(s8)
bfc028a8:	00402821 	move	a1,v0
bfc028ac:	8fc60040 	lw	a2,64(s8)
bfc028b0:	0ff007dc 	jal	bfc01f70 <myoutput>
bfc028b4:	00000000 	nop
/home/fmars/MIPS_OS/print.c:252
	    break;
bfc028b8:	0bf00a6a 	j	bfc029a8 <lp_Print+0x8b0>
bfc028bc:	00000000 	nop
/home/fmars/MIPS_OS/print.c:255

	 case 'c':
	    c = (unsigned char)va_arg(ap, int);
bfc028c0:	8fc200b0 	lw	v0,176(s8)
bfc028c4:	00000000 	nop
bfc028c8:	24430004 	addiu	v1,v0,4
bfc028cc:	afc300b0 	sw	v1,176(s8)
bfc028d0:	8c420000 	lw	v0,0(v0)
bfc028d4:	00000000 	nop
bfc028d8:	a3c20044 	sb	v0,68(s8)
/home/fmars/MIPS_OS/print.c:256
	    length = PrintChar(buf, c, width, ladjust);
bfc028dc:	93c20044 	lbu	v0,68(s8)
bfc028e0:	27c3004c 	addiu	v1,s8,76
bfc028e4:	00602021 	move	a0,v1
bfc028e8:	00402821 	move	a1,v0
bfc028ec:	8fc6002c 	lw	a2,44(s8)
bfc028f0:	8fc70034 	lw	a3,52(s8)
bfc028f4:	0ff00a7d 	jal	bfc029f4 <PrintChar>
bfc028f8:	00000000 	nop
bfc028fc:	afc20040 	sw	v0,64(s8)
/home/fmars/MIPS_OS/print.c:257
	    myoutput(arg, buf, length);
bfc02900:	27c2004c 	addiu	v0,s8,76
bfc02904:	8fc400a8 	lw	a0,168(s8)
bfc02908:	00402821 	move	a1,v0
bfc0290c:	8fc60040 	lw	a2,64(s8)
bfc02910:	0ff007dc 	jal	bfc01f70 <myoutput>
bfc02914:	00000000 	nop
/home/fmars/MIPS_OS/print.c:258
	    break;
bfc02918:	0bf00a6a 	j	bfc029a8 <lp_Print+0x8b0>
bfc0291c:	00000000 	nop
/home/fmars/MIPS_OS/print.c:261

	 case 's':
	    s = (unsigned char*)va_arg(ap, unsigned char *);
bfc02920:	8fc200b0 	lw	v0,176(s8)
bfc02924:	00000000 	nop
bfc02928:	24430004 	addiu	v1,v0,4
bfc0292c:	afc300b0 	sw	v1,176(s8)
bfc02930:	8c420000 	lw	v0,0(v0)
bfc02934:	00000000 	nop
bfc02938:	afc20048 	sw	v0,72(s8)
/home/fmars/MIPS_OS/print.c:262
	    length = PrintString(buf, s, width, ladjust);
bfc0293c:	27c2004c 	addiu	v0,s8,76
bfc02940:	00402021 	move	a0,v0
bfc02944:	8fc50048 	lw	a1,72(s8)
bfc02948:	8fc6002c 	lw	a2,44(s8)
bfc0294c:	8fc70034 	lw	a3,52(s8)
bfc02950:	0ff00acd 	jal	bfc02b34 <PrintString>
bfc02954:	00000000 	nop
bfc02958:	afc20040 	sw	v0,64(s8)
/home/fmars/MIPS_OS/print.c:263
	    myoutput(arg, buf, length);
bfc0295c:	27c2004c 	addiu	v0,s8,76
bfc02960:	8fc400a8 	lw	a0,168(s8)
bfc02964:	00402821 	move	a1,v0
bfc02968:	8fc60040 	lw	a2,64(s8)
bfc0296c:	0ff007dc 	jal	bfc01f70 <myoutput>
bfc02970:	00000000 	nop
/home/fmars/MIPS_OS/print.c:264
	    break;
bfc02974:	0bf00a6a 	j	bfc029a8 <lp_Print+0x8b0>
bfc02978:	00000000 	nop
/home/fmars/MIPS_OS/print.c:267

	 case '\0':
	    fmt --;
bfc0297c:	8fc200ac 	lw	v0,172(s8)
bfc02980:	00000000 	nop
bfc02984:	2442ffff 	addiu	v0,v0,-1
bfc02988:	afc200ac 	sw	v0,172(s8)
/home/fmars/MIPS_OS/print.c:268
	    break;
bfc0298c:	0bf00a6a 	j	bfc029a8 <lp_Print+0x8b0>
bfc02990:	00000000 	nop
/home/fmars/MIPS_OS/print.c:272

	 default:
	    /* output this unsigned char as it is */
	    myoutput(arg, fmt, 1);
bfc02994:	8fc400a8 	lw	a0,168(s8)
bfc02998:	8fc500ac 	lw	a1,172(s8)
bfc0299c:	24060001 	li	a2,1
bfc029a0:	0ff007dc 	jal	bfc01f70 <myoutput>
bfc029a4:	00000000 	nop
/home/fmars/MIPS_OS/print.c:275
	}	/* switch (*fmt) */

	fmt ++;
bfc029a8:	8fc200ac 	lw	v0,172(s8)
bfc029ac:	00000000 	nop
bfc029b0:	24420001 	addiu	v0,v0,1
bfc029b4:	afc200ac 	sw	v0,172(s8)
/home/fmars/MIPS_OS/print.c:276
    }		/* for(;;) */
bfc029b8:	0bf00845 	j	bfc02114 <lp_Print+0x1c>
bfc029bc:	00000000 	nop
/home/fmars/MIPS_OS/print.c:137

	    /* flush the string found so far */
	    myoutput(arg, fmtStart, fmt-fmtStart);

	    /* are we hitting the end? */
	    if (*fmt == '\0') break;
bfc029c0:	00000000 	nop
/home/fmars/MIPS_OS/print.c:279

	fmt ++;
    }		/* for(;;) */

    /* special termination call */
    myoutput(arg, "\0", 1);
bfc029c4:	8fc400a8 	lw	a0,168(s8)
bfc029c8:	3c02bfc0 	lui	v0,0xbfc0
bfc029cc:	24453c44 	addiu	a1,v0,15428
bfc029d0:	24060001 	li	a2,1
bfc029d4:	0ff007dc 	jal	bfc01f70 <myoutput>
bfc029d8:	00000000 	nop
/home/fmars/MIPS_OS/print.c:280
}
bfc029dc:	03c0e821 	move	sp,s8
bfc029e0:	8fbf00a4 	lw	ra,164(sp)
bfc029e4:	8fbe00a0 	lw	s8,160(sp)
bfc029e8:	27bd00a8 	addiu	sp,sp,168
bfc029ec:	03e00008 	jr	ra
bfc029f0:	00000000 	nop

bfc029f4 <PrintChar>:
PrintChar():
/home/fmars/MIPS_OS/print.c:286


/* --------------- local help functions --------------------- */
int
PrintChar(unsigned char * buf, unsigned char c, int length, int ladjust)
{
bfc029f4:	27bdfff0 	addiu	sp,sp,-16
bfc029f8:	afbe000c 	sw	s8,12(sp)
bfc029fc:	03a0f021 	move	s8,sp
bfc02a00:	afc40010 	sw	a0,16(s8)
bfc02a04:	00a01021 	move	v0,a1
bfc02a08:	afc60018 	sw	a2,24(s8)
bfc02a0c:	afc7001c 	sw	a3,28(s8)
bfc02a10:	a3c20014 	sb	v0,20(s8)
/home/fmars/MIPS_OS/print.c:289
    int i;
    
    if (length < 1) length = 1;
bfc02a14:	8fc20018 	lw	v0,24(s8)
bfc02a18:	00000000 	nop
bfc02a1c:	1c400003 	bgtz	v0,bfc02a2c <PrintChar+0x38>
bfc02a20:	00000000 	nop
bfc02a24:	24020001 	li	v0,1
bfc02a28:	afc20018 	sw	v0,24(s8)
/home/fmars/MIPS_OS/print.c:290
    if (ladjust) {
bfc02a2c:	8fc2001c 	lw	v0,28(s8)
bfc02a30:	00000000 	nop
bfc02a34:	1040001b 	beqz	v0,bfc02aa4 <PrintChar+0xb0>
bfc02a38:	00000000 	nop
/home/fmars/MIPS_OS/print.c:291
	*buf = c;
bfc02a3c:	8fc20010 	lw	v0,16(s8)
bfc02a40:	93c30014 	lbu	v1,20(s8)
bfc02a44:	00000000 	nop
bfc02a48:	a0430000 	sb	v1,0(v0)
/home/fmars/MIPS_OS/print.c:292
	for (i=1; i< length; i++) buf[i] = ' ';
bfc02a4c:	24020001 	li	v0,1
bfc02a50:	afc20000 	sw	v0,0(s8)
bfc02a54:	0bf00aa1 	j	bfc02a84 <PrintChar+0x90>
bfc02a58:	00000000 	nop
bfc02a5c:	8fc20000 	lw	v0,0(s8)
bfc02a60:	8fc30010 	lw	v1,16(s8)
bfc02a64:	00000000 	nop
bfc02a68:	00621021 	addu	v0,v1,v0
bfc02a6c:	24030020 	li	v1,32
bfc02a70:	a0430000 	sb	v1,0(v0)
bfc02a74:	8fc20000 	lw	v0,0(s8)
bfc02a78:	00000000 	nop
bfc02a7c:	24420001 	addiu	v0,v0,1
bfc02a80:	afc20000 	sw	v0,0(s8)
bfc02a84:	8fc30000 	lw	v1,0(s8)
bfc02a88:	8fc20018 	lw	v0,24(s8)
bfc02a8c:	00000000 	nop
bfc02a90:	0062102a 	slt	v0,v1,v0
bfc02a94:	1440fff1 	bnez	v0,bfc02a5c <PrintChar+0x68>
bfc02a98:	00000000 	nop
bfc02a9c:	0bf00ac7 	j	bfc02b1c <PrintChar+0x128>
bfc02aa0:	00000000 	nop
/home/fmars/MIPS_OS/print.c:294
    } else {
	for (i=0; i< length-1; i++) buf[i] = ' ';
bfc02aa4:	afc00000 	sw	zero,0(s8)
bfc02aa8:	0bf00ab6 	j	bfc02ad8 <PrintChar+0xe4>
bfc02aac:	00000000 	nop
bfc02ab0:	8fc20000 	lw	v0,0(s8)
bfc02ab4:	8fc30010 	lw	v1,16(s8)
bfc02ab8:	00000000 	nop
bfc02abc:	00621021 	addu	v0,v1,v0
bfc02ac0:	24030020 	li	v1,32
bfc02ac4:	a0430000 	sb	v1,0(v0)
bfc02ac8:	8fc20000 	lw	v0,0(s8)
bfc02acc:	00000000 	nop
bfc02ad0:	24420001 	addiu	v0,v0,1
bfc02ad4:	afc20000 	sw	v0,0(s8)
bfc02ad8:	8fc20018 	lw	v0,24(s8)
bfc02adc:	00000000 	nop
bfc02ae0:	2443ffff 	addiu	v1,v0,-1
bfc02ae4:	8fc20000 	lw	v0,0(s8)
bfc02ae8:	00000000 	nop
bfc02aec:	0043102a 	slt	v0,v0,v1
bfc02af0:	1440ffef 	bnez	v0,bfc02ab0 <PrintChar+0xbc>
bfc02af4:	00000000 	nop
/home/fmars/MIPS_OS/print.c:295
	buf[length - 1] = c;
bfc02af8:	8fc20018 	lw	v0,24(s8)
bfc02afc:	00000000 	nop
bfc02b00:	2442ffff 	addiu	v0,v0,-1
bfc02b04:	8fc30010 	lw	v1,16(s8)
bfc02b08:	00000000 	nop
bfc02b0c:	00621021 	addu	v0,v1,v0
bfc02b10:	93c30014 	lbu	v1,20(s8)
bfc02b14:	00000000 	nop
bfc02b18:	a0430000 	sb	v1,0(v0)
/home/fmars/MIPS_OS/print.c:297
    }
    return length;
bfc02b1c:	8fc20018 	lw	v0,24(s8)
/home/fmars/MIPS_OS/print.c:298
}
bfc02b20:	03c0e821 	move	sp,s8
bfc02b24:	8fbe000c 	lw	s8,12(sp)
bfc02b28:	27bd0010 	addiu	sp,sp,16
bfc02b2c:	03e00008 	jr	ra
bfc02b30:	00000000 	nop

bfc02b34 <PrintString>:
PrintString():
/home/fmars/MIPS_OS/print.c:302

int
PrintString(unsigned char * buf, unsigned char* s, int length, int ladjust)
{
bfc02b34:	27bdffe8 	addiu	sp,sp,-24
bfc02b38:	afbe0014 	sw	s8,20(sp)
bfc02b3c:	03a0f021 	move	s8,sp
bfc02b40:	afc40018 	sw	a0,24(s8)
bfc02b44:	afc5001c 	sw	a1,28(s8)
bfc02b48:	afc60020 	sw	a2,32(s8)
bfc02b4c:	afc70024 	sw	a3,36(s8)
/home/fmars/MIPS_OS/print.c:304
    int i;
    int len=0;
bfc02b50:	afc00004 	sw	zero,4(s8)
/home/fmars/MIPS_OS/print.c:305
    unsigned char* s1 = s;
bfc02b54:	8fc2001c 	lw	v0,28(s8)
bfc02b58:	00000000 	nop
bfc02b5c:	afc20008 	sw	v0,8(s8)
/home/fmars/MIPS_OS/print.c:306
    while (*s1++) len++;
bfc02b60:	0bf00ade 	j	bfc02b78 <PrintString+0x44>
bfc02b64:	00000000 	nop
bfc02b68:	8fc20004 	lw	v0,4(s8)
bfc02b6c:	00000000 	nop
bfc02b70:	24420001 	addiu	v0,v0,1
bfc02b74:	afc20004 	sw	v0,4(s8)
bfc02b78:	8fc20008 	lw	v0,8(s8)
bfc02b7c:	00000000 	nop
bfc02b80:	90420000 	lbu	v0,0(v0)
bfc02b84:	00000000 	nop
bfc02b88:	0002102b 	sltu	v0,zero,v0
bfc02b8c:	304200ff 	andi	v0,v0,0xff
bfc02b90:	8fc30008 	lw	v1,8(s8)
bfc02b94:	00000000 	nop
bfc02b98:	24630001 	addiu	v1,v1,1
bfc02b9c:	afc30008 	sw	v1,8(s8)
bfc02ba0:	1440fff1 	bnez	v0,bfc02b68 <PrintString+0x34>
bfc02ba4:	00000000 	nop
/home/fmars/MIPS_OS/print.c:307
    if (length < len) length = len;
bfc02ba8:	8fc30020 	lw	v1,32(s8)
bfc02bac:	8fc20004 	lw	v0,4(s8)
bfc02bb0:	00000000 	nop
bfc02bb4:	0062102a 	slt	v0,v1,v0
bfc02bb8:	10400004 	beqz	v0,bfc02bcc <PrintString+0x98>
bfc02bbc:	00000000 	nop
bfc02bc0:	8fc20004 	lw	v0,4(s8)
bfc02bc4:	00000000 	nop
bfc02bc8:	afc20020 	sw	v0,32(s8)
/home/fmars/MIPS_OS/print.c:309

    if (ladjust) {
bfc02bcc:	8fc20024 	lw	v0,36(s8)
bfc02bd0:	00000000 	nop
bfc02bd4:	10400030 	beqz	v0,bfc02c98 <PrintString+0x164>
bfc02bd8:	00000000 	nop
/home/fmars/MIPS_OS/print.c:310
	for (i=0; i< len; i++) buf[i] = s[i];
bfc02bdc:	afc00000 	sw	zero,0(s8)
bfc02be0:	0bf00b09 	j	bfc02c24 <PrintString+0xf0>
bfc02be4:	00000000 	nop
bfc02be8:	8fc20000 	lw	v0,0(s8)
bfc02bec:	8fc30018 	lw	v1,24(s8)
bfc02bf0:	00000000 	nop
bfc02bf4:	00621021 	addu	v0,v1,v0
bfc02bf8:	8fc30000 	lw	v1,0(s8)
bfc02bfc:	8fc4001c 	lw	a0,28(s8)
bfc02c00:	00000000 	nop
bfc02c04:	00831821 	addu	v1,a0,v1
bfc02c08:	90630000 	lbu	v1,0(v1)
bfc02c0c:	00000000 	nop
bfc02c10:	a0430000 	sb	v1,0(v0)
bfc02c14:	8fc20000 	lw	v0,0(s8)
bfc02c18:	00000000 	nop
bfc02c1c:	24420001 	addiu	v0,v0,1
bfc02c20:	afc20000 	sw	v0,0(s8)
bfc02c24:	8fc30000 	lw	v1,0(s8)
bfc02c28:	8fc20004 	lw	v0,4(s8)
bfc02c2c:	00000000 	nop
bfc02c30:	0062102a 	slt	v0,v1,v0
bfc02c34:	1440ffec 	bnez	v0,bfc02be8 <PrintString+0xb4>
bfc02c38:	00000000 	nop
/home/fmars/MIPS_OS/print.c:311
	for (i=len; i< length; i++) buf[i] = ' ';
bfc02c3c:	8fc20004 	lw	v0,4(s8)
bfc02c40:	00000000 	nop
bfc02c44:	afc20000 	sw	v0,0(s8)
bfc02c48:	0bf00b1e 	j	bfc02c78 <PrintString+0x144>
bfc02c4c:	00000000 	nop
bfc02c50:	8fc20000 	lw	v0,0(s8)
bfc02c54:	8fc30018 	lw	v1,24(s8)
bfc02c58:	00000000 	nop
bfc02c5c:	00621021 	addu	v0,v1,v0
bfc02c60:	24030020 	li	v1,32
bfc02c64:	a0430000 	sb	v1,0(v0)
bfc02c68:	8fc20000 	lw	v0,0(s8)
bfc02c6c:	00000000 	nop
bfc02c70:	24420001 	addiu	v0,v0,1
bfc02c74:	afc20000 	sw	v0,0(s8)
bfc02c78:	8fc30000 	lw	v1,0(s8)
bfc02c7c:	8fc20020 	lw	v0,32(s8)
bfc02c80:	00000000 	nop
bfc02c84:	0062102a 	slt	v0,v1,v0
bfc02c88:	1440fff1 	bnez	v0,bfc02c50 <PrintString+0x11c>
bfc02c8c:	00000000 	nop
bfc02c90:	0bf00b5e 	j	bfc02d78 <PrintString+0x244>
bfc02c94:	00000000 	nop
/home/fmars/MIPS_OS/print.c:313
    } else {
	for (i=0; i< length-len; i++) buf[i] = ' ';
bfc02c98:	afc00000 	sw	zero,0(s8)
bfc02c9c:	0bf00b33 	j	bfc02ccc <PrintString+0x198>
bfc02ca0:	00000000 	nop
bfc02ca4:	8fc20000 	lw	v0,0(s8)
bfc02ca8:	8fc30018 	lw	v1,24(s8)
bfc02cac:	00000000 	nop
bfc02cb0:	00621021 	addu	v0,v1,v0
bfc02cb4:	24030020 	li	v1,32
bfc02cb8:	a0430000 	sb	v1,0(v0)
bfc02cbc:	8fc20000 	lw	v0,0(s8)
bfc02cc0:	00000000 	nop
bfc02cc4:	24420001 	addiu	v0,v0,1
bfc02cc8:	afc20000 	sw	v0,0(s8)
bfc02ccc:	8fc30020 	lw	v1,32(s8)
bfc02cd0:	8fc20004 	lw	v0,4(s8)
bfc02cd4:	00000000 	nop
bfc02cd8:	00621823 	subu	v1,v1,v0
bfc02cdc:	8fc20000 	lw	v0,0(s8)
bfc02ce0:	00000000 	nop
bfc02ce4:	0043102a 	slt	v0,v0,v1
bfc02ce8:	1440ffee 	bnez	v0,bfc02ca4 <PrintString+0x170>
bfc02cec:	00000000 	nop
/home/fmars/MIPS_OS/print.c:314
	for (i=length-len; i < length; i++) buf[i] = s[i-length+len];
bfc02cf0:	8fc30020 	lw	v1,32(s8)
bfc02cf4:	8fc20004 	lw	v0,4(s8)
bfc02cf8:	00000000 	nop
bfc02cfc:	00621023 	subu	v0,v1,v0
bfc02d00:	afc20000 	sw	v0,0(s8)
bfc02d04:	0bf00b58 	j	bfc02d60 <PrintString+0x22c>
bfc02d08:	00000000 	nop
bfc02d0c:	8fc20000 	lw	v0,0(s8)
bfc02d10:	8fc30018 	lw	v1,24(s8)
bfc02d14:	00000000 	nop
bfc02d18:	00621021 	addu	v0,v1,v0
bfc02d1c:	8fc40000 	lw	a0,0(s8)
bfc02d20:	8fc30020 	lw	v1,32(s8)
bfc02d24:	00000000 	nop
bfc02d28:	00832023 	subu	a0,a0,v1
bfc02d2c:	8fc30004 	lw	v1,4(s8)
bfc02d30:	00000000 	nop
bfc02d34:	00831821 	addu	v1,a0,v1
bfc02d38:	8fc4001c 	lw	a0,28(s8)
bfc02d3c:	00000000 	nop
bfc02d40:	00831821 	addu	v1,a0,v1
bfc02d44:	90630000 	lbu	v1,0(v1)
bfc02d48:	00000000 	nop
bfc02d4c:	a0430000 	sb	v1,0(v0)
bfc02d50:	8fc20000 	lw	v0,0(s8)
bfc02d54:	00000000 	nop
bfc02d58:	24420001 	addiu	v0,v0,1
bfc02d5c:	afc20000 	sw	v0,0(s8)
bfc02d60:	8fc30000 	lw	v1,0(s8)
bfc02d64:	8fc20020 	lw	v0,32(s8)
bfc02d68:	00000000 	nop
bfc02d6c:	0062102a 	slt	v0,v1,v0
bfc02d70:	1440ffe6 	bnez	v0,bfc02d0c <PrintString+0x1d8>
bfc02d74:	00000000 	nop
/home/fmars/MIPS_OS/print.c:316
    }
    return length;
bfc02d78:	8fc20020 	lw	v0,32(s8)
/home/fmars/MIPS_OS/print.c:317
}
bfc02d7c:	03c0e821 	move	sp,s8
bfc02d80:	8fbe0014 	lw	s8,20(sp)
bfc02d84:	27bd0018 	addiu	sp,sp,24
bfc02d88:	03e00008 	jr	ra
bfc02d8c:	00000000 	nop

bfc02d90 <print_num_buf>:
print_num_buf():
/home/fmars/MIPS_OS/print.c:321


void print_num_buf(unsigned char *buf, unsigned int *n)
{
bfc02d90:	27bdffe8 	addiu	sp,sp,-24
bfc02d94:	afbe0014 	sw	s8,20(sp)
bfc02d98:	03a0f021 	move	s8,sp
bfc02d9c:	afc40018 	sw	a0,24(s8)
bfc02da0:	afc5001c 	sw	a1,28(s8)
/home/fmars/MIPS_OS/print.c:326
	   int i;
       unsigned char *ch;
       unsigned char c,c_h,c_l;	   

	   ch=(unsigned int *)n;
bfc02da4:	8fc2001c 	lw	v0,28(s8)
bfc02da8:	00000000 	nop
bfc02dac:	afc20004 	sw	v0,4(s8)
/home/fmars/MIPS_OS/print.c:328
	   
	   for (i=0; i<4; i++ )
bfc02db0:	afc00000 	sw	zero,0(s8)
bfc02db4:	0bf00bb6 	j	bfc02ed8 <print_num_buf+0x148>
bfc02db8:	00000000 	nop
/home/fmars/MIPS_OS/print.c:330
	   {
	      c=*ch++;
bfc02dbc:	8fc20004 	lw	v0,4(s8)
bfc02dc0:	00000000 	nop
bfc02dc4:	90420000 	lbu	v0,0(v0)
bfc02dc8:	00000000 	nop
bfc02dcc:	a3c20008 	sb	v0,8(s8)
bfc02dd0:	8fc20004 	lw	v0,4(s8)
bfc02dd4:	00000000 	nop
bfc02dd8:	24420001 	addiu	v0,v0,1
bfc02ddc:	afc20004 	sw	v0,4(s8)
/home/fmars/MIPS_OS/print.c:331
		  c_l=c & 0x0F;
bfc02de0:	93c20008 	lbu	v0,8(s8)
bfc02de4:	00000000 	nop
bfc02de8:	3042000f 	andi	v0,v0,0xf
bfc02dec:	a3c20009 	sb	v0,9(s8)
/home/fmars/MIPS_OS/print.c:332
		  c_h=c & 0xF0;
bfc02df0:	93c30008 	lbu	v1,8(s8)
bfc02df4:	2402fff0 	li	v0,-16
bfc02df8:	00621024 	and	v0,v1,v0
bfc02dfc:	a3c2000a 	sb	v0,10(s8)
/home/fmars/MIPS_OS/print.c:333
		  c_h=c_h>>4;
bfc02e00:	93c2000a 	lbu	v0,10(s8)
bfc02e04:	00000000 	nop
bfc02e08:	00021102 	srl	v0,v0,0x4
bfc02e0c:	a3c2000a 	sb	v0,10(s8)
/home/fmars/MIPS_OS/print.c:334
		  if (c_h<9) *buf='0'+c_h;
bfc02e10:	93c2000a 	lbu	v0,10(s8)
bfc02e14:	00000000 	nop
bfc02e18:	2c420009 	sltiu	v0,v0,9
bfc02e1c:	1040000a 	beqz	v0,bfc02e48 <print_num_buf+0xb8>
bfc02e20:	00000000 	nop
bfc02e24:	93c2000a 	lbu	v0,10(s8)
bfc02e28:	00000000 	nop
bfc02e2c:	24420030 	addiu	v0,v0,48
bfc02e30:	304300ff 	andi	v1,v0,0xff
bfc02e34:	8fc20018 	lw	v0,24(s8)
bfc02e38:	00000000 	nop
bfc02e3c:	a0430000 	sb	v1,0(v0)
bfc02e40:	0bf00b99 	j	bfc02e64 <print_num_buf+0xd4>
bfc02e44:	00000000 	nop
/home/fmars/MIPS_OS/print.c:335
		  else *buf='A'+c_h-10;
bfc02e48:	93c2000a 	lbu	v0,10(s8)
bfc02e4c:	00000000 	nop
bfc02e50:	24420037 	addiu	v0,v0,55
bfc02e54:	304300ff 	andi	v1,v0,0xff
bfc02e58:	8fc20018 	lw	v0,24(s8)
bfc02e5c:	00000000 	nop
bfc02e60:	a0430000 	sb	v1,0(v0)
/home/fmars/MIPS_OS/print.c:337
		  
		  if (c_l<9) *buf='0'+c_l;
bfc02e64:	93c20009 	lbu	v0,9(s8)
bfc02e68:	00000000 	nop
bfc02e6c:	2c420009 	sltiu	v0,v0,9
bfc02e70:	1040000a 	beqz	v0,bfc02e9c <print_num_buf+0x10c>
bfc02e74:	00000000 	nop
bfc02e78:	93c20009 	lbu	v0,9(s8)
bfc02e7c:	00000000 	nop
bfc02e80:	24420030 	addiu	v0,v0,48
bfc02e84:	304300ff 	andi	v1,v0,0xff
bfc02e88:	8fc20018 	lw	v0,24(s8)
bfc02e8c:	00000000 	nop
bfc02e90:	a0430000 	sb	v1,0(v0)
bfc02e94:	0bf00bae 	j	bfc02eb8 <print_num_buf+0x128>
bfc02e98:	00000000 	nop
/home/fmars/MIPS_OS/print.c:338
		  else *buf='A'+c_l-10;
bfc02e9c:	93c20009 	lbu	v0,9(s8)
bfc02ea0:	00000000 	nop
bfc02ea4:	24420037 	addiu	v0,v0,55
bfc02ea8:	304300ff 	andi	v1,v0,0xff
bfc02eac:	8fc20018 	lw	v0,24(s8)
bfc02eb0:	00000000 	nop
bfc02eb4:	a0430000 	sb	v1,0(v0)
/home/fmars/MIPS_OS/print.c:340
		  
		  buf++;
bfc02eb8:	8fc20018 	lw	v0,24(s8)
bfc02ebc:	00000000 	nop
bfc02ec0:	24420001 	addiu	v0,v0,1
bfc02ec4:	afc20018 	sw	v0,24(s8)
/home/fmars/MIPS_OS/print.c:328
       unsigned char *ch;
       unsigned char c,c_h,c_l;	   

	   ch=(unsigned int *)n;
	   
	   for (i=0; i<4; i++ )
bfc02ec8:	8fc20000 	lw	v0,0(s8)
bfc02ecc:	00000000 	nop
bfc02ed0:	24420001 	addiu	v0,v0,1
bfc02ed4:	afc20000 	sw	v0,0(s8)
bfc02ed8:	8fc20000 	lw	v0,0(s8)
bfc02edc:	00000000 	nop
bfc02ee0:	28420004 	slti	v0,v0,4
bfc02ee4:	1440ffb5 	bnez	v0,bfc02dbc <print_num_buf+0x2c>
bfc02ee8:	00000000 	nop
/home/fmars/MIPS_OS/print.c:343
		  else *buf='A'+c_l-10;
		  
		  buf++;
	   }
		
}
bfc02eec:	03c0e821 	move	sp,s8
bfc02ef0:	8fbe0014 	lw	s8,20(sp)
bfc02ef4:	27bd0018 	addiu	sp,sp,24
bfc02ef8:	03e00008 	jr	ra
bfc02efc:	00000000 	nop

bfc02f00 <PrintNum>:
PrintNum():
/home/fmars/MIPS_OS/print.c:351


int
PrintNum(unsigned char * buf, unsigned long u, int base, int negFlag, 
	 int length, int ladjust, unsigned char padc, int upcase)
{
bfc02f00:	27bdffc8 	addiu	sp,sp,-56
bfc02f04:	afbf0034 	sw	ra,52(sp)
bfc02f08:	afbe0030 	sw	s8,48(sp)
bfc02f0c:	03a0f021 	move	s8,sp
bfc02f10:	afc40038 	sw	a0,56(s8)
bfc02f14:	afc5003c 	sw	a1,60(s8)
bfc02f18:	afc60040 	sw	a2,64(s8)
bfc02f1c:	afc70044 	sw	a3,68(s8)
bfc02f20:	8fc20050 	lw	v0,80(s8)
bfc02f24:	00000000 	nop
bfc02f28:	a3c20028 	sb	v0,40(s8)
/home/fmars/MIPS_OS/print.c:362
     *		    if negtive, insert  "0" padding between "0" and number.
     *  3. if (!ladjust) we reverse the whole string including paddings
     *  4. otherwise we only reverse the actual string representing the num.
     */

    int actualLength =0;
bfc02f2c:	afc00020 	sw	zero,32(s8)
/home/fmars/MIPS_OS/print.c:363
    unsigned char *p = buf;
bfc02f30:	8fc20038 	lw	v0,56(s8)
bfc02f34:	00000000 	nop
bfc02f38:	afc20010 	sw	v0,16(s8)
/home/fmars/MIPS_OS/print.c:385
	u =DIV(u,base);
	
    } while (u != 0);
	*/
	
	print_num_buf(p,&u);
bfc02f3c:	27c2003c 	addiu	v0,s8,60
bfc02f40:	8fc40010 	lw	a0,16(s8)
bfc02f44:	00402821 	move	a1,v0
bfc02f48:	0ff00b64 	jal	bfc02d90 <print_num_buf>
bfc02f4c:	00000000 	nop
/home/fmars/MIPS_OS/print.c:389
	
	

    if (negFlag) {
bfc02f50:	8fc20044 	lw	v0,68(s8)
bfc02f54:	00000000 	nop
bfc02f58:	10400008 	beqz	v0,bfc02f7c <PrintNum+0x7c>
bfc02f5c:	00000000 	nop
/home/fmars/MIPS_OS/print.c:390
	*p++ = '-';
bfc02f60:	8fc20010 	lw	v0,16(s8)
bfc02f64:	2403002d 	li	v1,45
bfc02f68:	a0430000 	sb	v1,0(v0)
bfc02f6c:	8fc20010 	lw	v0,16(s8)
bfc02f70:	00000000 	nop
bfc02f74:	24420001 	addiu	v0,v0,1
bfc02f78:	afc20010 	sw	v0,16(s8)
/home/fmars/MIPS_OS/print.c:394
    }

    /* figure out actual length and adjust the maximum length */
    actualLength = p - buf;
bfc02f7c:	8fc30010 	lw	v1,16(s8)
bfc02f80:	8fc20038 	lw	v0,56(s8)
bfc02f84:	00000000 	nop
bfc02f88:	00621023 	subu	v0,v1,v0
bfc02f8c:	afc20020 	sw	v0,32(s8)
/home/fmars/MIPS_OS/print.c:395
    if (length < actualLength) length = actualLength;
bfc02f90:	8fc30048 	lw	v1,72(s8)
bfc02f94:	8fc20020 	lw	v0,32(s8)
bfc02f98:	00000000 	nop
bfc02f9c:	0062102a 	slt	v0,v1,v0
bfc02fa0:	10400004 	beqz	v0,bfc02fb4 <PrintNum+0xb4>
bfc02fa4:	00000000 	nop
bfc02fa8:	8fc20020 	lw	v0,32(s8)
bfc02fac:	00000000 	nop
bfc02fb0:	afc20048 	sw	v0,72(s8)
/home/fmars/MIPS_OS/print.c:398

    /* add padding */
    if (ladjust) {
bfc02fb4:	8fc2004c 	lw	v0,76(s8)
bfc02fb8:	00000000 	nop
bfc02fbc:	10400003 	beqz	v0,bfc02fcc <PrintNum+0xcc>
bfc02fc0:	00000000 	nop
/home/fmars/MIPS_OS/print.c:399
	padc = ' ';
bfc02fc4:	24020020 	li	v0,32
bfc02fc8:	a3c20028 	sb	v0,40(s8)
/home/fmars/MIPS_OS/print.c:401
    }
    if (negFlag && !ladjust && (padc == '0')) {
bfc02fcc:	8fc20044 	lw	v0,68(s8)
bfc02fd0:	00000000 	nop
bfc02fd4:	1040002c 	beqz	v0,bfc03088 <PrintNum+0x188>
bfc02fd8:	00000000 	nop
bfc02fdc:	8fc2004c 	lw	v0,76(s8)
bfc02fe0:	00000000 	nop
bfc02fe4:	14400028 	bnez	v0,bfc03088 <PrintNum+0x188>
bfc02fe8:	00000000 	nop
bfc02fec:	93c30028 	lbu	v1,40(s8)
bfc02ff0:	24020030 	li	v0,48
bfc02ff4:	14620024 	bne	v1,v0,bfc03088 <PrintNum+0x188>
bfc02ff8:	00000000 	nop
/home/fmars/MIPS_OS/print.c:402
	for (i = actualLength-1; i< length-1; i++) buf[i] = padc;
bfc02ffc:	8fc20020 	lw	v0,32(s8)
bfc03000:	00000000 	nop
bfc03004:	2442ffff 	addiu	v0,v0,-1
bfc03008:	afc20014 	sw	v0,20(s8)
bfc0300c:	0bf00c10 	j	bfc03040 <PrintNum+0x140>
bfc03010:	00000000 	nop
bfc03014:	8fc20014 	lw	v0,20(s8)
bfc03018:	8fc30038 	lw	v1,56(s8)
bfc0301c:	00000000 	nop
bfc03020:	00621021 	addu	v0,v1,v0
bfc03024:	93c30028 	lbu	v1,40(s8)
bfc03028:	00000000 	nop
bfc0302c:	a0430000 	sb	v1,0(v0)
bfc03030:	8fc20014 	lw	v0,20(s8)
bfc03034:	00000000 	nop
bfc03038:	24420001 	addiu	v0,v0,1
bfc0303c:	afc20014 	sw	v0,20(s8)
bfc03040:	8fc20048 	lw	v0,72(s8)
bfc03044:	00000000 	nop
bfc03048:	2443ffff 	addiu	v1,v0,-1
bfc0304c:	8fc20014 	lw	v0,20(s8)
bfc03050:	00000000 	nop
bfc03054:	0043102a 	slt	v0,v0,v1
bfc03058:	1440ffee 	bnez	v0,bfc03014 <PrintNum+0x114>
bfc0305c:	00000000 	nop
/home/fmars/MIPS_OS/print.c:403
	buf[length -1] = '-';
bfc03060:	8fc20048 	lw	v0,72(s8)
bfc03064:	00000000 	nop
bfc03068:	2442ffff 	addiu	v0,v0,-1
bfc0306c:	8fc30038 	lw	v1,56(s8)
bfc03070:	00000000 	nop
bfc03074:	00621021 	addu	v0,v1,v0
bfc03078:	2403002d 	li	v1,45
bfc0307c:	a0430000 	sb	v1,0(v0)
bfc03080:	0bf00c38 	j	bfc030e0 <PrintNum+0x1e0>
bfc03084:	00000000 	nop
/home/fmars/MIPS_OS/print.c:405
    } else {
	for (i = actualLength; i< length; i++) buf[i] = padc;
bfc03088:	8fc20020 	lw	v0,32(s8)
bfc0308c:	00000000 	nop
bfc03090:	afc20014 	sw	v0,20(s8)
bfc03094:	0bf00c32 	j	bfc030c8 <PrintNum+0x1c8>
bfc03098:	00000000 	nop
bfc0309c:	8fc20014 	lw	v0,20(s8)
bfc030a0:	8fc30038 	lw	v1,56(s8)
bfc030a4:	00000000 	nop
bfc030a8:	00621021 	addu	v0,v1,v0
bfc030ac:	93c30028 	lbu	v1,40(s8)
bfc030b0:	00000000 	nop
bfc030b4:	a0430000 	sb	v1,0(v0)
bfc030b8:	8fc20014 	lw	v0,20(s8)
bfc030bc:	00000000 	nop
bfc030c0:	24420001 	addiu	v0,v0,1
bfc030c4:	afc20014 	sw	v0,20(s8)
bfc030c8:	8fc30014 	lw	v1,20(s8)
bfc030cc:	8fc20048 	lw	v0,72(s8)
bfc030d0:	00000000 	nop
bfc030d4:	0062102a 	slt	v0,v1,v0
bfc030d8:	1440fff0 	bnez	v0,bfc0309c <PrintNum+0x19c>
bfc030dc:	00000000 	nop
/home/fmars/MIPS_OS/print.c:411
    }
	    

    /* prepare to reverse the string */
    {
	int begin = 0;
bfc030e0:	afc00018 	sw	zero,24(s8)
/home/fmars/MIPS_OS/print.c:413
	int end;
	if (ladjust) {
bfc030e4:	8fc2004c 	lw	v0,76(s8)
bfc030e8:	00000000 	nop
bfc030ec:	10400007 	beqz	v0,bfc0310c <PrintNum+0x20c>
bfc030f0:	00000000 	nop
/home/fmars/MIPS_OS/print.c:414
	    end = actualLength - 1;
bfc030f4:	8fc20020 	lw	v0,32(s8)
bfc030f8:	00000000 	nop
bfc030fc:	2442ffff 	addiu	v0,v0,-1
bfc03100:	afc2001c 	sw	v0,28(s8)
/home/fmars/MIPS_OS/print.c:419
	} else {
	    end = length -1;
	}

	while (end > begin) {
bfc03104:	0bf00c6a 	j	bfc031a8 <PrintNum+0x2a8>
bfc03108:	00000000 	nop
/home/fmars/MIPS_OS/print.c:416
	int begin = 0;
	int end;
	if (ladjust) {
	    end = actualLength - 1;
	} else {
	    end = length -1;
bfc0310c:	8fc20048 	lw	v0,72(s8)
bfc03110:	00000000 	nop
bfc03114:	2442ffff 	addiu	v0,v0,-1
bfc03118:	afc2001c 	sw	v0,28(s8)
/home/fmars/MIPS_OS/print.c:419
	}

	while (end > begin) {
bfc0311c:	0bf00c6a 	j	bfc031a8 <PrintNum+0x2a8>
bfc03120:	00000000 	nop
/home/fmars/MIPS_OS/print.c:420
	    unsigned char tmp = buf[begin];
bfc03124:	8fc20018 	lw	v0,24(s8)
bfc03128:	8fc30038 	lw	v1,56(s8)
bfc0312c:	00000000 	nop
bfc03130:	00621021 	addu	v0,v1,v0
bfc03134:	90420000 	lbu	v0,0(v0)
bfc03138:	00000000 	nop
bfc0313c:	a3c20024 	sb	v0,36(s8)
/home/fmars/MIPS_OS/print.c:421
	    buf[begin] = buf[end];
bfc03140:	8fc20018 	lw	v0,24(s8)
bfc03144:	8fc30038 	lw	v1,56(s8)
bfc03148:	00000000 	nop
bfc0314c:	00621021 	addu	v0,v1,v0
bfc03150:	8fc3001c 	lw	v1,28(s8)
bfc03154:	8fc40038 	lw	a0,56(s8)
bfc03158:	00000000 	nop
bfc0315c:	00831821 	addu	v1,a0,v1
bfc03160:	90630000 	lbu	v1,0(v1)
bfc03164:	00000000 	nop
bfc03168:	a0430000 	sb	v1,0(v0)
/home/fmars/MIPS_OS/print.c:422
	    buf[end] = tmp;
bfc0316c:	8fc2001c 	lw	v0,28(s8)
bfc03170:	8fc30038 	lw	v1,56(s8)
bfc03174:	00000000 	nop
bfc03178:	00621021 	addu	v0,v1,v0
bfc0317c:	93c30024 	lbu	v1,36(s8)
bfc03180:	00000000 	nop
bfc03184:	a0430000 	sb	v1,0(v0)
/home/fmars/MIPS_OS/print.c:423
	    begin ++;
bfc03188:	8fc20018 	lw	v0,24(s8)
bfc0318c:	00000000 	nop
bfc03190:	24420001 	addiu	v0,v0,1
bfc03194:	afc20018 	sw	v0,24(s8)
/home/fmars/MIPS_OS/print.c:424
	    end --;
bfc03198:	8fc2001c 	lw	v0,28(s8)
bfc0319c:	00000000 	nop
bfc031a0:	2442ffff 	addiu	v0,v0,-1
bfc031a4:	afc2001c 	sw	v0,28(s8)
/home/fmars/MIPS_OS/print.c:419
	    end = actualLength - 1;
	} else {
	    end = length -1;
	}

	while (end > begin) {
bfc031a8:	8fc3001c 	lw	v1,28(s8)
bfc031ac:	8fc20018 	lw	v0,24(s8)
bfc031b0:	00000000 	nop
bfc031b4:	0043102a 	slt	v0,v0,v1
bfc031b8:	1440ffda 	bnez	v0,bfc03124 <PrintNum+0x224>
bfc031bc:	00000000 	nop
/home/fmars/MIPS_OS/print.c:433
    /* adjust the string pointer */
	
	//printf("Enter PrintNum");
	//printf(buf);
	
    return length;
bfc031c0:	8fc20048 	lw	v0,72(s8)
/home/fmars/MIPS_OS/print.c:434
}
bfc031c4:	03c0e821 	move	sp,s8
bfc031c8:	8fbf0034 	lw	ra,52(sp)
bfc031cc:	8fbe0030 	lw	s8,48(sp)
bfc031d0:	27bd0038 	addiu	sp,sp,56
bfc031d4:	03e00008 	jr	ra
bfc031d8:	00000000 	nop
handle_int():
interupt.S:68
bfc031dc:	00000000 	nop

bfc031e0 <sched_yield>:
sched_yield():
/home/fmars/MIPS_OS/sched.c:15
extern void print_num_hex2(unsigned int *n);


void
sched_yield(void)  // 进程调度函数
{
bfc031e0:	27bdffd8 	addiu	sp,sp,-40
bfc031e4:	afbf0024 	sw	ra,36(sp)
bfc031e8:	afbe0020 	sw	s8,32(sp)
bfc031ec:	03a0f021 	move	s8,sp
/home/fmars/MIPS_OS/sched.c:21
	int iTemp,i;
	int id;
	
	//printf("Enter Schedule Env  ");
	
	for(i = 0;i < NENV;i++)		//envs[0] must be runnable
bfc031f0:	afc00010 	sw	zero,16(s8)
bfc031f4:	0bf00cf0 	j	bfc033c0 <sched_yield+0x1e0>
bfc031f8:	00000000 	nop
/home/fmars/MIPS_OS/sched.c:23
	{
		if(envs[Next_EnvNum].env_status == ENV_RUNNABLE)
bfc031fc:	3c029000 	lui	v0,0x9000
bfc03200:	8c423298 	lw	v0,12952(v0)
bfc03204:	3c039000 	lui	v1,0x9000
bfc03208:	24640010 	addiu	a0,v1,16
bfc0320c:	00401821 	move	v1,v0
bfc03210:	000310c0 	sll	v0,v1,0x3
bfc03214:	00401821 	move	v1,v0
bfc03218:	00031080 	sll	v0,v1,0x2
bfc0321c:	00431023 	subu	v0,v0,v1
bfc03220:	000218c0 	sll	v1,v0,0x3
bfc03224:	00621023 	subu	v0,v1,v0
bfc03228:	00821021 	addu	v0,a0,v0
bfc0322c:	8c43009c 	lw	v1,156(v0)
bfc03230:	24020001 	li	v0,1
bfc03234:	1462004a 	bne	v1,v0,bfc03360 <sched_yield+0x180>
bfc03238:	00000000 	nop
/home/fmars/MIPS_OS/sched.c:25
		{
			iTemp = Next_EnvNum;
bfc0323c:	3c029000 	lui	v0,0x9000
bfc03240:	8c423298 	lw	v0,12952(v0)
bfc03244:	00000000 	nop
bfc03248:	afc20014 	sw	v0,20(s8)
/home/fmars/MIPS_OS/sched.c:26
			Next_EnvNum++;
bfc0324c:	3c029000 	lui	v0,0x9000
bfc03250:	8c423298 	lw	v0,12952(v0)
bfc03254:	00000000 	nop
bfc03258:	24430001 	addiu	v1,v0,1
bfc0325c:	3c029000 	lui	v0,0x9000
bfc03260:	ac433298 	sw	v1,12952(v0)
/home/fmars/MIPS_OS/sched.c:27
			Next_EnvNum = Next_EnvNum%NENV;
bfc03264:	3c029000 	lui	v0,0x9000
bfc03268:	8c433298 	lw	v1,12952(v0)
bfc0326c:	3c028000 	lui	v0,0x8000
bfc03270:	3442003f 	ori	v0,v0,0x3f
bfc03274:	00621024 	and	v0,v1,v0
bfc03278:	04410005 	bgez	v0,bfc03290 <sched_yield+0xb0>
bfc0327c:	00000000 	nop
bfc03280:	2442ffff 	addiu	v0,v0,-1
bfc03284:	2403ffc0 	li	v1,-64
bfc03288:	00431025 	or	v0,v0,v1
bfc0328c:	24420001 	addiu	v0,v0,1
bfc03290:	00401821 	move	v1,v0
bfc03294:	3c029000 	lui	v0,0x9000
bfc03298:	ac433298 	sw	v1,12952(v0)
/home/fmars/MIPS_OS/sched.c:28
			if(iTemp!=0)
bfc0329c:	8fc20014 	lw	v0,20(s8)
bfc032a0:	00000000 	nop
bfc032a4:	10400042 	beqz	v0,bfc033b0 <sched_yield+0x1d0>
bfc032a8:	00000000 	nop
/home/fmars/MIPS_OS/sched.c:31
			{
				//printf("Schedule Env ");
				id=ENVX((&envs[iTemp])->env_id);
bfc032ac:	3c049000 	lui	a0,0x9000
bfc032b0:	8fc20014 	lw	v0,20(s8)
bfc032b4:	00000000 	nop
bfc032b8:	00401821 	move	v1,v0
bfc032bc:	000310c0 	sll	v0,v1,0x3
bfc032c0:	00401821 	move	v1,v0
bfc032c4:	00031080 	sll	v0,v1,0x2
bfc032c8:	00431023 	subu	v0,v0,v1
bfc032cc:	000218c0 	sll	v1,v0,0x3
bfc032d0:	00621823 	subu	v1,v1,v0
bfc032d4:	24820010 	addiu	v0,a0,16
bfc032d8:	00621021 	addu	v0,v1,v0
bfc032dc:	8c420098 	lw	v0,152(v0)
bfc032e0:	00000000 	nop
bfc032e4:	3042003f 	andi	v0,v0,0x3f
bfc032e8:	afc20018 	sw	v0,24(s8)
/home/fmars/MIPS_OS/sched.c:34
				//print_num_hex2(&id);
				//printf(" to run...\n");
				printf("fmars sched Env  will run --");
bfc032ec:	3c02bfc0 	lui	v0,0xbfc0
bfc032f0:	24443e30 	addiu	a0,v0,15920
bfc032f4:	0ff0080c 	jal	bfc02030 <printf>
bfc032f8:	00000000 	nop
/home/fmars/MIPS_OS/sched.c:35
				print_num_hex2(&id);
bfc032fc:	27c20018 	addiu	v0,s8,24
bfc03300:	00402021 	move	a0,v0
bfc03304:	0ff00752 	jal	bfc01d48 <print_num_hex2>
bfc03308:	00000000 	nop
/home/fmars/MIPS_OS/sched.c:36
				printf("\n");
bfc0330c:	3c02bfc0 	lui	v0,0xbfc0
bfc03310:	24443e50 	addiu	a0,v0,15952
bfc03314:	0ff0080c 	jal	bfc02030 <printf>
bfc03318:	00000000 	nop
/home/fmars/MIPS_OS/sched.c:37
				env_run(&envs[iTemp]);
bfc0331c:	8fc20014 	lw	v0,20(s8)
bfc03320:	00000000 	nop
bfc03324:	00401821 	move	v1,v0
bfc03328:	000310c0 	sll	v0,v1,0x3
bfc0332c:	00401821 	move	v1,v0
bfc03330:	00031080 	sll	v0,v1,0x2
bfc03334:	00431023 	subu	v0,v0,v1
bfc03338:	000218c0 	sll	v1,v0,0x3
bfc0333c:	00621823 	subu	v1,v1,v0
bfc03340:	3c029000 	lui	v0,0x9000
bfc03344:	24420010 	addiu	v0,v0,16
bfc03348:	00621021 	addu	v0,v1,v0
bfc0334c:	00402021 	move	a0,v0
bfc03350:	0ff003b8 	jal	bfc00ee0 <env_run>
bfc03354:	00000000 	nop
bfc03358:	0bf00cec 	j	bfc033b0 <sched_yield+0x1d0>
bfc0335c:	00000000 	nop
/home/fmars/MIPS_OS/sched.c:42
			}
		}
		else
		{
					Next_EnvNum++;
bfc03360:	3c029000 	lui	v0,0x9000
bfc03364:	8c423298 	lw	v0,12952(v0)
bfc03368:	00000000 	nop
bfc0336c:	24430001 	addiu	v1,v0,1
bfc03370:	3c029000 	lui	v0,0x9000
bfc03374:	ac433298 	sw	v1,12952(v0)
/home/fmars/MIPS_OS/sched.c:43
            		Next_EnvNum = Next_EnvNum%NENV;
bfc03378:	3c029000 	lui	v0,0x9000
bfc0337c:	8c433298 	lw	v1,12952(v0)
bfc03380:	3c028000 	lui	v0,0x8000
bfc03384:	3442003f 	ori	v0,v0,0x3f
bfc03388:	00621024 	and	v0,v1,v0
bfc0338c:	04410005 	bgez	v0,bfc033a4 <sched_yield+0x1c4>
bfc03390:	00000000 	nop
bfc03394:	2442ffff 	addiu	v0,v0,-1
bfc03398:	2403ffc0 	li	v1,-64
bfc0339c:	00431025 	or	v0,v0,v1
bfc033a0:	24420001 	addiu	v0,v0,1
bfc033a4:	00401821 	move	v1,v0
bfc033a8:	3c029000 	lui	v0,0x9000
bfc033ac:	ac433298 	sw	v1,12952(v0)
/home/fmars/MIPS_OS/sched.c:21
	int iTemp,i;
	int id;
	
	//printf("Enter Schedule Env  ");
	
	for(i = 0;i < NENV;i++)		//envs[0] must be runnable
bfc033b0:	8fc20010 	lw	v0,16(s8)
bfc033b4:	00000000 	nop
bfc033b8:	24420001 	addiu	v0,v0,1
bfc033bc:	afc20010 	sw	v0,16(s8)
bfc033c0:	8fc20010 	lw	v0,16(s8)
bfc033c4:	00000000 	nop
bfc033c8:	28420040 	slti	v0,v0,64
bfc033cc:	1440ff8b 	bnez	v0,bfc031fc <sched_yield+0x1c>
bfc033d0:	00000000 	nop
/home/fmars/MIPS_OS/sched.c:47
					Next_EnvNum++;
            		Next_EnvNum = Next_EnvNum%NENV;
		}
	}
	
	printf("Schedule end. There is no process to run...\n");
bfc033d4:	3c02bfc0 	lui	v0,0xbfc0
bfc033d8:	24443e54 	addiu	a0,v0,15956
bfc033dc:	0ff0080c 	jal	bfc02030 <printf>
bfc033e0:	00000000 	nop
/home/fmars/MIPS_OS/sched.c:49

	env_idle_run();
bfc033e4:	0ff00415 	jal	bfc01054 <env_idle_run>
bfc033e8:	00000000 	nop
/home/fmars/MIPS_OS/sched.c:51

}
bfc033ec:	03c0e821 	move	sp,s8
bfc033f0:	8fbf0024 	lw	ra,36(sp)
bfc033f4:	8fbe0020 	lw	s8,32(sp)
bfc033f8:	27bd0028 	addiu	sp,sp,40
bfc033fc:	03e00008 	jr	ra
bfc03400:	00000000 	nop
	...

bfc03410 <handle_sys>:
handle_int():
interupt.S:68
bfc03410:	401a6000 	mfc0	k0,c0_sr
bfc03414:	375a0001 	ori	k0,k0,0x1
bfc03418:	3b5a0001 	xori	k0,k0,0x1
bfc0341c:	409a6000 	mtc0	k0,c0_sr
bfc03420:	03a0d021 	move	k0,sp
bfc03424:	3c1d9080 	lui	sp,0x9080
bfc03428:	03a0d821 	move	k1,sp
bfc0342c:	277dff68 	addiu	sp,k1,-152
bfc03430:	afba0074 	sw	k0,116(sp)
bfc03434:	40026000 	mfc0	v0,c0_sr
bfc03438:	afa20080 	sw	v0,128(sp)
bfc0343c:	40026800 	mfc0	v0,c0_cause
bfc03440:	afa2008c 	sw	v0,140(sp)
bfc03444:	40027000 	mfc0	v0,c0_epc
bfc03448:	afa20090 	sw	v0,144(sp)
bfc0344c:	00001010 	mfhi	v0
bfc03450:	afa20084 	sw	v0,132(sp)
bfc03454:	00001012 	mflo	v0
bfc03458:	afa20088 	sw	v0,136(sp)
bfc0345c:	afa00000 	sw	zero,0(sp)
bfc03460:	afa10004 	sw	at,4(sp)
bfc03464:	afa20008 	sw	v0,8(sp)
bfc03468:	afa3000c 	sw	v1,12(sp)
bfc0346c:	afa40010 	sw	a0,16(sp)
bfc03470:	afa50014 	sw	a1,20(sp)
bfc03474:	afa60018 	sw	a2,24(sp)
bfc03478:	afa7001c 	sw	a3,28(sp)
bfc0347c:	afa80020 	sw	t0,32(sp)
bfc03480:	afa90024 	sw	t1,36(sp)
bfc03484:	afaa0028 	sw	t2,40(sp)
bfc03488:	afab002c 	sw	t3,44(sp)
bfc0348c:	afac0030 	sw	t4,48(sp)
bfc03490:	afad0034 	sw	t5,52(sp)
bfc03494:	afae0038 	sw	t6,56(sp)
bfc03498:	afaf003c 	sw	t7,60(sp)
bfc0349c:	afb00040 	sw	s0,64(sp)
bfc034a0:	afb10044 	sw	s1,68(sp)
bfc034a4:	afb20048 	sw	s2,72(sp)
bfc034a8:	afb3004c 	sw	s3,76(sp)
bfc034ac:	afb40050 	sw	s4,80(sp)
bfc034b0:	afb50054 	sw	s5,84(sp)
bfc034b4:	afb60058 	sw	s6,88(sp)
bfc034b8:	afb7005c 	sw	s7,92(sp)
bfc034bc:	afb80060 	sw	t8,96(sp)
bfc034c0:	afb90064 	sw	t9,100(sp)
bfc034c4:	afba0068 	sw	k0,104(sp)
bfc034c8:	afbb006c 	sw	k1,108(sp)
bfc034cc:	afbc0070 	sw	gp,112(sp)
bfc034d0:	afbe0078 	sw	s8,120(sp)
bfc034d4:	afbf007c 	sw	ra,124(sp)
bfc034d8:	0340e821 	move	sp,k0
bfc034dc:	00000000 	nop
bfc034e0:	8fa90090 	lw	t1,144(sp)
bfc034e4:	24820000 	addiu	v0,a0,0
bfc034e8:	24420000 	addiu	v0,v0,0
bfc034ec:	2c480015 	sltiu	t0,v0,21
bfc034f0:	25290004 	addiu	t1,t1,4
bfc034f4:	afa90090 	sw	t1,144(sp)
bfc034f8:	11000020 	beqz	t0,bfc0357c <illegal_syscall>
bfc034fc:	00000000 	nop
bfc03500:	00024080 	sll	t0,v0,0x2
bfc03504:	3c09bfc0 	lui	t1,0xbfc0
bfc03508:	25293584 	addiu	t1,t1,13700
bfc0350c:	01284821 	addu	t1,t1,t0
bfc03510:	8d2a0000 	lw	t2,0(t1)
bfc03514:	11400019 	beqz	t2,bfc0357c <illegal_syscall>
bfc03518:	00000000 	nop
bfc0351c:	8fa80074 	lw	t0,116(sp)
bfc03520:	8fa90010 	lw	t1,16(sp)
bfc03524:	8fab0014 	lw	t3,20(sp)
bfc03528:	8fac0018 	lw	t4,24(sp)
bfc0352c:	8fad001c 	lw	t5,28(sp)
bfc03530:	8fae0020 	lw	t6,32(sp)
bfc03534:	8faf0024 	lw	t7,36(sp)
bfc03538:	27bdffec 	addiu	sp,sp,-20
bfc0353c:	afa90000 	sw	t1,0(sp)
bfc03540:	afab0004 	sw	t3,4(sp)
bfc03544:	afac0008 	sw	t4,8(sp)
bfc03548:	afad000c 	sw	t5,12(sp)
bfc0354c:	afae0010 	sw	t6,16(sp)
bfc03550:	afaf0014 	sw	t7,20(sp)
bfc03554:	01202021 	move	a0,t1
bfc03558:	01602821 	move	a1,t3
bfc0355c:	01803021 	move	a2,t4
bfc03560:	01a03821 	move	a3,t5
bfc03564:	01400008 	jr	t2
bfc03568:	00000000 	nop
bfc0356c:	27bd0014 	addiu	sp,sp,20
bfc03570:	afa20008 	sw	v0,8(sp)
bfc03574:	0bf00d64 	j	bfc03590 <ret_from_exception>
bfc03578:	00000000 	nop

bfc0357c <illegal_syscall>:
bfc0357c:	0bf00d5f 	j	bfc0357c <illegal_syscall>
bfc03580:	00000000 	nop

bfc03584 <sys_call_table>:
bfc03584:	bfc03680 	0xbfc03680
bfc03588:	bfc03700 	0xbfc03700
bfc0358c:	bfc036c8 	0xbfc036c8

bfc03590 <ret_from_exception>:
bfc03590:	40086000 	mfc0	t0,c0_sr
bfc03594:	35080003 	ori	t0,t0,0x3
bfc03598:	39080003 	xori	t0,t0,0x3
bfc0359c:	40886000 	mtc0	t0,c0_sr
bfc035a0:	8fa20080 	lw	v0,128(sp)
bfc035a4:	3403ff00 	li	v1,0xff00
bfc035a8:	01034024 	and	t0,t0,v1
bfc035ac:	00031827 	nor	v1,zero,v1
bfc035b0:	00431024 	and	v0,v0,v1
bfc035b4:	00481025 	or	v0,v0,t0
bfc035b8:	40826000 	mtc0	v0,c0_sr
bfc035bc:	8fa30088 	lw	v1,136(sp)
bfc035c0:	8fa20084 	lw	v0,132(sp)
bfc035c4:	8fa30090 	lw	v1,144(sp)
bfc035c8:	40837000 	mtc0	v1,c0_epc
bfc035cc:	8fbf007c 	lw	ra,124(sp)
bfc035d0:	8fbe0078 	lw	s8,120(sp)
bfc035d4:	8fbc0070 	lw	gp,112(sp)
bfc035d8:	8fb90064 	lw	t9,100(sp)
bfc035dc:	8fb80060 	lw	t8,96(sp)
bfc035e0:	8fb7005c 	lw	s7,92(sp)
bfc035e4:	8fb60058 	lw	s6,88(sp)
bfc035e8:	8fb50054 	lw	s5,84(sp)
bfc035ec:	8fb40050 	lw	s4,80(sp)
bfc035f0:	8fb3004c 	lw	s3,76(sp)
bfc035f4:	8fb20048 	lw	s2,72(sp)
bfc035f8:	8fb10044 	lw	s1,68(sp)
bfc035fc:	8fb00040 	lw	s0,64(sp)
bfc03600:	8faf003c 	lw	t7,60(sp)
bfc03604:	8fae0038 	lw	t6,56(sp)
bfc03608:	8fad0034 	lw	t5,52(sp)
bfc0360c:	8fac0030 	lw	t4,48(sp)
bfc03610:	8fab002c 	lw	t3,44(sp)
bfc03614:	8faa0028 	lw	t2,40(sp)
bfc03618:	8fa90024 	lw	t1,36(sp)
bfc0361c:	8fa80020 	lw	t0,32(sp)
bfc03620:	8fa7001c 	lw	a3,28(sp)
bfc03624:	8fa60018 	lw	a2,24(sp)
bfc03628:	8fa50014 	lw	a1,20(sp)
bfc0362c:	8fa40010 	lw	a0,16(sp)
bfc03630:	8fa3000c 	lw	v1,12(sp)
bfc03634:	8fa20008 	lw	v0,8(sp)
bfc03638:	8fa10004 	lw	at,4(sp)
bfc0363c:	401a6000 	mfc0	k0,c0_sr
bfc03640:	375a0001 	ori	k0,k0,0x1
bfc03644:	409a6000 	mtc0	k0,c0_sr
bfc03648:	8fba0090 	lw	k0,144(sp)
bfc0364c:	8fbd0074 	lw	sp,116(sp)
bfc03650:	00000000 	nop
bfc03654:	3c1ba000 	lui	k1,0xa000
bfc03658:	3c030000 	lui	v1,0x0
bfc0365c:	34630271 	ori	v1,v1,0x271
bfc03660:	af630204 	sw	v1,516(k1)
bfc03664:	24030001 	li	v1,1
bfc03668:	af630200 	sw	v1,512(k1)
bfc0366c:	42000018 	eret
	...

bfc03680 <sys_putchar>:
sys_putchar():
/home/fmars/MIPS_OS/syscall_all.c:14
#include "include/lib.h"

// 定义系统调用函数

void sys_putchar(char ch)
{
bfc03680:	27bdffe8 	addiu	sp,sp,-24
bfc03684:	afbf0014 	sw	ra,20(sp)
bfc03688:	afbe0010 	sw	s8,16(sp)
bfc0368c:	03a0f021 	move	s8,sp
bfc03690:	00801021 	move	v0,a0
bfc03694:	a3c20018 	sb	v0,24(s8)
/home/fmars/MIPS_OS/syscall_all.c:15
	printf("%c",ch);
bfc03698:	83c20018 	lb	v0,24(s8)
bfc0369c:	3c03bfc0 	lui	v1,0xbfc0
bfc036a0:	24643e90 	addiu	a0,v1,16016
bfc036a4:	00402821 	move	a1,v0
bfc036a8:	0ff0080c 	jal	bfc02030 <printf>
bfc036ac:	00000000 	nop
/home/fmars/MIPS_OS/syscall_all.c:16
}
bfc036b0:	03c0e821 	move	sp,s8
bfc036b4:	8fbf0014 	lw	ra,20(sp)
bfc036b8:	8fbe0010 	lw	s8,16(sp)
bfc036bc:	27bd0018 	addiu	sp,sp,24
bfc036c0:	03e00008 	jr	ra
bfc036c4:	00000000 	nop

bfc036c8 <sys_exit>:
sys_exit():
/home/fmars/MIPS_OS/syscall_all.c:19

void sys_exit()
{
bfc036c8:	27bdffe8 	addiu	sp,sp,-24
bfc036cc:	afbf0014 	sw	ra,20(sp)
bfc036d0:	afbe0010 	sw	s8,16(sp)
bfc036d4:	03a0f021 	move	s8,sp
/home/fmars/MIPS_OS/syscall_all.c:20
	printf("exit\n");
bfc036d8:	3c02bfc0 	lui	v0,0xbfc0
bfc036dc:	24443e94 	addiu	a0,v0,16020
bfc036e0:	0ff0080c 	jal	bfc02030 <printf>
bfc036e4:	00000000 	nop
/home/fmars/MIPS_OS/syscall_all.c:21
}
bfc036e8:	03c0e821 	move	sp,s8
bfc036ec:	8fbf0014 	lw	ra,20(sp)
bfc036f0:	8fbe0010 	lw	s8,16(sp)
bfc036f4:	27bd0018 	addiu	sp,sp,24
bfc036f8:	03e00008 	jr	ra
bfc036fc:	00000000 	nop

bfc03700 <sys_printf>:
sys_printf():
/home/fmars/MIPS_OS/syscall_all.c:24

void sys_printf()
{
bfc03700:	27bdffe8 	addiu	sp,sp,-24
bfc03704:	afbf0014 	sw	ra,20(sp)
bfc03708:	afbe0010 	sw	s8,16(sp)
bfc0370c:	03a0f021 	move	s8,sp
/home/fmars/MIPS_OS/syscall_all.c:25
	printf("printf\n");
bfc03710:	3c02bfc0 	lui	v0,0xbfc0
bfc03714:	24443e9c 	addiu	a0,v0,16028
bfc03718:	0ff0080c 	jal	bfc02030 <printf>
bfc0371c:	00000000 	nop
/home/fmars/MIPS_OS/syscall_all.c:26
}
bfc03720:	03c0e821 	move	sp,s8
bfc03724:	8fbf0014 	lw	ra,20(sp)
bfc03728:	8fbe0010 	lw	s8,16(sp)
bfc0372c:	27bd0018 	addiu	sp,sp,24
bfc03730:	03e00008 	jr	ra
bfc03734:	00000000 	nop
	...

bfc03740 <msyscall>:
handle_int():
interupt.S:68
bfc03740:	00801021 	move	v0,a0
bfc03744:	27bdffe0 	addiu	sp,sp,-32
bfc03748:	afbf001c 	sw	ra,28(sp)
bfc0374c:	afa40000 	sw	a0,0(sp)
bfc03750:	afa50004 	sw	a1,4(sp)
bfc03754:	afa60008 	sw	a2,8(sp)
bfc03758:	afa7000c 	sw	a3,12(sp)
bfc0375c:	0000000c 	syscall
bfc03760:	8fbf001c 	lw	ra,28(sp)
bfc03764:	00000000 	nop
bfc03768:	27bd0020 	addiu	sp,sp,32
bfc0376c:	03e00008 	jr	ra
bfc03770:	00000000 	nop
	...

bfc03780 <syscall_putchar>:
syscall_putchar():
/home/fmars/MIPS_OS/syscall_lib.c:14
#include "include/lib.h"

// 露篓氓碌鲁碌梅潞炉媒

void syscall_putchar(char ch)
{
bfc03780:	27bdffe0 	addiu	sp,sp,-32
bfc03784:	afbf001c 	sw	ra,28(sp)
bfc03788:	afbe0018 	sw	s8,24(sp)
bfc0378c:	03a0f021 	move	s8,sp
bfc03790:	00801021 	move	v0,a0
bfc03794:	a3c20020 	sb	v0,32(s8)
/home/fmars/MIPS_OS/syscall_lib.c:15
	msyscall(SYS_putchar,(int)ch,0,0,0,0);
bfc03798:	83c20020 	lb	v0,32(s8)
bfc0379c:	afa00010 	sw	zero,16(sp)
bfc037a0:	afa00014 	sw	zero,20(sp)
bfc037a4:	00002021 	move	a0,zero
bfc037a8:	00402821 	move	a1,v0
bfc037ac:	00003021 	move	a2,zero
bfc037b0:	00003821 	move	a3,zero
bfc037b4:	0ff00dd0 	jal	bfc03740 <msyscall>
bfc037b8:	00000000 	nop
/home/fmars/MIPS_OS/syscall_lib.c:16
}
bfc037bc:	03c0e821 	move	sp,s8
bfc037c0:	8fbf001c 	lw	ra,28(sp)
bfc037c4:	8fbe0018 	lw	s8,24(sp)
bfc037c8:	27bd0020 	addiu	sp,sp,32
bfc037cc:	03e00008 	jr	ra
bfc037d0:	00000000 	nop

bfc037d4 <syscall_printf>:
syscall_printf():
/home/fmars/MIPS_OS/syscall_lib.c:19

void syscall_printf(char *fmt)
{
bfc037d4:	27bdffe0 	addiu	sp,sp,-32
bfc037d8:	afbf001c 	sw	ra,28(sp)
bfc037dc:	afbe0018 	sw	s8,24(sp)
bfc037e0:	03a0f021 	move	s8,sp
bfc037e4:	afc40020 	sw	a0,32(s8)
/home/fmars/MIPS_OS/syscall_lib.c:20
	msyscall(SYS_printf,fmt,0,0,0,0);
bfc037e8:	afa00010 	sw	zero,16(sp)
bfc037ec:	afa00014 	sw	zero,20(sp)
bfc037f0:	24040001 	li	a0,1
bfc037f4:	8fc50020 	lw	a1,32(s8)
bfc037f8:	00003021 	move	a2,zero
bfc037fc:	00003821 	move	a3,zero
bfc03800:	0ff00dd0 	jal	bfc03740 <msyscall>
bfc03804:	00000000 	nop
/home/fmars/MIPS_OS/syscall_lib.c:21
}
bfc03808:	03c0e821 	move	sp,s8
bfc0380c:	8fbf001c 	lw	ra,28(sp)
bfc03810:	8fbe0018 	lw	s8,24(sp)
bfc03814:	27bd0020 	addiu	sp,sp,32
bfc03818:	03e00008 	jr	ra
bfc0381c:	00000000 	nop

bfc03820 <syscall_exit>:
syscall_exit():
/home/fmars/MIPS_OS/syscall_lib.c:24

void syscall_exit()
{
bfc03820:	27bdffe0 	addiu	sp,sp,-32
bfc03824:	afbf001c 	sw	ra,28(sp)
bfc03828:	afbe0018 	sw	s8,24(sp)
bfc0382c:	03a0f021 	move	s8,sp
/home/fmars/MIPS_OS/syscall_lib.c:25
	msyscall(SYS_exit,0,0,0,0,0);
bfc03830:	afa00010 	sw	zero,16(sp)
bfc03834:	afa00014 	sw	zero,20(sp)
bfc03838:	24040002 	li	a0,2
bfc0383c:	00002821 	move	a1,zero
bfc03840:	00003021 	move	a2,zero
bfc03844:	00003821 	move	a3,zero
bfc03848:	0ff00dd0 	jal	bfc03740 <msyscall>
bfc0384c:	00000000 	nop
/home/fmars/MIPS_OS/syscall_lib.c:26
}
bfc03850:	03c0e821 	move	sp,s8
bfc03854:	8fbf001c 	lw	ra,28(sp)
bfc03858:	8fbe0018 	lw	s8,24(sp)
bfc0385c:	27bd0020 	addiu	sp,sp,32
bfc03860:	03e00008 	jr	ra
bfc03864:	00000000 	nop
	...

bfc03870 <trap_init>:
trap_init():
/home/fmars/MIPS_OS/traps.c:12

extern void handle_sys();

unsigned long exception_handlers[32];

void trap_init(){  // 注册中断、异常处理函数
bfc03870:	27bdffe0 	addiu	sp,sp,-32
bfc03874:	afbf001c 	sw	ra,28(sp)
bfc03878:	afbe0018 	sw	s8,24(sp)
bfc0387c:	03a0f021 	move	s8,sp
/home/fmars/MIPS_OS/traps.c:15
	int i;

	for(i=0;i<32;i++)
bfc03880:	afc00010 	sw	zero,16(s8)
bfc03884:	0bf00e2c 	j	bfc038b0 <trap_init+0x40>
bfc03888:	00000000 	nop
/home/fmars/MIPS_OS/traps.c:16
	    set_except_vector(i, handle_reserved);
bfc0388c:	8fc40010 	lw	a0,16(s8)
bfc03890:	3c02bfc0 	lui	v0,0xbfc0
bfc03894:	24451720 	addiu	a1,v0,5920
bfc03898:	0ff00e41 	jal	bfc03904 <set_except_vector>
bfc0389c:	00000000 	nop
/home/fmars/MIPS_OS/traps.c:15
unsigned long exception_handlers[32];

void trap_init(){  // 注册中断、异常处理函数
	int i;

	for(i=0;i<32;i++)
bfc038a0:	8fc20010 	lw	v0,16(s8)
bfc038a4:	00000000 	nop
bfc038a8:	24420001 	addiu	v0,v0,1
bfc038ac:	afc20010 	sw	v0,16(s8)
bfc038b0:	8fc20010 	lw	v0,16(s8)
bfc038b4:	00000000 	nop
bfc038b8:	28420020 	slti	v0,v0,32
bfc038bc:	1440fff3 	bnez	v0,bfc0388c <trap_init+0x1c>
bfc038c0:	00000000 	nop
/home/fmars/MIPS_OS/traps.c:19
	    set_except_vector(i, handle_reserved);

	/* Here only register two exception */
	set_except_vector(0, handle_int); // ExcCode=0 interruption Exception
bfc038c4:	00002021 	move	a0,zero
bfc038c8:	3c02bfc0 	lui	v0,0xbfc0
bfc038cc:	24453990 	addiu	a1,v0,14736
bfc038d0:	0ff00e41 	jal	bfc03904 <set_except_vector>
bfc038d4:	00000000 	nop
/home/fmars/MIPS_OS/traps.c:20
	set_except_vector(8, handle_sys); // ExcCode=8 syscall      Exception
bfc038d8:	24040008 	li	a0,8
bfc038dc:	3c02bfc0 	lui	v0,0xbfc0
bfc038e0:	24453410 	addiu	a1,v0,13328
bfc038e4:	0ff00e41 	jal	bfc03904 <set_except_vector>
bfc038e8:	00000000 	nop
/home/fmars/MIPS_OS/traps.c:21
}
bfc038ec:	03c0e821 	move	sp,s8
bfc038f0:	8fbf001c 	lw	ra,28(sp)
bfc038f4:	8fbe0018 	lw	s8,24(sp)
bfc038f8:	27bd0020 	addiu	sp,sp,32
bfc038fc:	03e00008 	jr	ra
bfc03900:	00000000 	nop

bfc03904 <set_except_vector>:
set_except_vector():
/home/fmars/MIPS_OS/traps.c:23

void *set_except_vector(int n, void * addr){
bfc03904:	27bdfff0 	addiu	sp,sp,-16
bfc03908:	afbe000c 	sw	s8,12(sp)
bfc0390c:	03a0f021 	move	s8,sp
bfc03910:	afc40010 	sw	a0,16(s8)
bfc03914:	afc50014 	sw	a1,20(s8)
/home/fmars/MIPS_OS/traps.c:24
	unsigned long handler=(unsigned long)addr;
bfc03918:	8fc20014 	lw	v0,20(s8)
bfc0391c:	00000000 	nop
bfc03920:	afc20000 	sw	v0,0(s8)
/home/fmars/MIPS_OS/traps.c:25
	unsigned long old_handler=exception_handlers[n];
bfc03924:	3c029000 	lui	v0,0x9000
bfc03928:	8fc30010 	lw	v1,16(s8)
bfc0392c:	00000000 	nop
bfc03930:	00031880 	sll	v1,v1,0x2
bfc03934:	24423210 	addiu	v0,v0,12816
bfc03938:	00621021 	addu	v0,v1,v0
bfc0393c:	8c420000 	lw	v0,0(v0)
bfc03940:	00000000 	nop
bfc03944:	afc20004 	sw	v0,4(s8)
/home/fmars/MIPS_OS/traps.c:27

	exception_handlers[n]=handler;
bfc03948:	3c029000 	lui	v0,0x9000
bfc0394c:	8fc30010 	lw	v1,16(s8)
bfc03950:	00000000 	nop
bfc03954:	00031880 	sll	v1,v1,0x2
bfc03958:	24423210 	addiu	v0,v0,12816
bfc0395c:	00621021 	addu	v0,v1,v0
bfc03960:	8fc30000 	lw	v1,0(s8)
bfc03964:	00000000 	nop
bfc03968:	ac430000 	sw	v1,0(v0)
/home/fmars/MIPS_OS/traps.c:28
	return (void *)old_handler;
bfc0396c:	8fc20004 	lw	v0,4(s8)
/home/fmars/MIPS_OS/traps.c:29
}
bfc03970:	03c0e821 	move	sp,s8
bfc03974:	8fbe000c 	lw	s8,12(sp)
bfc03978:	27bd0010 	addiu	sp,sp,16
bfc0397c:	03e00008 	jr	ra
bfc03980:	00000000 	nop
	...

bfc03990 <handle_int>:
handle_int():
interupt.S:68
bfc03990:	00000000 	nop
bfc03994:	03a0d021 	move	k0,sp
bfc03998:	3c1d9080 	lui	sp,0x9080
bfc0399c:	03a0d821 	move	k1,sp
bfc039a0:	277dff68 	addiu	sp,k1,-152
bfc039a4:	afba0074 	sw	k0,116(sp)
bfc039a8:	40026000 	mfc0	v0,c0_sr
bfc039ac:	afa20080 	sw	v0,128(sp)
bfc039b0:	40026800 	mfc0	v0,c0_cause
bfc039b4:	afa2008c 	sw	v0,140(sp)
bfc039b8:	40027000 	mfc0	v0,c0_epc
bfc039bc:	afa20090 	sw	v0,144(sp)
bfc039c0:	00001010 	mfhi	v0
bfc039c4:	afa20084 	sw	v0,132(sp)
bfc039c8:	00001012 	mflo	v0
bfc039cc:	afa20088 	sw	v0,136(sp)
bfc039d0:	afa00000 	sw	zero,0(sp)
bfc039d4:	afa10004 	sw	at,4(sp)
bfc039d8:	afa20008 	sw	v0,8(sp)
bfc039dc:	afa3000c 	sw	v1,12(sp)
bfc039e0:	afa40010 	sw	a0,16(sp)
bfc039e4:	afa50014 	sw	a1,20(sp)
bfc039e8:	afa60018 	sw	a2,24(sp)
bfc039ec:	afa7001c 	sw	a3,28(sp)
bfc039f0:	afa80020 	sw	t0,32(sp)
bfc039f4:	afa90024 	sw	t1,36(sp)
bfc039f8:	afaa0028 	sw	t2,40(sp)
bfc039fc:	afab002c 	sw	t3,44(sp)
bfc03a00:	afac0030 	sw	t4,48(sp)
bfc03a04:	afad0034 	sw	t5,52(sp)
bfc03a08:	afae0038 	sw	t6,56(sp)
bfc03a0c:	afaf003c 	sw	t7,60(sp)
bfc03a10:	afb00040 	sw	s0,64(sp)
bfc03a14:	afb10044 	sw	s1,68(sp)
bfc03a18:	afb20048 	sw	s2,72(sp)
bfc03a1c:	afb3004c 	sw	s3,76(sp)
bfc03a20:	afb40050 	sw	s4,80(sp)
bfc03a24:	afb50054 	sw	s5,84(sp)
bfc03a28:	afb60058 	sw	s6,88(sp)
bfc03a2c:	afb7005c 	sw	s7,92(sp)
bfc03a30:	afb80060 	sw	t8,96(sp)
bfc03a34:	afb90064 	sw	t9,100(sp)
bfc03a38:	afba0068 	sw	k0,104(sp)
bfc03a3c:	afbb006c 	sw	k1,108(sp)
bfc03a40:	afbc0070 	sw	gp,112(sp)
bfc03a44:	afbe0078 	sw	s8,120(sp)
bfc03a48:	afbf007c 	sw	ra,124(sp)
bfc03a4c:	0340e821 	move	sp,k0
bfc03a50:	0ff006e4 	jal	bfc01b90 <signal_int>
bfc03a54:	0bf00e97 	j	bfc03a5c <timer_irq>
bfc03a58:	00000000 	nop

bfc03a5c <timer_irq>:
bfc03a5c:	0bf00c78 	j	bfc031e0 <sched_yield>
bfc03a60:	00000000 	nop
	...

Disassembly of section .rodata:

bfc03a70 <theFatalMsg-0x1b8>:
bfc03a70:	2e766e65 	sltiu	s6,s3,28261
bfc03a74:	20093a63 	addi	t1,zero,14947
bfc03a78:	5f766e65 	0x5f766e65
bfc03a7c:	74696e69 	jalx	b1a5b9a4 <SCHED_N+0x21a58708>
bfc03a80:	73202928 	0x73202928
bfc03a84:	65636375 	0x65636375
bfc03a88:	75667373 	jalx	b599cdcc <SCHED_N+0x25999b30>
bfc03a8c:	000a216c 	0xa216c
bfc03a90:	61657243 	0x61657243
bfc03a94:	45206574 	0x45206574
bfc03a98:	5320766e 	0x5320766e
bfc03a9c:	65636375 	0x65636375
bfc03aa0:	75667373 	jalx	b599cdcc <SCHED_N+0x25999b30>
bfc03aa4:	2e2e2e6c 	sltiu	t6,s1,11884
bfc03aa8:	0000000a 	0xa
bfc03aac:	20766e45 	addi	s6,v1,28229
bfc03ab0:	643d6469 	0x643d6469
bfc03ab4:	2049203a 	addi	t1,v0,8250
bfc03ab8:	6b206d61 	0x6b206d61
bfc03abc:	656c6c69 	0x656c6c69
bfc03ac0:	2e2e2064 	sltiu	t6,s1,8292
bfc03ac4:	000a202e 	0xa202e
bfc03ac8:	0000000a 	0xa
bfc03acc:	656c6469 	0x656c6469
bfc03ad0:	002e2e2e 	0x2e2e2e
bfc03ad4:	656c6449 	0x656c6449
bfc03ad8:	63706520 	0x63706520
bfc03adc:	0078303d 	0x78303d
bfc03ae0:	656c6449 	0x656c6449
bfc03ae4:	6f725020 	0x6f725020
bfc03ae8:	73736563 	0x73736563
bfc03aec:	77203020 	jalx	bc80c080 <SCHED_N+0x2c808de4>
bfc03af0:	206c6c69 	addi	t4,v1,27753
bfc03af4:	6e6e7572 	0x6e6e7572
bfc03af8:	2e676e69 	sltiu	a3,s3,28265
bfc03afc:	2e2e2e2e 	sltiu	t6,s1,11822
bfc03b00:	00000a2e 	0xa2e
	...
bfc03b10:	6c6c6548 	0x6c6c6548
bfc03b14:	6f572c6f 	0x6f572c6f
bfc03b18:	21646c72 	addi	a0,t3,27762
bfc03b1c:	65685420 	0x65685420
bfc03b20:	73795320 	0x73795320
bfc03b24:	206d6574 	addi	t5,v1,25972
bfc03b28:	73207369 	0x73207369
bfc03b2c:	74726174 	jalx	b1c985d0 <SCHED_N+0x21c95334>
bfc03b30:	2e676e69 	sltiu	a3,s3,28265
bfc03b34:	00002e2e 	0x2e2e
bfc03b38:	6c6c6548 	0x6c6c6548
bfc03b3c:	6f572c6f 	0x6f572c6f
bfc03b40:	21646c72 	addi	a0,t3,27762
bfc03b44:	65685420 	0x65685420
bfc03b48:	73795320 	0x73795320
bfc03b4c:	206d6574 	addi	t5,v1,25972
bfc03b50:	73207369 	0x73207369
bfc03b54:	74726174 	jalx	b1c985d0 <SCHED_N+0x21c95334>
bfc03b58:	2e676e69 	sltiu	a3,s3,28265
bfc03b5c:	000a2e2e 	0xa2e2e
bfc03b60:	69676542 	0x69676542
bfc03b64:	6f74206e 	0x6f74206e
bfc03b68:	65726320 	0x65726320
bfc03b6c:	20657461 	addi	a1,v1,29793
bfc03b70:	636f7270 	0x636f7270
bfc03b74:	2e737365 	sltiu	s3,s3,29541
bfc03b78:	000a2e2e 	0xa2e2e
bfc03b7c:	20646e45 	addi	a0,v1,28229
bfc03b80:	63206f74 	0x63206f74
bfc03b84:	74616572 	jalx	b18595c8 <SCHED_N+0x2185632c>
bfc03b88:	72702065 	0x72702065
bfc03b8c:	7365636f 	0x7365636f
bfc03b90:	2e2e2e73 	sltiu	t6,s1,11891
bfc03b94:	0000000a 	0xa
bfc03b98:	69676542 	0x69676542
bfc03b9c:	6f74206e 	0x6f74206e
bfc03ba0:	61747320 	0x61747320
bfc03ba4:	74207472 	jalx	b081d1c8 <SCHED_N+0x20819f2c>
bfc03ba8:	72656d69 	0x72656d69
bfc03bac:	0a2e2e2e 	j	b8b8b8b8 <SCHED_N+0x28b8861c>
bfc03bb0:	00000000 	nop
bfc03bb4:	20646e45 	addi	a0,v1,28229
bfc03bb8:	73206f74 	0x73206f74
bfc03bbc:	74726174 	jalx	b1c985d0 <SCHED_N+0x21c95334>
bfc03bc0:	6d697420 	0x6d697420
bfc03bc4:	2e2e7265 	sltiu	t6,s1,29285
bfc03bc8:	00000a2e 	0xa2e
bfc03bcc:	74696e69 	jalx	b1a5b9a4 <SCHED_N+0x21a58708>
bfc03bd0:	0000632e 	0x632e
bfc03bd4:	5e5e5e5e 	0x5e5e5e5e
bfc03bd8:	5e5e5e5e 	0x5e5e5e5e
bfc03bdc:	205e5e5e 	addi	s8,v0,24158
bfc03be0:	73696854 	0x73696854
bfc03be4:	20736920 	addi	s3,v1,26912
bfc03be8:	20656874 	addi	a1,v1,26740
bfc03bec:	6576656e 	0x6576656e
bfc03bf0:	65722072 	0x65722072
bfc03bf4:	65686361 	0x65686361
bfc03bf8:	6e652064 	0x6e652064
bfc03bfc:	5e5e2064 	0x5e5e2064
bfc03c00:	5e5e5e5e 	0x5e5e5e5e
bfc03c04:	5e5e5e5e 	0x5e5e5e5e
bfc03c08:	5e5e5e5e 	0x5e5e5e5e
bfc03c0c:	0000000a 	0xa
bfc03c10:	696e6170 	0x696e6170
bfc03c14:	74612063 	jalx	b184818c <SCHED_N+0x21844ef0>
bfc03c18:	3a732520 	xori	s3,s3,0x2520
bfc03c1c:	203a6425 	addi	k0,at,25637
bfc03c20:	00000000 	nop
bfc03c24:	0000000a 	0xa

bfc03c28 <theFatalMsg>:
bfc03c28:	61746166 	0x61746166
bfc03c2c:	7265206c 	0x7265206c
bfc03c30:	20726f72 	addi	s2,v1,28530
bfc03c34:	6c206e69 	0x6c206e69
bfc03c38:	72505f70 	0x72505f70
bfc03c3c:	21746e69 	addi	s4,t3,28265
	...
bfc03c48:	bfc0297c 	0xbfc0297c
bfc03c4c:	bfc02994 	0xbfc02994
bfc03c50:	bfc02994 	0xbfc02994
bfc03c54:	bfc02994 	0xbfc02994
bfc03c58:	bfc02994 	0xbfc02994
bfc03c5c:	bfc02994 	0xbfc02994
bfc03c60:	bfc02994 	0xbfc02994
bfc03c64:	bfc02994 	0xbfc02994
bfc03c68:	bfc02994 	0xbfc02994
bfc03c6c:	bfc02994 	0xbfc02994
bfc03c70:	bfc02994 	0xbfc02994
bfc03c74:	bfc02994 	0xbfc02994
bfc03c78:	bfc02994 	0xbfc02994
bfc03c7c:	bfc02994 	0xbfc02994
bfc03c80:	bfc02994 	0xbfc02994
bfc03c84:	bfc02994 	0xbfc02994
bfc03c88:	bfc02994 	0xbfc02994
bfc03c8c:	bfc02994 	0xbfc02994
bfc03c90:	bfc02994 	0xbfc02994
bfc03c94:	bfc02994 	0xbfc02994
bfc03c98:	bfc02994 	0xbfc02994
bfc03c9c:	bfc02994 	0xbfc02994
bfc03ca0:	bfc02994 	0xbfc02994
bfc03ca4:	bfc02994 	0xbfc02994
bfc03ca8:	bfc02994 	0xbfc02994
bfc03cac:	bfc02994 	0xbfc02994
bfc03cb0:	bfc02994 	0xbfc02994
bfc03cb4:	bfc02994 	0xbfc02994
bfc03cb8:	bfc02994 	0xbfc02994
bfc03cbc:	bfc02994 	0xbfc02994
bfc03cc0:	bfc02994 	0xbfc02994
bfc03cc4:	bfc02994 	0xbfc02994
bfc03cc8:	bfc02994 	0xbfc02994
bfc03ccc:	bfc02994 	0xbfc02994
bfc03cd0:	bfc02994 	0xbfc02994
bfc03cd4:	bfc02994 	0xbfc02994
bfc03cd8:	bfc02994 	0xbfc02994
bfc03cdc:	bfc02994 	0xbfc02994
bfc03ce0:	bfc02994 	0xbfc02994
bfc03ce4:	bfc02994 	0xbfc02994
bfc03ce8:	bfc02994 	0xbfc02994
bfc03cec:	bfc02994 	0xbfc02994
bfc03cf0:	bfc02994 	0xbfc02994
bfc03cf4:	bfc02994 	0xbfc02994
bfc03cf8:	bfc02994 	0xbfc02994
bfc03cfc:	bfc02994 	0xbfc02994
bfc03d00:	bfc02994 	0xbfc02994
bfc03d04:	bfc02994 	0xbfc02994
bfc03d08:	bfc02994 	0xbfc02994
bfc03d0c:	bfc02994 	0xbfc02994
bfc03d10:	bfc02994 	0xbfc02994
bfc03d14:	bfc02994 	0xbfc02994
bfc03d18:	bfc02994 	0xbfc02994
bfc03d1c:	bfc02994 	0xbfc02994
bfc03d20:	bfc02994 	0xbfc02994
bfc03d24:	bfc02994 	0xbfc02994
bfc03d28:	bfc02994 	0xbfc02994
bfc03d2c:	bfc02994 	0xbfc02994
bfc03d30:	bfc02994 	0xbfc02994
bfc03d34:	bfc02994 	0xbfc02994
bfc03d38:	bfc02994 	0xbfc02994
bfc03d3c:	bfc02994 	0xbfc02994
bfc03d40:	bfc02994 	0xbfc02994
bfc03d44:	bfc02994 	0xbfc02994
bfc03d48:	bfc02994 	0xbfc02994
bfc03d4c:	bfc02994 	0xbfc02994
bfc03d50:	bfc02994 	0xbfc02994
bfc03d54:	bfc02994 	0xbfc02994
bfc03d58:	bfc024fc 	0xbfc024fc
bfc03d5c:	bfc02994 	0xbfc02994
bfc03d60:	bfc02994 	0xbfc02994
bfc03d64:	bfc02994 	0xbfc02994
bfc03d68:	bfc02994 	0xbfc02994
bfc03d6c:	bfc02994 	0xbfc02994
bfc03d70:	bfc02994 	0xbfc02994
bfc03d74:	bfc02994 	0xbfc02994
bfc03d78:	bfc02994 	0xbfc02994
bfc03d7c:	bfc02994 	0xbfc02994
bfc03d80:	bfc02994 	0xbfc02994
bfc03d84:	bfc025dc 	0xbfc025dc
bfc03d88:	bfc02994 	0xbfc02994
bfc03d8c:	bfc02994 	0xbfc02994
bfc03d90:	bfc02994 	0xbfc02994
bfc03d94:	bfc02994 	0xbfc02994
bfc03d98:	bfc02994 	0xbfc02994
bfc03d9c:	bfc02694 	0xbfc02694
bfc03da0:	bfc02994 	0xbfc02994
bfc03da4:	bfc02994 	0xbfc02994
bfc03da8:	bfc02804 	0xbfc02804
bfc03dac:	bfc02994 	0xbfc02994
bfc03db0:	bfc02994 	0xbfc02994
bfc03db4:	bfc02994 	0xbfc02994
bfc03db8:	bfc02994 	0xbfc02994
bfc03dbc:	bfc02994 	0xbfc02994
bfc03dc0:	bfc02994 	0xbfc02994
bfc03dc4:	bfc02994 	0xbfc02994
bfc03dc8:	bfc02994 	0xbfc02994
bfc03dcc:	bfc02994 	0xbfc02994
bfc03dd0:	bfc02444 	0xbfc02444
bfc03dd4:	bfc028c0 	0xbfc028c0
bfc03dd8:	bfc024fc 	0xbfc024fc
bfc03ddc:	bfc02994 	0xbfc02994
bfc03de0:	bfc02994 	0xbfc02994
bfc03de4:	bfc02994 	0xbfc02994
bfc03de8:	bfc02994 	0xbfc02994
bfc03dec:	bfc02994 	0xbfc02994
bfc03df0:	bfc02994 	0xbfc02994
bfc03df4:	bfc02994 	0xbfc02994
bfc03df8:	bfc02994 	0xbfc02994
bfc03dfc:	bfc02994 	0xbfc02994
bfc03e00:	bfc02994 	0xbfc02994
bfc03e04:	bfc025dc 	0xbfc025dc
bfc03e08:	bfc02994 	0xbfc02994
bfc03e0c:	bfc02994 	0xbfc02994
bfc03e10:	bfc02994 	0xbfc02994
bfc03e14:	bfc02920 	0xbfc02920
bfc03e18:	bfc02994 	0xbfc02994
bfc03e1c:	bfc02694 	0xbfc02694
bfc03e20:	bfc02994 	0xbfc02994
bfc03e24:	bfc02994 	0xbfc02994
bfc03e28:	bfc0274c 	0xbfc0274c
bfc03e2c:	00000000 	nop
bfc03e30:	72616d66 	0x72616d66
bfc03e34:	63732073 	0x63732073
bfc03e38:	20646568 	addi	a0,v1,25960
bfc03e3c:	20766e45 	addi	s6,v1,28229
bfc03e40:	6c697720 	0x6c697720
bfc03e44:	7572206c 	jalx	b5c881b0 <SCHED_N+0x25c84f14>
bfc03e48:	2d2d206e 	sltiu	t5,t1,8302
bfc03e4c:	00000000 	nop
bfc03e50:	0000000a 	0xa
bfc03e54:	65686353 	0x65686353
bfc03e58:	656c7564 	0x656c7564
bfc03e5c:	646e6520 	0x646e6520
bfc03e60:	6854202e 	0x6854202e
bfc03e64:	20657265 	addi	a1,v1,29285
bfc03e68:	6e207369 	0x6e207369
bfc03e6c:	7270206f 	0x7270206f
bfc03e70:	7365636f 	0x7365636f
bfc03e74:	6f742073 	0x6f742073
bfc03e78:	6e757220 	0x6e757220
bfc03e7c:	0a2e2e2e 	j	b8b8b8b8 <SCHED_N+0x28b8861c>
bfc03e80:	00000000 	nop
	...
bfc03e90:	00006325 	0x6325
bfc03e94:	74697865 	jalx	b1a5e194 <SCHED_N+0x21a5aef8>
bfc03e98:	0000000a 	0xa
bfc03e9c:	6e697270 	0x6e697270
bfc03ea0:	000a6674 	0xa6674
	...

Disassembly of section .reginfo:

bfc03eb0 <.reginfo>:
bfc03eb0:	e000001c 	swc0	$0,28(zero)
	...

Disassembly of section .data:

bfc03ed0 <KERNEL_SP>:
	...

bfc03ee0 <binary_user_A_start>:
bfc03ee0:	464c457f 	c1	0x4c457f
bfc03ee4:	00010101 	0x10101
	...
bfc03ef0:	00080002 	srl	zero,t0,0x0
bfc03ef4:	00000001 	0x1
bfc03ef8:	80100000 	lb	s0,0(zero)
bfc03efc:	00000034 	0x34
bfc03f00:	00010ad4 	0x10ad4
bfc03f04:	00001001 	0x1001
bfc03f08:	00200034 	0x200034
bfc03f0c:	00280002 	0x280002
bfc03f10:	00100013 	0x100013
bfc03f14:	70000000 	0x70000000
bfc03f18:	00010280 	sll	zero,at,0xa
bfc03f1c:	80100280 	lb	s0,640(zero)
bfc03f20:	80100280 	lb	s0,640(zero)
bfc03f24:	00000018 	mult	zero,zero
bfc03f28:	00000018 	mult	zero,zero
bfc03f2c:	00000004 	sllv	zero,zero,zero
bfc03f30:	00000004 	sllv	zero,zero,zero
bfc03f34:	00000001 	0x1
bfc03f38:	00010000 	sll	zero,at,0x0
bfc03f3c:	80100000 	lb	s0,0(zero)
bfc03f40:	80100000 	lb	s0,0(zero)
bfc03f44:	000002d0 	0x2d0
bfc03f48:	000002d0 	0x2d0
bfc03f4c:	00000005 	0x5
bfc03f50:	00010000 	sll	zero,at,0x0
	...
bfc13ee0:	08040050 	j	b0100140 <SCHED_N+0x200fcea4>
bfc13ee4:	00000000 	nop
	...
bfc13ef0:	00801021 	move	v0,a0
bfc13ef4:	27bdffe0 	addiu	sp,sp,-32
bfc13ef8:	afbf001c 	sw	ra,28(sp)
bfc13efc:	afa40000 	sw	a0,0(sp)
bfc13f00:	afa50004 	sw	a1,4(sp)
bfc13f04:	afa60008 	sw	a2,8(sp)
bfc13f08:	afa7000c 	sw	a3,12(sp)
bfc13f0c:	0000000c 	syscall
bfc13f10:	8fbf001c 	lw	ra,28(sp)
bfc13f14:	00000000 	nop
bfc13f18:	27bd0020 	addiu	sp,sp,32
bfc13f1c:	03e00008 	jr	ra
bfc13f20:	00000000 	nop
	...
bfc13f30:	27bdffe0 	addiu	sp,sp,-32
bfc13f34:	afbf001c 	sw	ra,28(sp)
bfc13f38:	afbe0018 	sw	s8,24(sp)
bfc13f3c:	03a0f021 	move	s8,sp
bfc13f40:	00801021 	move	v0,a0
bfc13f44:	a3c20020 	sb	v0,32(s8)
bfc13f48:	83c20020 	lb	v0,32(s8)
bfc13f4c:	afa00010 	sw	zero,16(sp)
bfc13f50:	afa00014 	sw	zero,20(sp)
bfc13f54:	00002021 	move	a0,zero
bfc13f58:	00402821 	move	a1,v0
bfc13f5c:	00003021 	move	a2,zero
bfc13f60:	00003821 	move	a3,zero
bfc13f64:	0c040004 	jal	b0100010 <SCHED_N+0x200fcd74>
bfc13f68:	00000000 	nop
bfc13f6c:	03c0e821 	move	sp,s8
bfc13f70:	8fbf001c 	lw	ra,28(sp)
bfc13f74:	8fbe0018 	lw	s8,24(sp)
bfc13f78:	27bd0020 	addiu	sp,sp,32
bfc13f7c:	03e00008 	jr	ra
bfc13f80:	00000000 	nop
bfc13f84:	27bdffe0 	addiu	sp,sp,-32
bfc13f88:	afbf001c 	sw	ra,28(sp)
bfc13f8c:	afbe0018 	sw	s8,24(sp)
bfc13f90:	03a0f021 	move	s8,sp
bfc13f94:	afc40020 	sw	a0,32(s8)
bfc13f98:	afa00010 	sw	zero,16(sp)
bfc13f9c:	afa00014 	sw	zero,20(sp)
bfc13fa0:	24040001 	li	a0,1
bfc13fa4:	8fc50020 	lw	a1,32(s8)
bfc13fa8:	00003021 	move	a2,zero
bfc13fac:	00003821 	move	a3,zero
bfc13fb0:	0c040004 	jal	b0100010 <SCHED_N+0x200fcd74>
bfc13fb4:	00000000 	nop
bfc13fb8:	03c0e821 	move	sp,s8
bfc13fbc:	8fbf001c 	lw	ra,28(sp)
bfc13fc0:	8fbe0018 	lw	s8,24(sp)
bfc13fc4:	27bd0020 	addiu	sp,sp,32
bfc13fc8:	03e00008 	jr	ra
bfc13fcc:	00000000 	nop
bfc13fd0:	27bdffe0 	addiu	sp,sp,-32
bfc13fd4:	afbf001c 	sw	ra,28(sp)
bfc13fd8:	afbe0018 	sw	s8,24(sp)
bfc13fdc:	03a0f021 	move	s8,sp
bfc13fe0:	afa00010 	sw	zero,16(sp)
bfc13fe4:	afa00014 	sw	zero,20(sp)
bfc13fe8:	24040002 	li	a0,2
bfc13fec:	00002821 	move	a1,zero
bfc13ff0:	00003021 	move	a2,zero
bfc13ff4:	00003821 	move	a3,zero
bfc13ff8:	0c040004 	jal	b0100010 <SCHED_N+0x200fcd74>
bfc13ffc:	00000000 	nop
bfc14000:	03c0e821 	move	sp,s8
bfc14004:	8fbf001c 	lw	ra,28(sp)
bfc14008:	8fbe0018 	lw	s8,24(sp)
bfc1400c:	27bd0020 	addiu	sp,sp,32
bfc14010:	03e00008 	jr	ra
bfc14014:	00000000 	nop
	...
bfc14020:	27bdffc8 	addiu	sp,sp,-56
bfc14024:	afbf0034 	sw	ra,52(sp)
bfc14028:	afbe0030 	sw	s8,48(sp)
bfc1402c:	03a0f021 	move	s8,sp
bfc14030:	3c028010 	lui	v0,0x8010
bfc14034:	8c4602b8 	lw	a2,696(v0)
bfc14038:	244302b8 	addiu	v1,v0,696
bfc1403c:	8c650004 	lw	a1,4(v1)
bfc14040:	244302b8 	addiu	v1,v0,696
bfc14044:	8c640008 	lw	a0,8(v1)
bfc14048:	244302b8 	addiu	v1,v0,696
bfc1404c:	8c63000c 	lw	v1,12(v1)
bfc14050:	afc6001c 	sw	a2,28(s8)
bfc14054:	afc50020 	sw	a1,32(s8)
bfc14058:	afc40024 	sw	a0,36(s8)
bfc1405c:	afc30028 	sw	v1,40(s8)
bfc14060:	244202b8 	addiu	v0,v0,696
bfc14064:	94420010 	lhu	v0,16(v0)
bfc14068:	00000000 	nop
bfc1406c:	a7c2002c 	sh	v0,44(s8)
bfc14070:	afc00010 	sw	zero,16(s8)
bfc14074:	24020011 	li	v0,17
bfc14078:	afc20018 	sw	v0,24(s8)
bfc1407c:	3c028010 	lui	v0,0x8010
bfc14080:	244402a0 	addiu	a0,v0,672
bfc14084:	0c040029 	jal	b01000a4 <SCHED_N+0x200fce08>
bfc14088:	00000000 	nop
bfc1408c:	afc00010 	sw	zero,16(s8)
bfc14090:	08040079 	j	b01001e4 <SCHED_N+0x200fcf48>
bfc14094:	00000000 	nop
bfc14098:	8fc20010 	lw	v0,16(s8)
bfc1409c:	27c30010 	addiu	v1,s8,16
bfc140a0:	00621021 	addu	v0,v1,v0
bfc140a4:	8042000c 	lb	v0,12(v0)
bfc140a8:	8fc30010 	lw	v1,16(s8)
bfc140ac:	00000000 	nop
bfc140b0:	24630001 	addiu	v1,v1,1
bfc140b4:	afc30010 	sw	v1,16(s8)
bfc140b8:	00402021 	move	a0,v0
bfc140bc:	0c040014 	jal	b0100050 <SCHED_N+0x200fcdb4>
bfc140c0:	00000000 	nop
bfc140c4:	8fc30010 	lw	v1,16(s8)
bfc140c8:	8fc20018 	lw	v0,24(s8)
bfc140cc:	00000000 	nop
bfc140d0:	0062102a 	slt	v0,v1,v0
bfc140d4:	1440fff0 	bnez	v0,bfc14098 <binary_user_A_start+0x101b8>
bfc140d8:	00000000 	nop
bfc140dc:	afc00010 	sw	zero,16(s8)
bfc140e0:	08040098 	j	b0100260 <SCHED_N+0x200fcfc4>
bfc140e4:	00000000 	nop
bfc140e8:	afc00014 	sw	zero,20(s8)
bfc140ec:	0804008c 	j	b0100230 <SCHED_N+0x200fcf94>
bfc140f0:	00000000 	nop
bfc140f4:	24040041 	li	a0,65
bfc140f8:	0c040014 	jal	b0100050 <SCHED_N+0x200fcdb4>
bfc140fc:	00000000 	nop
bfc14100:	8fc20014 	lw	v0,20(s8)
bfc14104:	00000000 	nop
bfc14108:	24420001 	addiu	v0,v0,1
bfc1410c:	afc20014 	sw	v0,20(s8)
bfc14110:	8fc20014 	lw	v0,20(s8)
bfc14114:	00000000 	nop
bfc14118:	28420032 	slti	v0,v0,50
bfc1411c:	1440fff5 	bnez	v0,bfc140f4 <binary_user_A_start+0x10214>
bfc14120:	00000000 	nop
bfc14124:	2404000a 	li	a0,10
bfc14128:	0c040014 	jal	b0100050 <SCHED_N+0x200fcdb4>
bfc1412c:	00000000 	nop
bfc14130:	8fc20010 	lw	v0,16(s8)
bfc14134:	00000000 	nop
bfc14138:	24420001 	addiu	v0,v0,1
bfc1413c:	afc20010 	sw	v0,16(s8)
bfc14140:	8fc20010 	lw	v0,16(s8)
bfc14144:	00000000 	nop
bfc14148:	2842001e 	slti	v0,v0,30
bfc1414c:	1440ffe6 	bnez	v0,bfc140e8 <binary_user_A_start+0x10208>
bfc14150:	00000000 	nop
bfc14154:	08040067 	j	b010019c <SCHED_N+0x200fcf00>
bfc14158:	00000000 	nop
	...
bfc14180:	73696854 	0x73696854
bfc14184:	20736920 	addi	s3,v1,26912
bfc14188:	20766e45 	addi	s6,v1,28229
bfc1418c:	2e2e2e31 	sltiu	t6,s1,11825
bfc14190:	0a2e2e2e 	j	b8b8b8b8 <SCHED_N+0x28b8861c>
bfc14194:	00000000 	nop
bfc14198:	3a736470 	xori	s3,s3,0x6470
bfc1419c:	6c6c6548 	0x6c6c6548
bfc141a0:	6f57206f 	0x6f57206f
bfc141a4:	21646c72 	addi	a0,t3,27762
bfc141a8:	0000000a 	0xa
bfc141ac:	00000000 	nop
bfc141b0:	80100000 	lb	s0,0(zero)
	...
bfc141c8:	0000001d 	0x1d
bfc141cc:	0000001f 	0x1f
bfc141d0:	80100010 	lb	s0,16(zero)
	...
bfc141e8:	0000001d 	0x1d
bfc141ec:	0000001f 	0x1f
bfc141f0:	80100050 	lb	s0,80(zero)
bfc141f4:	c0000000 	lwc0	$0,0(zero)
bfc141f8:	fffffffc 	0xfffffffc
	...
bfc14204:	00000020 	add	zero,zero,zero
bfc14208:	0000001e 	0x1e
bfc1420c:	0000001f 	0x1f
bfc14210:	801000a4 	lb	s0,164(zero)
bfc14214:	c0000000 	lwc0	$0,0(zero)
bfc14218:	fffffffc 	0xfffffffc
	...
bfc14224:	00000020 	add	zero,zero,zero
bfc14228:	0000001e 	0x1e
bfc1422c:	0000001f 	0x1f
bfc14230:	801000f0 	lb	s0,240(zero)
bfc14234:	c0000000 	lwc0	$0,0(zero)
bfc14238:	fffffffc 	0xfffffffc
	...
bfc14244:	00000020 	add	zero,zero,zero
bfc14248:	0000001e 	0x1e
bfc1424c:	0000001f 	0x1f
bfc14250:	80100140 	lb	s0,320(zero)
bfc14254:	c0000000 	lwc0	$0,0(zero)
bfc14258:	fffffffc 	0xfffffffc
	...
bfc14264:	00000038 	0x38
bfc14268:	0000001e 	0x1e
bfc1426c:	0000001f 	0x1f
bfc14270:	3a434347 	xori	v1,s2,0x4347
bfc14274:	4e472820 	c3	0x472820
bfc14278:	34202955 	ori	zero,at,0x2955
bfc1427c:	312e362e 	andi	t6,t1,0x362e
bfc14280:	000f4100 	sll	t0,t7,0x4
bfc14284:	6e670000 	0x6e670000
bfc14288:	07010075 	bgez	t8,bfc14460 <binary_user_A_start+0x10580>
bfc1428c:	04000000 	bltz	zero,bfc14290 <binary_user_A_start+0x103b0>
bfc14290:	00000001 	0x1
bfc14294:	00000001 	0x1
bfc14298:	00170000 	sll	zero,s7,0x0
bfc1429c:	00000056 	0x56
bfc142a0:	00000001 	0x1
bfc142a4:	00000064 	0x64
bfc142a8:	80100010 	lb	s0,16(zero)
bfc142ac:	00000011 	mthi	zero
bfc142b0:	00000080 	sll	zero,zero,0x2
bfc142b4:	00000000 	nop
bfc142b8:	0000001b 	divu	zero,zero,zero
bfc142bc:	00090024 	and	zero,zero,t1
bfc142c0:	80100000 	lb	s0,0(zero)
bfc142c4:	00000025 	move	zero,zero
bfc142c8:	00000084 	0x84
bfc142cc:	80100000 	lb	s0,0(zero)
bfc142d0:	00000000 	nop
bfc142d4:	00090044 	0x90044
	...
bfc142e0:	00000024 	and	zero,zero,zero
bfc142e4:	00000004 	sllv	zero,zero,zero
bfc142e8:	0000002d 	0x2d
bfc142ec:	00000064 	0x64
bfc142f0:	80100010 	lb	s0,16(zero)
bfc142f4:	00000011 	mthi	zero
bfc142f8:	00000080 	sll	zero,zero,0x2
bfc142fc:	00000000 	nop
bfc14300:	0000003d 	0x3d
bfc14304:	00070024 	and	zero,zero,a3
bfc14308:	80100010 	lb	s0,16(zero)
bfc1430c:	0000004c 	syscall	0x1
bfc14310:	00000084 	0x84
bfc14314:	80100010 	lb	s0,16(zero)
bfc14318:	00000000 	nop
bfc1431c:	00070044 	0x70044
	...
bfc14328:	00080044 	0x80044
bfc1432c:	00000004 	sllv	zero,zero,zero
bfc14330:	00000000 	nop
bfc14334:	00090044 	0x90044
bfc14338:	00000008 	jr	zero
bfc1433c:	00000000 	nop
bfc14340:	000a0044 	0xa0044
bfc14344:	0000000c 	syscall
bfc14348:	00000000 	nop
bfc1434c:	000b0044 	0xb0044
bfc14350:	00000010 	mfhi	zero
bfc14354:	00000000 	nop
bfc14358:	000c0044 	0xc0044
bfc1435c:	00000014 	0x14
bfc14360:	00000000 	nop
bfc14364:	000d0044 	0xd0044
bfc14368:	00000018 	mult	zero,zero
bfc1436c:	00000000 	nop
bfc14370:	000f0044 	0xf0044
bfc14374:	0000001c 	0x1c
bfc14378:	00000000 	nop
bfc1437c:	00110044 	0x110044
bfc14380:	00000020 	add	zero,zero,zero
bfc14384:	00000000 	nop
bfc14388:	00120044 	0x120044
bfc1438c:	00000028 	0x28
bfc14390:	00000000 	nop
bfc14394:	00130044 	0x130044
bfc14398:	0000002c 	0x2c
bfc1439c:	00000000 	nop
bfc143a0:	00140044 	0x140044
bfc143a4:	00000034 	0x34
bfc143a8:	00000000 	nop
bfc143ac:	00000024 	and	zero,zero,zero
bfc143b0:	00000038 	0x38
bfc143b4:	6d742f00 	0x6d742f00
bfc143b8:	63632f70 	0x63632f70
bfc143bc:	35676d46 	ori	a3,t3,0x6d46
bfc143c0:	732e6848 	0x732e6848
bfc143c4:	696f7600 	0x696f7600
bfc143c8:	31743a64 	andi	s4,t3,0x3a64
bfc143cc:	5f00313d 	0x5f00313d
bfc143d0:	72617473 	0x72617473
bfc143d4:	31463a74 	andi	a2,t2,0x3a74
bfc143d8:	61747300 	0x61747300
bfc143dc:	532e7472 	0x532e7472
bfc143e0:	6d742f00 	0x6d742f00
bfc143e4:	63632f70 	0x63632f70
bfc143e8:	62374249 	0x62374249
bfc143ec:	732e7444 	0x732e7444
bfc143f0:	73647000 	0x73647000
bfc143f4:	7379735f 	0x7379735f
bfc143f8:	6c6c6163 	0x6c6c6163
bfc143fc:	0031463a 	0x31463a
bfc14400:	63737973 	0x63737973
bfc14404:	2e6c6c61 	sltiu	t4,s3,27745
bfc14408:	00c70053 	0xc70053
bfc1440c:	00020000 	sll	zero,v0,0x0
bfc14410:	00000000 	nop
bfc14414:	00280104 	0x280104
bfc14418:	70010000 	0x70010000
bfc1441c:	34000000 	li	zero,0x0
bfc14420:	50000000 	0x50000000
bfc14424:	38801000 	xori	zero,a0,0x1000
bfc14428:	00801001 	0x801001
bfc1442c:	02000000 	0x2000000
bfc14430:	00006001 	0x6001
bfc14434:	01030100 	0x1030100
bfc14438:	80100050 	lb	s0,80(zero)
bfc1443c:	801000a4 	lb	s0,164(zero)
bfc14440:	00000000 	nop
bfc14444:	0000005b 	0x5b
bfc14448:	00686303 	0x686303
bfc1444c:	005b0301 	0x5b0301
bfc14450:	91020000 	lbu	v0,0(t0)
bfc14454:	00010400 	sll	zero,at,0x10
bfc14458:	01000000 	0x1000000
bfc1445c:	00006205 	0x6205
bfc14460:	00050100 	sll	zero,a1,0x4
bfc14464:	06010600 	bgez	s0,bfc15c68 <binary_user_B_start+0xdd4>
bfc14468:	0000006b 	0x6b
bfc1446c:	69050407 	0x69050407
bfc14470:	0200746e 	0x200746e
bfc14474:	00001901 	0x1901
bfc14478:	01080100 	0x1080100
bfc1447c:	801000a4 	lb	s0,164(zero)
bfc14480:	801000f0 	lb	s0,240(zero)
bfc14484:	0000002c 	0x2c
bfc14488:	000000a0 	0xa0
bfc1448c:	746d6603 	jalx	b1b5980c <SCHED_N+0x21b56570>
bfc14490:	a0080100 	sb	t0,256(zero)
bfc14494:	02000000 	0x2000000
bfc14498:	01040091 	0x1040091
bfc1449c:	00000000 	nop
bfc144a0:	00620501 	0x620501
bfc144a4:	05010000 	bgez	t0,bfc144a8 <binary_user_A_start+0x105c8>
bfc144a8:	04080000 	0x4080000
bfc144ac:	0000005b 	0x5b
bfc144b0:	000c0109 	0xc0109
bfc144b4:	0d010000 	jal	b4040000 <SCHED_N+0x2403cd64>
bfc144b8:	801000f0 	lb	s0,240(zero)
bfc144bc:	80100138 	lb	s0,312(zero)
bfc144c0:	00000058 	0x58
bfc144c4:	00000104 	0x104
bfc144c8:	05010000 	bgez	t0,bfc144cc <binary_user_A_start+0x105ec>
bfc144cc:	00000062 	0x62
bfc144d0:	00000501 	0x501
bfc144d4:	00009400 	sll	s2,zero,0x10
bfc144d8:	82000200 	lb	zero,512(s0)
bfc144dc:	04000000 	bltz	zero,bfc144e0 <binary_user_A_start+0x10600>
bfc144e0:	00002801 	0x2801
bfc144e4:	2e410100 	sltiu	at,s2,256
bfc144e8:	00340063 	0x340063
bfc144ec:	01400000 	0x1400000
bfc144f0:	027c8010 	0x27c8010
bfc144f4:	00438010 	0x438010
bfc144f8:	01020000 	0x1020000
bfc144fc:	00000083 	sra	zero,zero,0x2
bfc14500:	00720301 	0x720301
bfc14504:	01400000 	0x1400000
bfc14508:	027c8010 	0x27c8010
bfc1450c:	00848010 	0x848010
bfc14510:	00720000 	0x720000
bfc14514:	73030000 	0x73030000
bfc14518:	79050100 	0x79050100
bfc1451c:	02000000 	0x2000000
bfc14520:	69036491 	0x69036491
bfc14524:	72060100 	0x72060100
bfc14528:	02000000 	0x2000000
bfc1452c:	6a035891 	0x6a035891
bfc14530:	72060100 	0x72060100
bfc14534:	02000000 	0x2000000
bfc14538:	6e035c91 	0x6e035c91
bfc1453c:	72060100 	0x72060100
bfc14540:	02000000 	0x2000000
bfc14544:	04006091 	bltz	zero,bfc2c78c <binary_user_C_start+0x69f4>
bfc14548:	6e690504 	0x6e690504
bfc1454c:	90050074 	lbu	a1,116(zero)
bfc14550:	89000000 	lwl	zero,0(t0)
bfc14554:	06000000 	bltz	s0,bfc14558 <binary_user_A_start+0x10678>
bfc14558:	00000089 	0x89
bfc1455c:	04070011 	0x4070011
bfc14560:	00007607 	0x7607
bfc14564:	06010700 	bgez	s0,bfc16168 <binary_user_B_start+0x12d4>
bfc14568:	0000006b 	0x6b
bfc1456c:	01110100 	0x1110100
bfc14570:	0b130e25 	j	bc4c3894 <SCHED_N+0x2c4c05f8>
bfc14574:	0e1b0e03 	jal	b86c380c <SCHED_N+0x286c0570>
bfc14578:	01120111 	0x1120111
bfc1457c:	00000610 	0x610
bfc14580:	3f012e02 	0x3f012e02
bfc14584:	3a0e030c 	xori	t6,s0,0x30c
bfc14588:	270b3b0b 	addiu	t3,t8,15115
bfc1458c:	1201110c 	beq	s0,at,bfc189c0 <binary_user_B_start+0x3b2c>
bfc14590:	01064001 	0x1064001
bfc14594:	03000013 	mtlo	t8
bfc14598:	08030005 	j	b00c0014 <SCHED_N+0x200bcd78>
bfc1459c:	0b3b0b3a 	j	bcec2ce8 <SCHED_N+0x2cebfa4c>
bfc145a0:	0a021349 	j	b8084d24 <SCHED_N+0x28081a88>
bfc145a4:	2e040000 	sltiu	a0,s0,0
bfc145a8:	030c3f01 	0x30c3f01
bfc145ac:	3b0b3a0e 	xori	t3,t8,0x3a0e
bfc145b0:	3c13490b 	lui	s3,0x490b
bfc145b4:	0500000c 	bltz	t0,bfc145e8 <binary_user_A_start+0x10708>
bfc145b8:	00000018 	mult	zero,zero
bfc145bc:	0b002406 	j	bc009018 <SCHED_N+0x2c005d7c>
bfc145c0:	030b3e0b 	0x30b3e0b
bfc145c4:	0700000e 	bltz	t8,bfc14600 <binary_user_A_start+0x10720>
bfc145c8:	0b0b0024 	j	bc2c0090 <SCHED_N+0x2c2bcdf4>
bfc145cc:	08030b3e 	j	b00c2cf8 <SCHED_N+0x200bfa5c>
bfc145d0:	0f080000 	jal	bc200000 <SCHED_N+0x2c1fcd64>
bfc145d4:	490b0b00 	0x490b0b00
bfc145d8:	09000013 	j	b400004c <SCHED_N+0x23ffcdb0>
bfc145dc:	0c3f012e 	jal	b0fc04b8 <SCHED_N+0x20fbd21c>
bfc145e0:	0b3a0e03 	j	bce8380c <SCHED_N+0x2ce80570>
bfc145e4:	01110b3b 	0x1110b3b
bfc145e8:	06400112 	bltz	s2,bfc14a34 <binary_user_A_start+0x10b54>
bfc145ec:	01000000 	0x1000000
bfc145f0:	0e250111 	jal	b8940444 <SCHED_N+0x2893d1a8>
bfc145f4:	08030b13 	j	b00c2c4c <SCHED_N+0x200bf9b0>
bfc145f8:	01110e1b 	0x1110e1b
bfc145fc:	06100112 	bltzal	s0,bfc14a48 <binary_user_A_start+0x10b68>
bfc14600:	2e020000 	sltiu	v0,s0,0
bfc14604:	030c3f01 	0x30c3f01
bfc14608:	3b0b3a0e 	xori	t3,t8,0x3a0e
bfc1460c:	1113490b 	beq	t0,s3,bfc26a3c <binary_user_C_start+0xca4>
bfc14610:	40011201 	0x40011201
bfc14614:	00130106 	0x130106
bfc14618:	00340300 	0x340300
bfc1461c:	0b3a0803 	j	bce8200c <SCHED_N+0x2ce7ed70>
bfc14620:	13490b3b 	beq	k0,t1,bfc17310 <binary_user_B_start+0x247c>
bfc14624:	00000a02 	srl	at,zero,0x8
bfc14628:	0b002404 	j	bc009010 <SCHED_N+0x2c005d74>
bfc1462c:	030b3e0b 	0x30b3e0b
bfc14630:	05000008 	bltz	t0,bfc14654 <binary_user_A_start+0x10774>
bfc14634:	13490101 	beq	k0,t1,bfc14a3c <binary_user_A_start+0x10b5c>
bfc14638:	00001301 	0x1301
bfc1463c:	49002106 	bc2f	bfc1ca58 <binary_user_B_start+0x7bc4>
bfc14640:	000b2f13 	0xb2f13
bfc14644:	00240700 	0x240700
bfc14648:	0b3e0b0b 	j	bcf82c2c <SCHED_N+0x2cf7f990>
bfc1464c:	00000e03 	sra	at,zero,0x18
bfc14650:	00000000 	nop
bfc14654:	00000400 	sll	zero,zero,0x10
bfc14658:	8d000200 	lw	zero,512(t0)
bfc1465c:	00000400 	sll	zero,zero,0x10
bfc14660:	00001000 	sll	v0,zero,0x0
bfc14664:	8d000200 	lw	zero,512(t0)
bfc14668:	00001020 	add	v0,zero,zero
bfc1466c:	00005400 	sll	t2,zero,0x10
bfc14670:	8e000200 	lw	zero,512(s0)
bfc14674:	00000020 	add	zero,zero,zero
bfc14678:	00000000 	nop
bfc1467c:	00005400 	sll	t2,zero,0x10
bfc14680:	00005800 	sll	t3,zero,0x0
bfc14684:	8d000200 	lw	zero,512(t0)
bfc14688:	00005800 	sll	t3,zero,0x0
bfc1468c:	00006400 	sll	t4,zero,0x10
bfc14690:	8d000200 	lw	zero,512(t0)
bfc14694:	00006420 	0x6420
bfc14698:	0000a000 	sll	s4,zero,0x0
bfc1469c:	8e000200 	lw	zero,512(s0)
bfc146a0:	00000020 	add	zero,zero,zero
bfc146a4:	00000000 	nop
bfc146a8:	0000a000 	sll	s4,zero,0x0
bfc146ac:	0000a400 	sll	s4,zero,0x10
bfc146b0:	8d000200 	lw	zero,512(t0)
bfc146b4:	0000a400 	sll	s4,zero,0x10
bfc146b8:	0000b000 	sll	s6,zero,0x0
bfc146bc:	8d000200 	lw	zero,512(t0)
bfc146c0:	0000b020 	add	s6,zero,zero
bfc146c4:	0000e800 	sll	sp,zero,0x0
bfc146c8:	8e000200 	lw	zero,512(s0)
bfc146cc:	00000020 	add	zero,zero,zero
	...
bfc146d8:	00000400 	sll	zero,zero,0x10
bfc146dc:	8d000200 	lw	zero,512(t0)
bfc146e0:	00000400 	sll	zero,zero,0x10
bfc146e4:	00001000 	sll	v0,zero,0x0
bfc146e8:	8d000200 	lw	zero,512(t0)
bfc146ec:	00001038 	0x1038
bfc146f0:	00013c00 	sll	a3,at,0x10
bfc146f4:	8e000200 	lw	zero,512(s0)
bfc146f8:	00000038 	0x38
bfc146fc:	00000000 	nop
bfc14700:	00001c00 	sll	v1,zero,0x10
bfc14704:	00000200 	sll	zero,zero,0x8
bfc14708:	04000000 	bltz	zero,bfc1470c <binary_user_A_start+0x1082c>
bfc1470c:	00000000 	nop
bfc14710:	10005000 	b	bfc28714 <binary_user_C_start+0x297c>
bfc14714:	0000e880 	sll	sp,zero,0x2
	...
bfc14720:	00001c00 	sll	v1,zero,0x10
bfc14724:	cb000200 	lwc2	$0,512(t8)
bfc14728:	04000000 	bltz	zero,bfc1472c <binary_user_A_start+0x1084c>
bfc1472c:	00000000 	nop
bfc14730:	10014000 	beq	zero,at,bfc24734 <binary_user_B_start+0xf8a0>
bfc14734:	00013c80 	sll	a3,at,0x12
	...
bfc14740:	00003f00 	sll	a3,zero,0x1c
bfc14744:	1c000200 	bgtz	zero,bfc14f48 <binary_user_B_start+0xb4>
bfc14748:	01000000 	0x1000000
bfc1474c:	0d0efb01 	jal	b43bec04 <SCHED_N+0x243bb968>
bfc14750:	01010100 	0x1010100
bfc14754:	00000001 	0x1
bfc14758:	01000001 	0x1000001
bfc1475c:	62696c00 	0x62696c00
bfc14760:	0000632e 	0x632e
bfc14764:	00000000 	nop
bfc14768:	00500205 	0x500205
bfc1476c:	08158010 	j	b0560040 <SCHED_N+0x2055cda4>
bfc14770:	13240275 	beq	t9,a0,bfc15148 <binary_user_B_start+0x2b4>
bfc14774:	3d087708 	0x3d087708
bfc14778:	7708e508 	jalx	bc239420 <SCHED_N+0x2c236184>
bfc1477c:	02e508f3 	0x2e508f3
bfc14780:	01010018 	mult	t0,at
bfc14784:	0000005c 	0x5c
bfc14788:	001a0002 	srl	zero,k0,0x0
bfc1478c:	01010000 	0x1010000
bfc14790:	000d0efb 	0xd0efb
bfc14794:	01010101 	0x1010101
bfc14798:	01000000 	0x1000000
bfc1479c:	00010000 	sll	zero,at,0x0
bfc147a0:	00632e41 	0x632e41
bfc147a4:	00000000 	nop
bfc147a8:	40020500 	0x40020500
bfc147ac:	15801001 	bnez	t4,bfc187b4 <binary_user_B_start+0x3920>
bfc147b0:	134002f3 	beqz	k0,bfc15380 <binary_user_B_start+0x4ec>
bfc147b4:	834bf4bf 	lb	t3,-2881(k0)
bfc147b8:	01040200 	0x1040200
bfc147bc:	08112c02 	j	b044b008 <SCHED_N+0x20447d6c>
bfc147c0:	0200bc77 	0x200bc77
bfc147c4:	00bb0204 	0xbb0204
bfc147c8:	b9020402 	swr	v0,1026(t0)
bfc147cc:	01040200 	0x1040200
bfc147d0:	0806f206 	j	b01bc818 <SCHED_N+0x201b957c>
bfc147d4:	0200b63e 	0x200b63e
bfc147d8:	f2060104 	0xf2060104
bfc147dc:	02420806 	srlv	at,v0,s2
bfc147e0:	01010008 	0x1010008
bfc147e4:	5f736470 	0x5f736470
bfc147e8:	63737973 	0x63737973
bfc147ec:	006c6c61 	0x6c6c61
bfc147f0:	63737973 	0x63737973
bfc147f4:	5f6c6c61 	0x5f6c6c61
bfc147f8:	74697865 	jalx	b1a5e194 <SCHED_N+0x21a5aef8>
bfc147fc:	73797300 	0x73797300
bfc14800:	6c6c6163 	0x6c6c6163
bfc14804:	6972705f 	0x6972705f
bfc14808:	0066746e 	0x66746e
bfc1480c:	20554e47 	addi	s5,v0,20039
bfc14810:	2e342043 	sltiu	s4,s1,8259
bfc14814:	00312e36 	0x312e36
bfc14818:	6d6f682f 	0x6d6f682f
bfc1481c:	64702f65 	0x64702f65
bfc14820:	6f572f73 	0x6f572f73
bfc14824:	4d2f6b72 	0x4d2f6b72
bfc14828:	2f535049 	sltiu	s3,k0,20553
bfc1482c:	4f434f43 	c3	0x1434f43
bfc14830:	494d2f41 	0x494d2f41
bfc14834:	4f5f5350 	c3	0x15f5350
bfc14838:	752f3253 	jalx	b4bcc94c <SCHED_N+0x24bc96b0>
bfc1483c:	2f726573 	sltiu	s2,k1,25971
bfc14840:	00637273 	0x637273
bfc14844:	63737973 	0x63737973
bfc14848:	5f6c6c61 	0x5f6c6c61
bfc1484c:	63747570 	0x63747570
bfc14850:	00726168 	0x726168
bfc14854:	2e62696c 	sltiu	v0,s3,26988
bfc14858:	6e750063 	0x6e750063
bfc1485c:	6e676973 	0x6e676973
bfc14860:	69206465 	0x69206465
bfc14864:	6d00746e 	0x6d00746e
bfc14868:	006e6961 	0x6e6961
bfc1486c:	0000000c 	syscall
bfc14870:	ffffffff 	0xffffffff
bfc14874:	7c010001 	0x7c010001
bfc14878:	001d0d1f 	0x1d0d1f
bfc1487c:	00000018 	mult	zero,zero
bfc14880:	00000000 	nop
bfc14884:	80100050 	lb	s0,80(zero)
bfc14888:	00000054 	0x54
bfc1488c:	4c200e44 	0x4c200e44
bfc14890:	019f029e 	0x19f029e
bfc14894:	00001e0d 	break	0x0,0x78
bfc14898:	00000018 	mult	zero,zero
bfc1489c:	00000000 	nop
bfc148a0:	801000a4 	lb	s0,164(zero)
bfc148a4:	0000004c 	syscall	0x1
bfc148a8:	4c200e44 	0x4c200e44
bfc148ac:	019f029e 	0x19f029e
bfc148b0:	00001e0d 	break	0x0,0x78
bfc148b4:	00000018 	mult	zero,zero
bfc148b8:	00000000 	nop
bfc148bc:	801000f0 	lb	s0,240(zero)
bfc148c0:	00000048 	0x48
bfc148c4:	4c200e44 	0x4c200e44
bfc148c8:	019f029e 	0x19f029e
bfc148cc:	00001e0d 	break	0x0,0x78
bfc148d0:	0000000c 	syscall
bfc148d4:	ffffffff 	0xffffffff
bfc148d8:	7c010001 	0x7c010001
bfc148dc:	001d0d1f 	0x1d0d1f
bfc148e0:	00000018 	mult	zero,zero
bfc148e4:	00000064 	0x64
bfc148e8:	80100140 	lb	s0,320(zero)
bfc148ec:	0000013c 	0x13c
bfc148f0:	4c380e44 	0x4c380e44
bfc148f4:	019f029e 	0x19f029e
bfc148f8:	00001e0d 	break	0x0,0x78
bfc148fc:	79732e00 	0x79732e00
bfc14900:	6261746d 	0x6261746d
bfc14904:	74732e00 	jalx	b1ccb800 <SCHED_N+0x21cc8564>
bfc14908:	62617472 	0x62617472
bfc1490c:	68732e00 	0x68732e00
bfc14910:	74727473 	jalx	b1c9d1cc <SCHED_N+0x21c99f30>
bfc14914:	2e006261 	sltiu	zero,s0,25185
bfc14918:	74786574 	jalx	b1e195d0 <SCHED_N+0x21e16334>
bfc1491c:	65722e00 	0x65722e00
bfc14920:	666e6967 	0x666e6967
bfc14924:	722e006f 	0x722e006f
bfc14928:	7461646f 	jalx	b18591bc <SCHED_N+0x21855f20>
bfc1492c:	702e0061 	0x702e0061
bfc14930:	2e007264 	sltiu	zero,s0,29284
bfc14934:	6d6d6f63 	0x6d6d6f63
bfc14938:	00746e65 	0x746e65
bfc1493c:	756e672e 	jalx	b5b99cb8 <SCHED_N+0x25b96a1c>
bfc14940:	7474612e 	jalx	b1d184b8 <SCHED_N+0x21d1521c>
bfc14944:	75626972 	jalx	b589a5c8 <SCHED_N+0x2589732c>
bfc14948:	00736574 	0x736574
bfc1494c:	6174732e 	0x6174732e
bfc14950:	732e0062 	0x732e0062
bfc14954:	73626174 	0x73626174
bfc14958:	2e007274 	sltiu	zero,s0,29300
bfc1495c:	75626564 	jalx	b5899590 <SCHED_N+0x258962f4>
bfc14960:	6e695f67 	0x6e695f67
bfc14964:	2e006f66 	sltiu	zero,s0,28518
bfc14968:	75626564 	jalx	b5899590 <SCHED_N+0x258962f4>
bfc1496c:	62615f67 	0x62615f67
bfc14970:	76657262 	jalx	b995c988 <SCHED_N+0x299596ec>
bfc14974:	65642e00 	0x65642e00
bfc14978:	5f677562 	0x5f677562
bfc1497c:	00636f6c 	0x636f6c
bfc14980:	6265642e 	0x6265642e
bfc14984:	615f6775 	0x615f6775
bfc14988:	676e6172 	0x676e6172
bfc1498c:	2e007365 	sltiu	zero,s0,29541
bfc14990:	75626564 	jalx	b5899590 <SCHED_N+0x258962f4>
bfc14994:	696c5f67 	0x696c5f67
bfc14998:	2e00656e 	sltiu	zero,s0,25966
bfc1499c:	75626564 	jalx	b5899590 <SCHED_N+0x258962f4>
bfc149a0:	74735f67 	jalx	b1cd7d9c <SCHED_N+0x21cd4b00>
bfc149a4:	642e0072 	0x642e0072
bfc149a8:	67756265 	0x67756265
bfc149ac:	6172665f 	0x6172665f
bfc149b0:	0000656d 	0x656d
	...
bfc149dc:	0000001b 	divu	zero,zero,zero
bfc149e0:	00000001 	0x1
bfc149e4:	00000006 	srlv	zero,zero,zero
bfc149e8:	80100000 	lb	s0,0(zero)
bfc149ec:	00010000 	sll	zero,at,0x0
bfc149f0:	00000280 	sll	zero,zero,0xa
	...
bfc149fc:	00000010 	mfhi	zero
bfc14a00:	00000000 	nop
bfc14a04:	00000021 	move	zero,zero
bfc14a08:	70000006 	0x70000006
bfc14a0c:	00000002 	srl	zero,zero,0x0
bfc14a10:	80100280 	lb	s0,640(zero)
bfc14a14:	00010280 	sll	zero,at,0xa
bfc14a18:	00000018 	mult	zero,zero
	...
bfc14a24:	00000004 	sllv	zero,zero,zero
bfc14a28:	00000018 	mult	zero,zero
bfc14a2c:	0000002a 	slt	zero,zero,zero
bfc14a30:	00000001 	0x1
bfc14a34:	00000002 	srl	zero,zero,0x0
bfc14a38:	801002a0 	lb	s0,672(zero)
bfc14a3c:	000102a0 	0x102a0
bfc14a40:	00000030 	0x30
	...
bfc14a4c:	00000010 	mfhi	zero
bfc14a50:	00000000 	nop
bfc14a54:	00000032 	0x32
bfc14a58:	00000001 	0x1
	...
bfc14a64:	000102d0 	0x102d0
bfc14a68:	000000c0 	ehb
	...
bfc14a74:	00000004 	sllv	zero,zero,zero
bfc14a78:	00000000 	nop
bfc14a7c:	00000037 	0x37
bfc14a80:	00000001 	0x1
bfc14a84:	00000030 	0x30
bfc14a88:	00000000 	nop
bfc14a8c:	00010390 	0x10390
bfc14a90:	00000011 	mthi	zero
	...
bfc14a9c:	00000001 	0x1
bfc14aa0:	00000001 	0x1
bfc14aa4:	00000040 	ssnop
bfc14aa8:	6ffffff5 	0x6ffffff5
	...
bfc14ab4:	000103a1 	0x103a1
bfc14ab8:	00000010 	mfhi	zero
	...
bfc14ac4:	00000001 	0x1
bfc14ac8:	00000000 	nop
bfc14acc:	00000050 	0x50
bfc14ad0:	00000001 	0x1
	...
bfc14adc:	000103b4 	0x103b4
bfc14ae0:	00000120 	0x120
bfc14ae4:	00000008 	jr	zero
bfc14ae8:	00000000 	nop
bfc14aec:	00000004 	sllv	zero,zero,zero
bfc14af0:	0000000c 	syscall
bfc14af4:	00000056 	0x56
bfc14af8:	00000003 	sra	zero,zero,0x0
	...
bfc14b04:	000104d4 	0x104d4
bfc14b08:	00000056 	0x56
	...
bfc14b14:	00000001 	0x1
bfc14b18:	00000000 	nop
bfc14b1c:	0000005f 	0x5f
bfc14b20:	7000001e 	0x7000001e
	...
bfc14b2c:	0001052a 	0x1052a
bfc14b30:	00000163 	0x163
	...
bfc14b3c:	00000001 	0x1
bfc14b40:	00000000 	nop
bfc14b44:	0000006b 	0x6b
bfc14b48:	7000001e 	0x7000001e
	...
bfc14b54:	0001068d 	break	0x1,0x1a
bfc14b58:	000000e4 	0xe4
	...
bfc14b64:	00000001 	0x1
bfc14b68:	00000000 	nop
bfc14b6c:	00000079 	0x79
bfc14b70:	7000001e 	0x7000001e
	...
bfc14b7c:	00010771 	0x10771
bfc14b80:	000000b0 	0xb0
	...
bfc14b8c:	00000001 	0x1
bfc14b90:	00000000 	nop
bfc14b94:	00000084 	0x84
bfc14b98:	7000001e 	0x7000001e
	...
bfc14ba4:	00010821 	addu	at,zero,at
bfc14ba8:	00000040 	ssnop
	...
bfc14bb4:	00000001 	0x1
bfc14bb8:	00000000 	nop
bfc14bbc:	00000093 	0x93
bfc14bc0:	7000001e 	0x7000001e
	...
bfc14bcc:	00010861 	0x10861
bfc14bd0:	000000a3 	0xa3
	...
bfc14bdc:	00000001 	0x1
bfc14be0:	00000000 	nop
bfc14be4:	0000009f 	0x9f
bfc14be8:	7000001e 	0x7000001e
bfc14bec:	00000030 	0x30
bfc14bf0:	00000000 	nop
bfc14bf4:	00010904 	0x10904
bfc14bf8:	00000088 	0x88
	...
bfc14c04:	00000001 	0x1
bfc14c08:	00000001 	0x1
bfc14c0c:	000000aa 	0xaa
bfc14c10:	7000001e 	0x7000001e
	...
bfc14c1c:	0001098c 	syscall	0x426
bfc14c20:	00000090 	0x90
	...
bfc14c2c:	00000004 	sllv	zero,zero,zero
bfc14c30:	00000000 	nop
bfc14c34:	00000011 	mthi	zero
bfc14c38:	00000003 	sra	zero,zero,0x0
	...
bfc14c44:	00010a1c 	0x10a1c
bfc14c48:	000000b7 	0xb7
	...
bfc14c54:	00000001 	0x1
bfc14c58:	00000000 	nop
bfc14c5c:	00000001 	0x1
bfc14c60:	00000002 	srl	zero,zero,0x0
	...
bfc14c6c:	00010dcc 	syscall	0x437
bfc14c70:	00000190 	0x190
bfc14c74:	00000012 	mflo	zero
bfc14c78:	00000012 	mflo	zero
bfc14c7c:	00000004 	sllv	zero,zero,zero
bfc14c80:	00000010 	mfhi	zero
bfc14c84:	00000009 	jalr	zero,zero
bfc14c88:	00000003 	sra	zero,zero,0x0
	...
bfc14c94:	00010f5c 	0x10f5c
bfc14c98:	00000053 	0x53
	...
bfc14ca4:	00000001 	0x1
	...
bfc14cc0:	80100000 	lb	s0,0(zero)
bfc14cc4:	00000000 	nop
bfc14cc8:	00010003 	sra	zero,at,0x0
bfc14ccc:	00000000 	nop
bfc14cd0:	80100280 	lb	s0,640(zero)
bfc14cd4:	00000000 	nop
bfc14cd8:	00020003 	sra	zero,v0,0x0
bfc14cdc:	00000000 	nop
bfc14ce0:	801002a0 	lb	s0,672(zero)
bfc14ce4:	00000000 	nop
bfc14ce8:	00030003 	sra	zero,v1,0x0
	...
bfc14cf8:	00040003 	sra	zero,a0,0x0
	...
bfc14d08:	00050003 	sra	zero,a1,0x0
	...
bfc14d18:	00060003 	sra	zero,a2,0x0
	...
bfc14d28:	00070003 	sra	zero,a3,0x0
	...
bfc14d38:	00080003 	sra	zero,t0,0x0
	...
bfc14d48:	00090003 	sra	zero,t1,0x0
	...
bfc14d58:	000a0003 	sra	zero,t2,0x0
	...
bfc14d68:	000b0003 	sra	zero,t3,0x0
	...
bfc14d78:	000c0003 	sra	zero,t4,0x0
	...
bfc14d88:	000d0003 	sra	zero,t5,0x0
	...
bfc14d98:	000e0003 	sra	zero,t6,0x0
	...
bfc14da8:	000f0003 	sra	zero,t7,0x0
bfc14dac:	00000001 	0x1
	...
bfc14db8:	fff10004 	0xfff10004
bfc14dbc:	00000007 	srav	zero,zero,zero
	...
bfc14dc8:	fff10004 	0xfff10004
bfc14dcc:	0000000b 	0xb
bfc14dd0:	801000a4 	lb	s0,164(zero)
bfc14dd4:	0000004c 	syscall	0x1
bfc14dd8:	00010012 	0x10012
bfc14ddc:	0000001a 	div	zero,zero,zero
bfc14de0:	801002d0 	lb	s0,720(zero)
bfc14de4:	00000000 	nop
bfc14de8:	fff10010 	0xfff10010
bfc14dec:	0000001e 	0x1e
bfc14df0:	80100000 	lb	s0,0(zero)
bfc14df4:	00000004 	sllv	zero,zero,zero
bfc14df8:	00010012 	0x10012
bfc14dfc:	00000025 	move	zero,zero
bfc14e00:	801000f0 	lb	s0,240(zero)
bfc14e04:	00000048 	0x48
bfc14e08:	00010012 	0x10012
bfc14e0c:	00000032 	0x32
bfc14e10:	80100140 	lb	s0,320(zero)
bfc14e14:	0000013c 	0x13c
bfc14e18:	00010012 	0x10012
bfc14e1c:	00000037 	0x37
bfc14e20:	80100050 	lb	s0,80(zero)
bfc14e24:	00000054 	0x54
bfc14e28:	00010012 	0x10012
bfc14e2c:	00000047 	0x47
bfc14e30:	80100010 	lb	s0,16(zero)
bfc14e34:	00000038 	0x38
bfc14e38:	00010012 	0x10012
bfc14e3c:	62696c00 	0x62696c00
bfc14e40:	4100632e 	bc0f	bfc2dafc <binary_user_C_start+0x7d64>
bfc14e44:	7300632e 	0x7300632e
bfc14e48:	61637379 	0x61637379
bfc14e4c:	705f6c6c 	0x705f6c6c
bfc14e50:	746e6972 	jalx	b1b9a5c8 <SCHED_N+0x21b9732c>
bfc14e54:	6e650066 	0x6e650066
bfc14e58:	735f0064 	0x735f0064
bfc14e5c:	74726174 	jalx	b1c985d0 <SCHED_N+0x21c95334>
bfc14e60:	73797300 	0x73797300
bfc14e64:	6c6c6163 	0x6c6c6163
bfc14e68:	6978655f 	0x6978655f
bfc14e6c:	616d0074 	0x616d0074
bfc14e70:	73006e69 	0x73006e69
bfc14e74:	61637379 	0x61637379
bfc14e78:	705f6c6c 	0x705f6c6c
bfc14e7c:	68637475 	0x68637475
bfc14e80:	70007261 	0x70007261
bfc14e84:	735f7364 	0x735f7364
bfc14e88:	61637379 	0x61637379
bfc14e8c:	ff006c6c 	0xff006c6c

bfc14e90 <binary_user_A_size>:
bfc14e90:	00010fb0 	0x10fb0

bfc14e94 <binary_user_B_start>:
bfc14e94:	464c457f 	c1	0x4c457f
bfc14e98:	00010101 	0x10101
	...
bfc14ea4:	00080002 	srl	zero,t0,0x0
bfc14ea8:	00000001 	0x1
bfc14eac:	80200000 	lb	zero,0(at)
bfc14eb0:	00000034 	0x34
bfc14eb4:	00010a24 	0x10a24
bfc14eb8:	00001001 	0x1001
bfc14ebc:	00200034 	0x200034
bfc14ec0:	00280002 	0x280002
bfc14ec4:	00100013 	0x100013
bfc14ec8:	70000000 	0x70000000
bfc14ecc:	00010210 	0x10210
bfc14ed0:	80200210 	lb	zero,528(at)
bfc14ed4:	80200210 	lb	zero,528(at)
bfc14ed8:	00000018 	mult	zero,zero
bfc14edc:	00000018 	mult	zero,zero
bfc14ee0:	00000004 	sllv	zero,zero,zero
bfc14ee4:	00000004 	sllv	zero,zero,zero
bfc14ee8:	00000001 	0x1
bfc14eec:	00010000 	sll	zero,at,0x0
bfc14ef0:	80200000 	lb	zero,0(at)
bfc14ef4:	80200000 	lb	zero,0(at)
bfc14ef8:	00000280 	sll	zero,zero,0xa
bfc14efc:	00000280 	sll	zero,zero,0xa
bfc14f00:	00000005 	0x5
bfc14f04:	00010000 	sll	zero,at,0x0
	...
bfc24e94:	08080050 	j	b0200140 <SCHED_N+0x201fcea4>
bfc24e98:	00000000 	nop
	...
bfc24ea4:	00801021 	move	v0,a0
bfc24ea8:	27bdffe0 	addiu	sp,sp,-32
bfc24eac:	afbf001c 	sw	ra,28(sp)
bfc24eb0:	afa40000 	sw	a0,0(sp)
bfc24eb4:	afa50004 	sw	a1,4(sp)
bfc24eb8:	afa60008 	sw	a2,8(sp)
bfc24ebc:	afa7000c 	sw	a3,12(sp)
bfc24ec0:	0000000c 	syscall
bfc24ec4:	8fbf001c 	lw	ra,28(sp)
bfc24ec8:	00000000 	nop
bfc24ecc:	27bd0020 	addiu	sp,sp,32
bfc24ed0:	03e00008 	jr	ra
bfc24ed4:	00000000 	nop
	...
bfc24ee4:	27bdffe0 	addiu	sp,sp,-32
bfc24ee8:	afbf001c 	sw	ra,28(sp)
bfc24eec:	afbe0018 	sw	s8,24(sp)
bfc24ef0:	03a0f021 	move	s8,sp
bfc24ef4:	00801021 	move	v0,a0
bfc24ef8:	a3c20020 	sb	v0,32(s8)
bfc24efc:	83c20020 	lb	v0,32(s8)
bfc24f00:	afa00010 	sw	zero,16(sp)
bfc24f04:	afa00014 	sw	zero,20(sp)
bfc24f08:	00002021 	move	a0,zero
bfc24f0c:	00402821 	move	a1,v0
bfc24f10:	00003021 	move	a2,zero
bfc24f14:	00003821 	move	a3,zero
bfc24f18:	0c080004 	jal	b0200010 <SCHED_N+0x201fcd74>
bfc24f1c:	00000000 	nop
bfc24f20:	03c0e821 	move	sp,s8
bfc24f24:	8fbf001c 	lw	ra,28(sp)
bfc24f28:	8fbe0018 	lw	s8,24(sp)
bfc24f2c:	27bd0020 	addiu	sp,sp,32
bfc24f30:	03e00008 	jr	ra
bfc24f34:	00000000 	nop
bfc24f38:	27bdffe0 	addiu	sp,sp,-32
bfc24f3c:	afbf001c 	sw	ra,28(sp)
bfc24f40:	afbe0018 	sw	s8,24(sp)
bfc24f44:	03a0f021 	move	s8,sp
bfc24f48:	afc40020 	sw	a0,32(s8)
bfc24f4c:	afa00010 	sw	zero,16(sp)
bfc24f50:	afa00014 	sw	zero,20(sp)
bfc24f54:	24040001 	li	a0,1
bfc24f58:	8fc50020 	lw	a1,32(s8)
bfc24f5c:	00003021 	move	a2,zero
bfc24f60:	00003821 	move	a3,zero
bfc24f64:	0c080004 	jal	b0200010 <SCHED_N+0x201fcd74>
bfc24f68:	00000000 	nop
bfc24f6c:	03c0e821 	move	sp,s8
bfc24f70:	8fbf001c 	lw	ra,28(sp)
bfc24f74:	8fbe0018 	lw	s8,24(sp)
bfc24f78:	27bd0020 	addiu	sp,sp,32
bfc24f7c:	03e00008 	jr	ra
bfc24f80:	00000000 	nop
bfc24f84:	27bdffe0 	addiu	sp,sp,-32
bfc24f88:	afbf001c 	sw	ra,28(sp)
bfc24f8c:	afbe0018 	sw	s8,24(sp)
bfc24f90:	03a0f021 	move	s8,sp
bfc24f94:	afa00010 	sw	zero,16(sp)
bfc24f98:	afa00014 	sw	zero,20(sp)
bfc24f9c:	24040002 	li	a0,2
bfc24fa0:	00002821 	move	a1,zero
bfc24fa4:	00003021 	move	a2,zero
bfc24fa8:	00003821 	move	a3,zero
bfc24fac:	0c080004 	jal	b0200010 <SCHED_N+0x201fcd74>
bfc24fb0:	00000000 	nop
bfc24fb4:	03c0e821 	move	sp,s8
bfc24fb8:	8fbf001c 	lw	ra,28(sp)
bfc24fbc:	8fbe0018 	lw	s8,24(sp)
bfc24fc0:	27bd0020 	addiu	sp,sp,32
bfc24fc4:	03e00008 	jr	ra
bfc24fc8:	00000000 	nop
	...
bfc24fd4:	27bdffe0 	addiu	sp,sp,-32
bfc24fd8:	afbf001c 	sw	ra,28(sp)
bfc24fdc:	afbe0018 	sw	s8,24(sp)
bfc24fe0:	03a0f021 	move	s8,sp
bfc24fe4:	afc00010 	sw	zero,16(s8)
bfc24fe8:	24021388 	li	v0,5000
bfc24fec:	afc20014 	sw	v0,20(s8)
bfc24ff0:	3c028020 	lui	v0,0x8020
bfc24ff4:	24440230 	addiu	a0,v0,560
bfc24ff8:	0c080029 	jal	b02000a4 <SCHED_N+0x201fce08>
bfc24ffc:	00000000 	nop
bfc25000:	0808006b 	j	b02001ac <SCHED_N+0x201fcf10>
bfc25004:	00000000 	nop
bfc25008:	3c028020 	lui	v0,0x8020
bfc2500c:	24440254 	addiu	a0,v0,596
bfc25010:	0c080029 	jal	b02000a4 <SCHED_N+0x201fce08>
bfc25014:	00000000 	nop
bfc25018:	8fc30010 	lw	v1,16(s8)
bfc2501c:	24020032 	li	v0,50
bfc25020:	0062001a 	div	zero,v1,v0
bfc25024:	00000000 	nop
bfc25028:	00001010 	mfhi	v0
bfc2502c:	14400004 	bnez	v0,bfc25040 <binary_user_B_start+0x101ac>
bfc25030:	00000000 	nop
bfc25034:	2404000a 	li	a0,10
bfc25038:	0c080014 	jal	b0200050 <SCHED_N+0x201fcdb4>
bfc2503c:	00000000 	nop
bfc25040:	8fc20010 	lw	v0,16(s8)
bfc25044:	00000000 	nop
bfc25048:	24420001 	addiu	v0,v0,1
bfc2504c:	afc20010 	sw	v0,16(s8)
bfc25050:	8fc30010 	lw	v1,16(s8)
bfc25054:	8fc20014 	lw	v0,20(s8)
bfc25058:	00000000 	nop
bfc2505c:	0043102a 	slt	v0,v0,v1
bfc25060:	1040ffe9 	beqz	v0,bfc25008 <binary_user_B_start+0x10174>
bfc25064:	00000000 	nop
bfc25068:	3c028020 	lui	v0,0x8020
bfc2506c:	24440258 	addiu	a0,v0,600
bfc25070:	0c080029 	jal	b02000a4 <SCHED_N+0x201fce08>
bfc25074:	00000000 	nop
bfc25078:	0c08003c 	jal	b02000f0 <SCHED_N+0x201fce54>
bfc2507c:	00000000 	nop
bfc25080:	00001021 	move	v0,zero
bfc25084:	03c0e821 	move	sp,s8
bfc25088:	8fbf001c 	lw	ra,28(sp)
bfc2508c:	8fbe0018 	lw	s8,24(sp)
bfc25090:	27bd0020 	addiu	sp,sp,32
bfc25094:	03e00008 	jr	ra
bfc25098:	00000000 	nop
	...
bfc250c4:	6c6c6548 	0x6c6c6548
bfc250c8:	55202c6f 	0x55202c6f
bfc250cc:	20726573 	addi	s2,v1,25971
bfc250d0:	20766e45 	addi	s6,v1,28229
bfc250d4:	73692032 	0x73692032
bfc250d8:	6e757220 	0x6e757220
bfc250dc:	676e696e 	0x676e696e
bfc250e0:	0a2e2e2e 	j	b8b8b8b8 <SCHED_N+0x28b8861c>
bfc250e4:	00000000 	nop
bfc250e8:	00000042 	srl	zero,zero,0x1
bfc250ec:	2c657942 	sltiu	a1,v1,31042
bfc250f0:	65735520 	0x65735520
bfc250f4:	6e452072 	0x6e452072
bfc250f8:	20322076 	addi	s2,at,8310
bfc250fc:	20646e65 	addi	a0,v1,28261
bfc25100:	6e6e7572 	0x6e6e7572
bfc25104:	2e676e69 	sltiu	a3,s3,28265
bfc25108:	000a2e2e 	0xa2e2e
	...
bfc25114:	80200000 	lb	zero,0(at)
	...
bfc2512c:	0000001d 	0x1d
bfc25130:	0000001f 	0x1f
bfc25134:	80200010 	lb	zero,16(at)
	...
bfc2514c:	0000001d 	0x1d
bfc25150:	0000001f 	0x1f
bfc25154:	80200050 	lb	zero,80(at)
bfc25158:	c0000000 	lwc0	$0,0(zero)
bfc2515c:	fffffffc 	0xfffffffc
	...
bfc25168:	00000020 	add	zero,zero,zero
bfc2516c:	0000001e 	0x1e
bfc25170:	0000001f 	0x1f
bfc25174:	802000a4 	lb	zero,164(at)
bfc25178:	c0000000 	lwc0	$0,0(zero)
bfc2517c:	fffffffc 	0xfffffffc
	...
bfc25188:	00000020 	add	zero,zero,zero
bfc2518c:	0000001e 	0x1e
bfc25190:	0000001f 	0x1f
bfc25194:	802000f0 	lb	zero,240(at)
bfc25198:	c0000000 	lwc0	$0,0(zero)
bfc2519c:	fffffffc 	0xfffffffc
	...
bfc251a8:	00000020 	add	zero,zero,zero
bfc251ac:	0000001e 	0x1e
bfc251b0:	0000001f 	0x1f
bfc251b4:	80200140 	lb	zero,320(at)
bfc251b8:	c0000000 	lwc0	$0,0(zero)
bfc251bc:	fffffffc 	0xfffffffc
	...
bfc251c8:	00000020 	add	zero,zero,zero
bfc251cc:	0000001e 	0x1e
bfc251d0:	0000001f 	0x1f
bfc251d4:	3a434347 	xori	v1,s2,0x4347
bfc251d8:	4e472820 	c3	0x472820
bfc251dc:	34202955 	ori	zero,at,0x2955
bfc251e0:	312e362e 	andi	t6,t1,0x362e
bfc251e4:	000f4100 	sll	t0,t7,0x4
bfc251e8:	6e670000 	0x6e670000
bfc251ec:	07010075 	bgez	t8,bfc253c4 <binary_user_B_start+0x10530>
bfc251f0:	04000000 	bltz	zero,bfc251f4 <binary_user_B_start+0x10360>
bfc251f4:	00000001 	0x1
bfc251f8:	00000001 	0x1
bfc251fc:	00170000 	sll	zero,s7,0x0
bfc25200:	00000056 	0x56
bfc25204:	00000001 	0x1
bfc25208:	00000064 	0x64
bfc2520c:	80200010 	lb	zero,16(at)
bfc25210:	00000011 	mthi	zero
bfc25214:	00000080 	sll	zero,zero,0x2
bfc25218:	00000000 	nop
bfc2521c:	0000001b 	divu	zero,zero,zero
bfc25220:	00090024 	and	zero,zero,t1
bfc25224:	80200000 	lb	zero,0(at)
bfc25228:	00000025 	move	zero,zero
bfc2522c:	00000084 	0x84
bfc25230:	80200000 	lb	zero,0(at)
bfc25234:	00000000 	nop
bfc25238:	00090044 	0x90044
	...
bfc25244:	00000024 	and	zero,zero,zero
bfc25248:	00000004 	sllv	zero,zero,zero
bfc2524c:	0000002d 	0x2d
bfc25250:	00000064 	0x64
bfc25254:	80200010 	lb	zero,16(at)
bfc25258:	00000011 	mthi	zero
bfc2525c:	00000080 	sll	zero,zero,0x2
bfc25260:	00000000 	nop
bfc25264:	0000003d 	0x3d
bfc25268:	00070024 	and	zero,zero,a3
bfc2526c:	80200010 	lb	zero,16(at)
bfc25270:	0000004c 	syscall	0x1
bfc25274:	00000084 	0x84
bfc25278:	80200010 	lb	zero,16(at)
bfc2527c:	00000000 	nop
bfc25280:	00070044 	0x70044
	...
bfc2528c:	00080044 	0x80044
bfc25290:	00000004 	sllv	zero,zero,zero
bfc25294:	00000000 	nop
bfc25298:	00090044 	0x90044
bfc2529c:	00000008 	jr	zero
bfc252a0:	00000000 	nop
bfc252a4:	000a0044 	0xa0044
bfc252a8:	0000000c 	syscall
bfc252ac:	00000000 	nop
bfc252b0:	000b0044 	0xb0044
bfc252b4:	00000010 	mfhi	zero
bfc252b8:	00000000 	nop
bfc252bc:	000c0044 	0xc0044
bfc252c0:	00000014 	0x14
bfc252c4:	00000000 	nop
bfc252c8:	000d0044 	0xd0044
bfc252cc:	00000018 	mult	zero,zero
bfc252d0:	00000000 	nop
bfc252d4:	000f0044 	0xf0044
bfc252d8:	0000001c 	0x1c
bfc252dc:	00000000 	nop
bfc252e0:	00110044 	0x110044
bfc252e4:	00000020 	add	zero,zero,zero
bfc252e8:	00000000 	nop
bfc252ec:	00120044 	0x120044
bfc252f0:	00000028 	0x28
bfc252f4:	00000000 	nop
bfc252f8:	00130044 	0x130044
bfc252fc:	0000002c 	0x2c
bfc25300:	00000000 	nop
bfc25304:	00140044 	0x140044
bfc25308:	00000034 	0x34
bfc2530c:	00000000 	nop
bfc25310:	00000024 	and	zero,zero,zero
bfc25314:	00000038 	0x38
bfc25318:	6d742f00 	0x6d742f00
bfc2531c:	63632f70 	0x63632f70
bfc25320:	35676d46 	ori	a3,t3,0x6d46
bfc25324:	732e6848 	0x732e6848
bfc25328:	696f7600 	0x696f7600
bfc2532c:	31743a64 	andi	s4,t3,0x3a64
bfc25330:	5f00313d 	0x5f00313d
bfc25334:	72617473 	0x72617473
bfc25338:	31463a74 	andi	a2,t2,0x3a74
bfc2533c:	61747300 	0x61747300
bfc25340:	532e7472 	0x532e7472
bfc25344:	6d742f00 	0x6d742f00
bfc25348:	63632f70 	0x63632f70
bfc2534c:	62374249 	0x62374249
bfc25350:	732e7444 	0x732e7444
bfc25354:	73647000 	0x73647000
bfc25358:	7379735f 	0x7379735f
bfc2535c:	6c6c6163 	0x6c6c6163
bfc25360:	0031463a 	0x31463a
bfc25364:	63737973 	0x63737973
bfc25368:	2e6c6c61 	sltiu	t4,s3,27745
bfc2536c:	00c70053 	0xc70053
bfc25370:	00020000 	sll	zero,v0,0x0
bfc25374:	00000000 	nop
bfc25378:	00280104 	0x280104
bfc2537c:	70010000 	0x70010000
bfc25380:	34000000 	li	zero,0x0
bfc25384:	50000000 	0x50000000
bfc25388:	38802000 	xori	zero,a0,0x2000
bfc2538c:	00802001 	0x802001
bfc25390:	02000000 	0x2000000
bfc25394:	00006001 	0x6001
bfc25398:	01030100 	0x1030100
bfc2539c:	80200050 	lb	zero,80(at)
bfc253a0:	802000a4 	lb	zero,164(at)
bfc253a4:	00000000 	nop
bfc253a8:	0000005b 	0x5b
bfc253ac:	00686303 	0x686303
bfc253b0:	005b0301 	0x5b0301
bfc253b4:	91020000 	lbu	v0,0(t0)
bfc253b8:	00010400 	sll	zero,at,0x10
bfc253bc:	01000000 	0x1000000
bfc253c0:	00006205 	0x6205
bfc253c4:	00050100 	sll	zero,a1,0x4
bfc253c8:	06010600 	bgez	s0,bfc26bcc <binary_user_C_start+0xe34>
bfc253cc:	0000006b 	0x6b
bfc253d0:	69050407 	0x69050407
bfc253d4:	0200746e 	0x200746e
bfc253d8:	00001901 	0x1901
bfc253dc:	01080100 	0x1080100
bfc253e0:	802000a4 	lb	zero,164(at)
bfc253e4:	802000f0 	lb	zero,240(at)
bfc253e8:	0000002c 	0x2c
bfc253ec:	000000a0 	0xa0
bfc253f0:	746d6603 	jalx	b1b5980c <SCHED_N+0x21b56570>
bfc253f4:	a0080100 	sb	t0,256(zero)
bfc253f8:	02000000 	0x2000000
bfc253fc:	01040091 	0x1040091
bfc25400:	00000000 	nop
bfc25404:	00620501 	0x620501
bfc25408:	05010000 	bgez	t0,bfc2540c <binary_user_B_start+0x10578>
bfc2540c:	04080000 	0x4080000
bfc25410:	0000005b 	0x5b
bfc25414:	000c0109 	0xc0109
bfc25418:	0d010000 	jal	b4040000 <SCHED_N+0x2403cd64>
bfc2541c:	802000f0 	lb	zero,240(at)
bfc25420:	80200138 	lb	zero,312(at)
bfc25424:	00000058 	0x58
bfc25428:	00000104 	0x104
bfc2542c:	05010000 	bgez	t0,bfc25430 <binary_user_B_start+0x1059c>
bfc25430:	00000062 	0x62
bfc25434:	00000501 	0x501
bfc25438:	00006700 	sll	t4,zero,0x1c
bfc2543c:	82000200 	lb	zero,512(s0)
bfc25440:	04000000 	bltz	zero,bfc25444 <binary_user_B_start+0x105b0>
bfc25444:	00002801 	0x2801
bfc25448:	2e420100 	sltiu	v0,s2,256
bfc2544c:	00340063 	0x340063
bfc25450:	01400000 	0x1400000
bfc25454:	02088020 	add	s0,s0,t0
bfc25458:	00438020 	add	s0,v0,v1
bfc2545c:	01020000 	0x1020000
bfc25460:	00000076 	0x76
bfc25464:	00630301 	0x630301
bfc25468:	01400000 	0x1400000
bfc2546c:	02088020 	add	s0,s0,t0
bfc25470:	00848020 	add	s0,a0,a0
bfc25474:	00630000 	0x630000
bfc25478:	69030000 	0x69030000
bfc2547c:	63050100 	0x63050100
bfc25480:	02000000 	0x2000000
bfc25484:	6a047091 	0x6a047091
bfc25488:	63050100 	0x63050100
bfc2548c:	03000000 	0x3000000
bfc25490:	0501006e 	bgez	t0,bfc2564c <binary_user_B_start+0x107b8>
bfc25494:	00000063 	0x63
bfc25498:	00749102 	0x749102
bfc2549c:	69050405 	0x69050405
bfc254a0:	0000746e 	0x746e
bfc254a4:	25011101 	addiu	at,t0,4353
bfc254a8:	030b130e 	0x30b130e
bfc254ac:	110e1b0e 	beq	t0,t6,bfc2c0e8 <binary_user_C_start+0x6350>
bfc254b0:	10011201 	beq	zero,at,bfc29cb8 <binary_user_C_start+0x3f20>
bfc254b4:	02000006 	srlv	zero,zero,s0
bfc254b8:	0c3f012e 	jal	b0fc04b8 <SCHED_N+0x20fbd21c>
bfc254bc:	0b3a0e03 	j	bce8380c <SCHED_N+0x2ce80570>
bfc254c0:	0c270b3b 	jal	b09c2cec <SCHED_N+0x209bfa50>
bfc254c4:	01120111 	0x1120111
bfc254c8:	13010640 	beq	t8,at,bfc26dcc <binary_user_C_start+0x1034>
bfc254cc:	05030000 	0x5030000
bfc254d0:	3a080300 	xori	t0,s0,0x300
bfc254d4:	490b3b0b 	0x490b3b0b
bfc254d8:	000a0213 	0xa0213
bfc254dc:	012e0400 	0x12e0400
bfc254e0:	0e030c3f 	jal	b80c30fc <SCHED_N+0x280bfe60>
bfc254e4:	0b3b0b3a 	j	bcec2ce8 <SCHED_N+0x2cebfa4c>
bfc254e8:	0c3c1349 	jal	b0f04d24 <SCHED_N+0x20f01a88>
bfc254ec:	18050000 	0x18050000
bfc254f0:	06000000 	bltz	s0,bfc254f4 <binary_user_B_start+0x10660>
bfc254f4:	0b0b0024 	j	bc2c0090 <SCHED_N+0x2c2bcdf4>
bfc254f8:	0e030b3e 	jal	b80c2cf8 <SCHED_N+0x280bfa5c>
bfc254fc:	24070000 	li	a3,0
bfc25500:	3e0b0b00 	0x3e0b0b00
bfc25504:	0008030b 	0x8030b
bfc25508:	000f0800 	sll	at,t7,0x0
bfc2550c:	13490b0b 	beq	k0,t1,bfc2813c <binary_user_C_start+0x23a4>
bfc25510:	2e090000 	sltiu	t1,s0,0
bfc25514:	030c3f01 	0x30c3f01
bfc25518:	3b0b3a0e 	xori	t3,t8,0x3a0e
bfc2551c:	1201110b 	beq	s0,at,bfc2994c <binary_user_C_start+0x3bb4>
bfc25520:	00064001 	0x64001
bfc25524:	11010000 	beq	t0,at,bfc25528 <binary_user_B_start+0x10694>
bfc25528:	130e2501 	beq	t8,t6,bfc2e930 <binary_user_C_start+0x8b98>
bfc2552c:	1b08030b 	0x1b08030b
bfc25530:	1201110e 	beq	s0,at,bfc2996c <binary_user_C_start+0x3bd4>
bfc25534:	00061001 	0x61001
bfc25538:	012e0200 	0x12e0200
bfc2553c:	0e030c3f 	jal	b80c30fc <SCHED_N+0x280bfe60>
bfc25540:	0b3b0b3a 	j	bcec2ce8 <SCHED_N+0x2cebfa4c>
bfc25544:	01111349 	0x1111349
bfc25548:	06400112 	bltz	s2,bfc25994 <binary_user_B_start+0x10b00>
bfc2554c:	00001301 	0x1301
bfc25550:	03003403 	0x3003403
bfc25554:	3b0b3a08 	xori	t3,t8,0x3a08
bfc25558:	0213490b 	0x213490b
bfc2555c:	0400000a 	bltz	zero,bfc25588 <binary_user_B_start+0x106f4>
bfc25560:	08030034 	j	b00c00d0 <SCHED_N+0x200bce34>
bfc25564:	0b3b0b3a 	j	bcec2ce8 <SCHED_N+0x2cebfa4c>
bfc25568:	00001349 	0x1349
bfc2556c:	0b002405 	j	bc009014 <SCHED_N+0x2c005d78>
bfc25570:	030b3e0b 	0x30b3e0b
bfc25574:	00000008 	jr	zero
bfc25578:	00000000 	nop
bfc2557c:	00000004 	sllv	zero,zero,zero
bfc25580:	008d0002 	0x8d0002
bfc25584:	00000004 	sllv	zero,zero,zero
bfc25588:	00000010 	mfhi	zero
bfc2558c:	208d0002 	addi	t5,a0,2
bfc25590:	00000010 	mfhi	zero
bfc25594:	00000054 	0x54
bfc25598:	208e0002 	addi	t6,a0,2
	...
bfc255a4:	00000054 	0x54
bfc255a8:	00000058 	0x58
bfc255ac:	008d0002 	0x8d0002
bfc255b0:	00000058 	0x58
bfc255b4:	00000064 	0x64
bfc255b8:	208d0002 	addi	t5,a0,2
bfc255bc:	00000064 	0x64
bfc255c0:	000000a0 	0xa0
bfc255c4:	208e0002 	addi	t6,a0,2
	...
bfc255d0:	000000a0 	0xa0
bfc255d4:	000000a4 	0xa4
bfc255d8:	008d0002 	0x8d0002
bfc255dc:	000000a4 	0xa4
bfc255e0:	000000b0 	0xb0
bfc255e4:	208d0002 	addi	t5,a0,2
bfc255e8:	000000b0 	0xb0
bfc255ec:	000000e8 	0xe8
bfc255f0:	208e0002 	addi	t6,a0,2
	...
bfc25600:	00000004 	sllv	zero,zero,zero
bfc25604:	008d0002 	0x8d0002
bfc25608:	00000004 	sllv	zero,zero,zero
bfc2560c:	00000010 	mfhi	zero
bfc25610:	208d0002 	addi	t5,a0,2
bfc25614:	00000010 	mfhi	zero
bfc25618:	000000c8 	0xc8
bfc2561c:	208e0002 	addi	t6,a0,2
	...
bfc25628:	0000001c 	0x1c
bfc2562c:	00000002 	srl	zero,zero,0x0
bfc25630:	00040000 	sll	zero,a0,0x0
bfc25634:	00000000 	nop
bfc25638:	80200050 	lb	zero,80(at)
bfc2563c:	000000e8 	0xe8
	...
bfc25648:	0000001c 	0x1c
bfc2564c:	00cb0002 	0xcb0002
bfc25650:	00040000 	sll	zero,a0,0x0
bfc25654:	00000000 	nop
bfc25658:	80200140 	lb	zero,320(at)
bfc2565c:	000000c8 	0xc8
	...
bfc25668:	0000003f 	0x3f
bfc2566c:	001c0002 	srl	zero,gp,0x0
bfc25670:	01010000 	0x1010000
bfc25674:	000d0efb 	0xd0efb
bfc25678:	01010101 	0x1010101
bfc2567c:	01000000 	0x1000000
bfc25680:	00010000 	sll	zero,at,0x0
bfc25684:	2e62696c 	sltiu	v0,s3,26988
bfc25688:	00000063 	0x63
bfc2568c:	05000000 	bltz	t0,bfc25690 <binary_user_B_start+0x107fc>
bfc25690:	20005002 	addi	zero,zero,20482
bfc25694:	75081580 	jalx	b4205600 <SCHED_N+0x24202364>
bfc25698:	08132402 	j	b04c9008 <SCHED_N+0x204c5d6c>
bfc2569c:	083d0877 	j	b0f421dc <SCHED_N+0x20f3ef40>
bfc256a0:	f37708e5 	0xf37708e5
bfc256a4:	1802e508 	0x1802e508
bfc256a8:	45010100 	bc1t	bfc25aac <binary_user_B_start+0x10c18>
bfc256ac:	02000000 	0x2000000
bfc256b0:	00001a00 	sll	v1,zero,0x8
bfc256b4:	fb010100 	0xfb010100
bfc256b8:	01000d0e 	0x1000d0e
bfc256bc:	00010101 	0x10101
bfc256c0:	00010000 	sll	zero,at,0x0
bfc256c4:	42000100 	c0	0x100
bfc256c8:	0000632e 	0x632e
bfc256cc:	00000000 	nop
bfc256d0:	01400205 	0x1400205
bfc256d4:	f3158020 	0xf3158020
bfc256d8:	f384f3bc 	0xf384f3bc
bfc256dc:	01040200 	0x1040200
bfc256e0:	00ac0806 	srlv	at,t4,a1
bfc256e4:	06010402 	bgez	s0,bfc266f0 <binary_user_C_start+0x958>
bfc256e8:	182802b7 	0x182802b7
bfc256ec:	024b84f4 	0x24b84f4
bfc256f0:	01010018 	mult	t0,at
bfc256f4:	5f736470 	0x5f736470
bfc256f8:	63737973 	0x63737973
bfc256fc:	006c6c61 	0x6c6c61
bfc25700:	63737973 	0x63737973
bfc25704:	5f6c6c61 	0x5f6c6c61
bfc25708:	74697865 	jalx	b1a5e194 <SCHED_N+0x21a5aef8>
bfc2570c:	73797300 	0x73797300
bfc25710:	6c6c6163 	0x6c6c6163
bfc25714:	6972705f 	0x6972705f
bfc25718:	0066746e 	0x66746e
bfc2571c:	20554e47 	addi	s5,v0,20039
bfc25720:	2e342043 	sltiu	s4,s1,8259
bfc25724:	00312e36 	0x312e36
bfc25728:	6d6f682f 	0x6d6f682f
bfc2572c:	64702f65 	0x64702f65
bfc25730:	6f572f73 	0x6f572f73
bfc25734:	4d2f6b72 	0x4d2f6b72
bfc25738:	2f535049 	sltiu	s3,k0,20553
bfc2573c:	4f434f43 	c3	0x1434f43
bfc25740:	494d2f41 	0x494d2f41
bfc25744:	4f5f5350 	c3	0x15f5350
bfc25748:	752f3253 	jalx	b4bcc94c <SCHED_N+0x24bc96b0>
bfc2574c:	2f726573 	sltiu	s2,k1,25971
bfc25750:	00637273 	0x637273
bfc25754:	63737973 	0x63737973
bfc25758:	5f6c6c61 	0x5f6c6c61
bfc2575c:	63747570 	0x63747570
bfc25760:	00726168 	0x726168
bfc25764:	2e62696c 	sltiu	v0,s3,26988
bfc25768:	616d0063 	0x616d0063
bfc2576c:	00006e69 	0x6e69
bfc25770:	0000000c 	syscall
bfc25774:	ffffffff 	0xffffffff
bfc25778:	7c010001 	0x7c010001
bfc2577c:	001d0d1f 	0x1d0d1f
bfc25780:	00000018 	mult	zero,zero
bfc25784:	00000000 	nop
bfc25788:	80200050 	lb	zero,80(at)
bfc2578c:	00000054 	0x54
bfc25790:	4c200e44 	0x4c200e44
bfc25794:	019f029e 	0x19f029e
bfc25798:	00001e0d 	break	0x0,0x78
bfc2579c:	00000018 	mult	zero,zero
bfc257a0:	00000000 	nop
bfc257a4:	802000a4 	lb	zero,164(at)
bfc257a8:	0000004c 	syscall	0x1
bfc257ac:	4c200e44 	0x4c200e44
bfc257b0:	019f029e 	0x19f029e
bfc257b4:	00001e0d 	break	0x0,0x78
bfc257b8:	00000018 	mult	zero,zero
bfc257bc:	00000000 	nop
bfc257c0:	802000f0 	lb	zero,240(at)
bfc257c4:	00000048 	0x48
bfc257c8:	4c200e44 	0x4c200e44
bfc257cc:	019f029e 	0x19f029e
bfc257d0:	00001e0d 	break	0x0,0x78
bfc257d4:	0000000c 	syscall
bfc257d8:	ffffffff 	0xffffffff
bfc257dc:	7c010001 	0x7c010001
bfc257e0:	001d0d1f 	0x1d0d1f
bfc257e4:	00000018 	mult	zero,zero
bfc257e8:	00000064 	0x64
bfc257ec:	80200140 	lb	zero,320(at)
bfc257f0:	000000c8 	0xc8
bfc257f4:	4c200e44 	0x4c200e44
bfc257f8:	019f029e 	0x19f029e
bfc257fc:	00001e0d 	break	0x0,0x78
bfc25800:	79732e00 	0x79732e00
bfc25804:	6261746d 	0x6261746d
bfc25808:	74732e00 	jalx	b1ccb800 <SCHED_N+0x21cc8564>
bfc2580c:	62617472 	0x62617472
bfc25810:	68732e00 	0x68732e00
bfc25814:	74727473 	jalx	b1c9d1cc <SCHED_N+0x21c99f30>
bfc25818:	2e006261 	sltiu	zero,s0,25185
bfc2581c:	74786574 	jalx	b1e195d0 <SCHED_N+0x21e16334>
bfc25820:	65722e00 	0x65722e00
bfc25824:	666e6967 	0x666e6967
bfc25828:	722e006f 	0x722e006f
bfc2582c:	7461646f 	jalx	b18591bc <SCHED_N+0x21855f20>
bfc25830:	702e0061 	0x702e0061
bfc25834:	2e007264 	sltiu	zero,s0,29284
bfc25838:	6d6d6f63 	0x6d6d6f63
bfc2583c:	00746e65 	0x746e65
bfc25840:	756e672e 	jalx	b5b99cb8 <SCHED_N+0x25b96a1c>
bfc25844:	7474612e 	jalx	b1d184b8 <SCHED_N+0x21d1521c>
bfc25848:	75626972 	jalx	b589a5c8 <SCHED_N+0x2589732c>
bfc2584c:	00736574 	0x736574
bfc25850:	6174732e 	0x6174732e
bfc25854:	732e0062 	0x732e0062
bfc25858:	73626174 	0x73626174
bfc2585c:	2e007274 	sltiu	zero,s0,29300
bfc25860:	75626564 	jalx	b5899590 <SCHED_N+0x258962f4>
bfc25864:	6e695f67 	0x6e695f67
bfc25868:	2e006f66 	sltiu	zero,s0,28518
bfc2586c:	75626564 	jalx	b5899590 <SCHED_N+0x258962f4>
bfc25870:	62615f67 	0x62615f67
bfc25874:	76657262 	jalx	b995c988 <SCHED_N+0x299596ec>
bfc25878:	65642e00 	0x65642e00
bfc2587c:	5f677562 	0x5f677562
bfc25880:	00636f6c 	0x636f6c
bfc25884:	6265642e 	0x6265642e
bfc25888:	615f6775 	0x615f6775
bfc2588c:	676e6172 	0x676e6172
bfc25890:	2e007365 	sltiu	zero,s0,29541
bfc25894:	75626564 	jalx	b5899590 <SCHED_N+0x258962f4>
bfc25898:	696c5f67 	0x696c5f67
bfc2589c:	2e00656e 	sltiu	zero,s0,25966
bfc258a0:	75626564 	jalx	b5899590 <SCHED_N+0x258962f4>
bfc258a4:	74735f67 	jalx	b1cd7d9c <SCHED_N+0x21cd4b00>
bfc258a8:	642e0072 	0x642e0072
bfc258ac:	67756265 	0x67756265
bfc258b0:	6172665f 	0x6172665f
bfc258b4:	0000656d 	0x656d
	...
bfc258e0:	0000001b 	divu	zero,zero,zero
bfc258e4:	00000001 	0x1
bfc258e8:	00000006 	srlv	zero,zero,zero
bfc258ec:	80200000 	lb	zero,0(at)
bfc258f0:	00010000 	sll	zero,at,0x0
bfc258f4:	00000210 	0x210
	...
bfc25900:	00000010 	mfhi	zero
bfc25904:	00000000 	nop
bfc25908:	00000021 	move	zero,zero
bfc2590c:	70000006 	0x70000006
bfc25910:	00000002 	srl	zero,zero,0x0
bfc25914:	80200210 	lb	zero,528(at)
bfc25918:	00010210 	0x10210
bfc2591c:	00000018 	mult	zero,zero
	...
bfc25928:	00000004 	sllv	zero,zero,zero
bfc2592c:	00000018 	mult	zero,zero
bfc25930:	0000002a 	slt	zero,zero,zero
bfc25934:	00000001 	0x1
bfc25938:	00000002 	srl	zero,zero,0x0
bfc2593c:	80200230 	lb	zero,560(at)
bfc25940:	00010230 	0x10230
bfc25944:	00000050 	0x50
	...
bfc25950:	00000010 	mfhi	zero
bfc25954:	00000000 	nop
bfc25958:	00000032 	0x32
bfc2595c:	00000001 	0x1
	...
bfc25968:	00010280 	sll	zero,at,0xa
bfc2596c:	000000c0 	ehb
	...
bfc25978:	00000004 	sllv	zero,zero,zero
bfc2597c:	00000000 	nop
bfc25980:	00000037 	0x37
bfc25984:	00000001 	0x1
bfc25988:	00000030 	0x30
bfc2598c:	00000000 	nop
bfc25990:	00010340 	sll	zero,at,0xd
bfc25994:	00000011 	mthi	zero
	...
bfc259a0:	00000001 	0x1
bfc259a4:	00000001 	0x1
bfc259a8:	00000040 	ssnop
bfc259ac:	6ffffff5 	0x6ffffff5
	...
bfc259b8:	00010351 	0x10351
bfc259bc:	00000010 	mfhi	zero
	...
bfc259c8:	00000001 	0x1
bfc259cc:	00000000 	nop
bfc259d0:	00000050 	0x50
bfc259d4:	00000001 	0x1
	...
bfc259e0:	00010364 	0x10364
bfc259e4:	00000120 	0x120
bfc259e8:	00000008 	jr	zero
bfc259ec:	00000000 	nop
bfc259f0:	00000004 	sllv	zero,zero,zero
bfc259f4:	0000000c 	syscall
bfc259f8:	00000056 	0x56
bfc259fc:	00000003 	sra	zero,zero,0x0
	...
bfc25a08:	00010484 	0x10484
bfc25a0c:	00000056 	0x56
	...
bfc25a18:	00000001 	0x1
bfc25a1c:	00000000 	nop
bfc25a20:	0000005f 	0x5f
bfc25a24:	7000001e 	0x7000001e
	...
bfc25a30:	000104da 	0x104da
bfc25a34:	00000136 	0x136
	...
bfc25a40:	00000001 	0x1
bfc25a44:	00000000 	nop
bfc25a48:	0000006b 	0x6b
bfc25a4c:	7000001e 	0x7000001e
	...
bfc25a58:	00010610 	0x10610
bfc25a5c:	000000d4 	0xd4
	...
bfc25a68:	00000001 	0x1
bfc25a6c:	00000000 	nop
bfc25a70:	00000079 	0x79
bfc25a74:	7000001e 	0x7000001e
	...
bfc25a80:	000106e4 	0x106e4
bfc25a84:	000000b0 	0xb0
	...
bfc25a90:	00000001 	0x1
bfc25a94:	00000000 	nop
bfc25a98:	00000084 	0x84
bfc25a9c:	7000001e 	0x7000001e
	...
bfc25aa8:	00010794 	0x10794
bfc25aac:	00000040 	ssnop
	...
bfc25ab8:	00000001 	0x1
bfc25abc:	00000000 	nop
bfc25ac0:	00000093 	0x93
bfc25ac4:	7000001e 	0x7000001e
	...
bfc25ad0:	000107d4 	0x107d4
bfc25ad4:	0000008c 	syscall	0x2
	...
bfc25ae0:	00000001 	0x1
bfc25ae4:	00000000 	nop
bfc25ae8:	0000009f 	0x9f
bfc25aec:	7000001e 	0x7000001e
bfc25af0:	00000030 	0x30
bfc25af4:	00000000 	nop
bfc25af8:	00010860 	0x10860
bfc25afc:	0000007b 	0x7b
	...
bfc25b08:	00000001 	0x1
bfc25b0c:	00000001 	0x1
bfc25b10:	000000aa 	0xaa
bfc25b14:	7000001e 	0x7000001e
	...
bfc25b20:	000108dc 	0x108dc
bfc25b24:	00000090 	0x90
	...
bfc25b30:	00000004 	sllv	zero,zero,zero
bfc25b34:	00000000 	nop
bfc25b38:	00000011 	mthi	zero
bfc25b3c:	00000003 	sra	zero,zero,0x0
	...
bfc25b48:	0001096c 	0x1096c
bfc25b4c:	000000b7 	0xb7
	...
bfc25b58:	00000001 	0x1
bfc25b5c:	00000000 	nop
bfc25b60:	00000001 	0x1
bfc25b64:	00000002 	srl	zero,zero,0x0
	...
bfc25b70:	00010d1c 	0x10d1c
bfc25b74:	00000190 	0x190
bfc25b78:	00000012 	mflo	zero
bfc25b7c:	00000012 	mflo	zero
bfc25b80:	00000004 	sllv	zero,zero,zero
bfc25b84:	00000010 	mfhi	zero
bfc25b88:	00000009 	jalr	zero,zero
bfc25b8c:	00000003 	sra	zero,zero,0x0
	...
bfc25b98:	00010eac 	0x10eac
bfc25b9c:	00000053 	0x53
	...
bfc25ba8:	00000001 	0x1
	...
bfc25bc4:	80200000 	lb	zero,0(at)
bfc25bc8:	00000000 	nop
bfc25bcc:	00010003 	sra	zero,at,0x0
bfc25bd0:	00000000 	nop
bfc25bd4:	80200210 	lb	zero,528(at)
bfc25bd8:	00000000 	nop
bfc25bdc:	00020003 	sra	zero,v0,0x0
bfc25be0:	00000000 	nop
bfc25be4:	80200230 	lb	zero,560(at)
bfc25be8:	00000000 	nop
bfc25bec:	00030003 	sra	zero,v1,0x0
	...
bfc25bfc:	00040003 	sra	zero,a0,0x0
	...
bfc25c0c:	00050003 	sra	zero,a1,0x0
	...
bfc25c1c:	00060003 	sra	zero,a2,0x0
	...
bfc25c2c:	00070003 	sra	zero,a3,0x0
	...
bfc25c3c:	00080003 	sra	zero,t0,0x0
	...
bfc25c4c:	00090003 	sra	zero,t1,0x0
	...
bfc25c5c:	000a0003 	sra	zero,t2,0x0
	...
bfc25c6c:	000b0003 	sra	zero,t3,0x0
	...
bfc25c7c:	000c0003 	sra	zero,t4,0x0
	...
bfc25c8c:	000d0003 	sra	zero,t5,0x0
	...
bfc25c9c:	000e0003 	sra	zero,t6,0x0
	...
bfc25cac:	000f0003 	sra	zero,t7,0x0
bfc25cb0:	00000001 	0x1
	...
bfc25cbc:	fff10004 	0xfff10004
bfc25cc0:	00000007 	srav	zero,zero,zero
	...
bfc25ccc:	fff10004 	0xfff10004
bfc25cd0:	0000000b 	0xb
bfc25cd4:	802000a4 	lb	zero,164(at)
bfc25cd8:	0000004c 	syscall	0x1
bfc25cdc:	00010012 	0x10012
bfc25ce0:	0000001a 	div	zero,zero,zero
bfc25ce4:	80200280 	lb	zero,640(at)
bfc25ce8:	00000000 	nop
bfc25cec:	fff10010 	0xfff10010
bfc25cf0:	0000001e 	0x1e
bfc25cf4:	80200000 	lb	zero,0(at)
bfc25cf8:	00000004 	sllv	zero,zero,zero
bfc25cfc:	00010012 	0x10012
bfc25d00:	00000025 	move	zero,zero
bfc25d04:	802000f0 	lb	zero,240(at)
bfc25d08:	00000048 	0x48
bfc25d0c:	00010012 	0x10012
bfc25d10:	00000032 	0x32
bfc25d14:	80200140 	lb	zero,320(at)
bfc25d18:	000000c8 	0xc8
bfc25d1c:	00010012 	0x10012
bfc25d20:	00000037 	0x37
bfc25d24:	80200050 	lb	zero,80(at)
bfc25d28:	00000054 	0x54
bfc25d2c:	00010012 	0x10012
bfc25d30:	00000047 	0x47
bfc25d34:	80200010 	lb	zero,16(at)
bfc25d38:	00000038 	0x38
bfc25d3c:	00010012 	0x10012
bfc25d40:	62696c00 	0x62696c00
bfc25d44:	4200632e 	c0	0x632e
bfc25d48:	7300632e 	0x7300632e
bfc25d4c:	61637379 	0x61637379
bfc25d50:	705f6c6c 	0x705f6c6c
bfc25d54:	746e6972 	jalx	b1b9a5c8 <SCHED_N+0x21b9732c>
bfc25d58:	6e650066 	0x6e650066
bfc25d5c:	735f0064 	0x735f0064
bfc25d60:	74726174 	jalx	b1c985d0 <SCHED_N+0x21c95334>
bfc25d64:	73797300 	0x73797300
bfc25d68:	6c6c6163 	0x6c6c6163
bfc25d6c:	6978655f 	0x6978655f
bfc25d70:	616d0074 	0x616d0074
bfc25d74:	73006e69 	0x73006e69
bfc25d78:	61637379 	0x61637379
bfc25d7c:	705f6c6c 	0x705f6c6c
bfc25d80:	68637475 	0x68637475
bfc25d84:	70007261 	0x70007261
bfc25d88:	735f7364 	0x735f7364
bfc25d8c:	61637379 	0x61637379
bfc25d90:	ff006c6c 	0xff006c6c

bfc25d94 <binary_user_B_size>:
bfc25d94:	00010f00 	sll	at,at,0x1c

bfc25d98 <binary_user_C_start>:
bfc25d98:	464c457f 	c1	0x4c457f
bfc25d9c:	00010101 	0x10101
	...
bfc25da8:	00080002 	srl	zero,t0,0x0
bfc25dac:	00000001 	0x1
bfc25db0:	80300000 	lb	s0,0(at)
bfc25db4:	00000034 	0x34
bfc25db8:	00010a10 	0x10a10
bfc25dbc:	00001001 	0x1001
bfc25dc0:	00200034 	0x200034
bfc25dc4:	00280002 	0x280002
bfc25dc8:	00100013 	0x100013
bfc25dcc:	70000000 	0x70000000
bfc25dd0:	00010210 	0x10210
bfc25dd4:	80300210 	lb	s0,528(at)
bfc25dd8:	80300210 	lb	s0,528(at)
bfc25ddc:	00000018 	mult	zero,zero
bfc25de0:	00000018 	mult	zero,zero
bfc25de4:	00000004 	sllv	zero,zero,zero
bfc25de8:	00000004 	sllv	zero,zero,zero
bfc25dec:	00000001 	0x1
bfc25df0:	00010000 	sll	zero,at,0x0
bfc25df4:	80300000 	lb	s0,0(at)
bfc25df8:	80300000 	lb	s0,0(at)
bfc25dfc:	00000280 	sll	zero,zero,0xa
bfc25e00:	00000280 	sll	zero,zero,0xa
bfc25e04:	00000005 	0x5
bfc25e08:	00010000 	sll	zero,at,0x0
	...
bfc35d98:	080c0050 	j	b0300140 <SCHED_N+0x202fcea4>
bfc35d9c:	00000000 	nop
	...
bfc35da8:	00801021 	move	v0,a0
bfc35dac:	27bdffe0 	addiu	sp,sp,-32
bfc35db0:	afbf001c 	sw	ra,28(sp)
bfc35db4:	afa40000 	sw	a0,0(sp)
bfc35db8:	afa50004 	sw	a1,4(sp)
bfc35dbc:	afa60008 	sw	a2,8(sp)
bfc35dc0:	afa7000c 	sw	a3,12(sp)
bfc35dc4:	0000000c 	syscall
bfc35dc8:	8fbf001c 	lw	ra,28(sp)
bfc35dcc:	00000000 	nop
bfc35dd0:	27bd0020 	addiu	sp,sp,32
bfc35dd4:	03e00008 	jr	ra
bfc35dd8:	00000000 	nop
	...
bfc35de8:	27bdffe0 	addiu	sp,sp,-32
bfc35dec:	afbf001c 	sw	ra,28(sp)
bfc35df0:	afbe0018 	sw	s8,24(sp)
bfc35df4:	03a0f021 	move	s8,sp
bfc35df8:	00801021 	move	v0,a0
bfc35dfc:	a3c20020 	sb	v0,32(s8)
bfc35e00:	83c20020 	lb	v0,32(s8)
bfc35e04:	afa00010 	sw	zero,16(sp)
bfc35e08:	afa00014 	sw	zero,20(sp)
bfc35e0c:	00002021 	move	a0,zero
bfc35e10:	00402821 	move	a1,v0
bfc35e14:	00003021 	move	a2,zero
bfc35e18:	00003821 	move	a3,zero
bfc35e1c:	0c0c0004 	jal	b0300010 <SCHED_N+0x202fcd74>
bfc35e20:	00000000 	nop
bfc35e24:	03c0e821 	move	sp,s8
bfc35e28:	8fbf001c 	lw	ra,28(sp)
bfc35e2c:	8fbe0018 	lw	s8,24(sp)
bfc35e30:	27bd0020 	addiu	sp,sp,32
bfc35e34:	03e00008 	jr	ra
bfc35e38:	00000000 	nop
bfc35e3c:	27bdffe0 	addiu	sp,sp,-32
bfc35e40:	afbf001c 	sw	ra,28(sp)
bfc35e44:	afbe0018 	sw	s8,24(sp)
bfc35e48:	03a0f021 	move	s8,sp
bfc35e4c:	afc40020 	sw	a0,32(s8)
bfc35e50:	afa00010 	sw	zero,16(sp)
bfc35e54:	afa00014 	sw	zero,20(sp)
bfc35e58:	24040001 	li	a0,1
bfc35e5c:	8fc50020 	lw	a1,32(s8)
bfc35e60:	00003021 	move	a2,zero
bfc35e64:	00003821 	move	a3,zero
bfc35e68:	0c0c0004 	jal	b0300010 <SCHED_N+0x202fcd74>
bfc35e6c:	00000000 	nop
bfc35e70:	03c0e821 	move	sp,s8
bfc35e74:	8fbf001c 	lw	ra,28(sp)
bfc35e78:	8fbe0018 	lw	s8,24(sp)
bfc35e7c:	27bd0020 	addiu	sp,sp,32
bfc35e80:	03e00008 	jr	ra
bfc35e84:	00000000 	nop
bfc35e88:	27bdffe0 	addiu	sp,sp,-32
bfc35e8c:	afbf001c 	sw	ra,28(sp)
bfc35e90:	afbe0018 	sw	s8,24(sp)
bfc35e94:	03a0f021 	move	s8,sp
bfc35e98:	afa00010 	sw	zero,16(sp)
bfc35e9c:	afa00014 	sw	zero,20(sp)
bfc35ea0:	24040002 	li	a0,2
bfc35ea4:	00002821 	move	a1,zero
bfc35ea8:	00003021 	move	a2,zero
bfc35eac:	00003821 	move	a3,zero
bfc35eb0:	0c0c0004 	jal	b0300010 <SCHED_N+0x202fcd74>
bfc35eb4:	00000000 	nop
bfc35eb8:	03c0e821 	move	sp,s8
bfc35ebc:	8fbf001c 	lw	ra,28(sp)
bfc35ec0:	8fbe0018 	lw	s8,24(sp)
bfc35ec4:	27bd0020 	addiu	sp,sp,32
bfc35ec8:	03e00008 	jr	ra
bfc35ecc:	00000000 	nop
	...
bfc35ed8:	27bdffe0 	addiu	sp,sp,-32
bfc35edc:	afbf001c 	sw	ra,28(sp)
bfc35ee0:	afbe0018 	sw	s8,24(sp)
bfc35ee4:	03a0f021 	move	s8,sp
bfc35ee8:	afc00010 	sw	zero,16(s8)
bfc35eec:	24022710 	li	v0,10000
bfc35ef0:	afc20014 	sw	v0,20(s8)
bfc35ef4:	3c028030 	lui	v0,0x8030
bfc35ef8:	24440230 	addiu	a0,v0,560
bfc35efc:	0c0c0029 	jal	b03000a4 <SCHED_N+0x202fce08>
bfc35f00:	00000000 	nop
bfc35f04:	080c006b 	j	b03001ac <SCHED_N+0x202fcf10>
bfc35f08:	00000000 	nop
bfc35f0c:	3c028030 	lui	v0,0x8030
bfc35f10:	24440254 	addiu	a0,v0,596
bfc35f14:	0c0c0029 	jal	b03000a4 <SCHED_N+0x202fce08>
bfc35f18:	00000000 	nop
bfc35f1c:	8fc30010 	lw	v1,16(s8)
bfc35f20:	24020032 	li	v0,50
bfc35f24:	0062001a 	div	zero,v1,v0
bfc35f28:	00000000 	nop
bfc35f2c:	00001010 	mfhi	v0
bfc35f30:	14400004 	bnez	v0,bfc35f44 <binary_user_C_start+0x101ac>
bfc35f34:	00000000 	nop
bfc35f38:	2404000a 	li	a0,10
bfc35f3c:	0c0c0014 	jal	b0300050 <SCHED_N+0x202fcdb4>
bfc35f40:	00000000 	nop
bfc35f44:	8fc20010 	lw	v0,16(s8)
bfc35f48:	00000000 	nop
bfc35f4c:	24420001 	addiu	v0,v0,1
bfc35f50:	afc20010 	sw	v0,16(s8)
bfc35f54:	8fc30010 	lw	v1,16(s8)
bfc35f58:	8fc20014 	lw	v0,20(s8)
bfc35f5c:	00000000 	nop
bfc35f60:	0043102a 	slt	v0,v0,v1
bfc35f64:	1040ffe9 	beqz	v0,bfc35f0c <binary_user_C_start+0x10174>
bfc35f68:	00000000 	nop
bfc35f6c:	3c028030 	lui	v0,0x8030
bfc35f70:	24440258 	addiu	a0,v0,600
bfc35f74:	0c0c0029 	jal	b03000a4 <SCHED_N+0x202fce08>
bfc35f78:	00000000 	nop
bfc35f7c:	0c0c003c 	jal	b03000f0 <SCHED_N+0x202fce54>
bfc35f80:	00000000 	nop
bfc35f84:	00001021 	move	v0,zero
bfc35f88:	03c0e821 	move	sp,s8
bfc35f8c:	8fbf001c 	lw	ra,28(sp)
bfc35f90:	8fbe0018 	lw	s8,24(sp)
bfc35f94:	27bd0020 	addiu	sp,sp,32
bfc35f98:	03e00008 	jr	ra
bfc35f9c:	00000000 	nop
	...
bfc35fc8:	6c6c6548 	0x6c6c6548
bfc35fcc:	55202c6f 	0x55202c6f
bfc35fd0:	20726573 	addi	s2,v1,25971
bfc35fd4:	20766e45 	addi	s6,v1,28229
bfc35fd8:	73692033 	0x73692033
bfc35fdc:	6e757220 	0x6e757220
bfc35fe0:	676e696e 	0x676e696e
bfc35fe4:	0a2e2e2e 	j	b8b8b8b8 <SCHED_N+0x28b8861c>
bfc35fe8:	00000000 	nop
bfc35fec:	00000043 	sra	zero,zero,0x1
bfc35ff0:	2c657942 	sltiu	a1,v1,31042
bfc35ff4:	65735520 	0x65735520
bfc35ff8:	6e452072 	0x6e452072
bfc35ffc:	20332076 	addi	s3,at,8310
bfc36000:	20646e65 	addi	a0,v1,28261
bfc36004:	6e6e7572 	0x6e6e7572
bfc36008:	2e676e69 	sltiu	a3,s3,28265
bfc3600c:	000a2e2e 	0xa2e2e
	...
bfc36018:	80300000 	lb	s0,0(at)
	...
bfc36030:	0000001d 	0x1d
bfc36034:	0000001f 	0x1f
bfc36038:	80300010 	lb	s0,16(at)
	...
bfc36050:	0000001d 	0x1d
bfc36054:	0000001f 	0x1f
bfc36058:	80300050 	lb	s0,80(at)
bfc3605c:	c0000000 	lwc0	$0,0(zero)
bfc36060:	fffffffc 	0xfffffffc
	...
bfc3606c:	00000020 	add	zero,zero,zero
bfc36070:	0000001e 	0x1e
bfc36074:	0000001f 	0x1f
bfc36078:	803000a4 	lb	s0,164(at)
bfc3607c:	c0000000 	lwc0	$0,0(zero)
bfc36080:	fffffffc 	0xfffffffc
	...
bfc3608c:	00000020 	add	zero,zero,zero
bfc36090:	0000001e 	0x1e
bfc36094:	0000001f 	0x1f
bfc36098:	803000f0 	lb	s0,240(at)
bfc3609c:	c0000000 	lwc0	$0,0(zero)
bfc360a0:	fffffffc 	0xfffffffc
	...
bfc360ac:	00000020 	add	zero,zero,zero
bfc360b0:	0000001e 	0x1e
bfc360b4:	0000001f 	0x1f
bfc360b8:	80300140 	lb	s0,320(at)
bfc360bc:	c0000000 	lwc0	$0,0(zero)
bfc360c0:	fffffffc 	0xfffffffc
	...
bfc360cc:	00000020 	add	zero,zero,zero
bfc360d0:	0000001e 	0x1e
bfc360d4:	0000001f 	0x1f
bfc360d8:	3a434347 	xori	v1,s2,0x4347
bfc360dc:	4e472820 	c3	0x472820
bfc360e0:	34202955 	ori	zero,at,0x2955
bfc360e4:	312e362e 	andi	t6,t1,0x362e
bfc360e8:	000f4100 	sll	t0,t7,0x4
bfc360ec:	6e670000 	0x6e670000
bfc360f0:	07010075 	bgez	t8,bfc362c8 <binary_user_C_start+0x10530>
bfc360f4:	04000000 	bltz	zero,bfc360f8 <binary_user_C_start+0x10360>
bfc360f8:	00000001 	0x1
bfc360fc:	00000001 	0x1
bfc36100:	00170000 	sll	zero,s7,0x0
bfc36104:	00000056 	0x56
bfc36108:	00000001 	0x1
bfc3610c:	00000064 	0x64
bfc36110:	80300010 	lb	s0,16(at)
bfc36114:	00000011 	mthi	zero
bfc36118:	00000080 	sll	zero,zero,0x2
bfc3611c:	00000000 	nop
bfc36120:	0000001b 	divu	zero,zero,zero
bfc36124:	00090024 	and	zero,zero,t1
bfc36128:	80300000 	lb	s0,0(at)
bfc3612c:	00000025 	move	zero,zero
bfc36130:	00000084 	0x84
bfc36134:	80300000 	lb	s0,0(at)
bfc36138:	00000000 	nop
bfc3613c:	00090044 	0x90044
	...
bfc36148:	00000024 	and	zero,zero,zero
bfc3614c:	00000004 	sllv	zero,zero,zero
bfc36150:	0000002d 	0x2d
bfc36154:	00000064 	0x64
bfc36158:	80300010 	lb	s0,16(at)
bfc3615c:	00000011 	mthi	zero
bfc36160:	00000080 	sll	zero,zero,0x2
bfc36164:	00000000 	nop
bfc36168:	0000003d 	0x3d
bfc3616c:	00070024 	and	zero,zero,a3
bfc36170:	80300010 	lb	s0,16(at)
bfc36174:	0000004c 	syscall	0x1
bfc36178:	00000084 	0x84
bfc3617c:	80300010 	lb	s0,16(at)
bfc36180:	00000000 	nop
bfc36184:	00070044 	0x70044
	...
bfc36190:	00080044 	0x80044
bfc36194:	00000004 	sllv	zero,zero,zero
bfc36198:	00000000 	nop
bfc3619c:	00090044 	0x90044
bfc361a0:	00000008 	jr	zero
bfc361a4:	00000000 	nop
bfc361a8:	000a0044 	0xa0044
bfc361ac:	0000000c 	syscall
bfc361b0:	00000000 	nop
bfc361b4:	000b0044 	0xb0044
bfc361b8:	00000010 	mfhi	zero
bfc361bc:	00000000 	nop
bfc361c0:	000c0044 	0xc0044
bfc361c4:	00000014 	0x14
bfc361c8:	00000000 	nop
bfc361cc:	000d0044 	0xd0044
bfc361d0:	00000018 	mult	zero,zero
bfc361d4:	00000000 	nop
bfc361d8:	000f0044 	0xf0044
bfc361dc:	0000001c 	0x1c
bfc361e0:	00000000 	nop
bfc361e4:	00110044 	0x110044
bfc361e8:	00000020 	add	zero,zero,zero
bfc361ec:	00000000 	nop
bfc361f0:	00120044 	0x120044
bfc361f4:	00000028 	0x28
bfc361f8:	00000000 	nop
bfc361fc:	00130044 	0x130044
bfc36200:	0000002c 	0x2c
bfc36204:	00000000 	nop
bfc36208:	00140044 	0x140044
bfc3620c:	00000034 	0x34
bfc36210:	00000000 	nop
bfc36214:	00000024 	and	zero,zero,zero
bfc36218:	00000038 	0x38
bfc3621c:	6d742f00 	0x6d742f00
bfc36220:	63632f70 	0x63632f70
bfc36224:	35676d46 	ori	a3,t3,0x6d46
bfc36228:	732e6848 	0x732e6848
bfc3622c:	696f7600 	0x696f7600
bfc36230:	31743a64 	andi	s4,t3,0x3a64
bfc36234:	5f00313d 	0x5f00313d
bfc36238:	72617473 	0x72617473
bfc3623c:	31463a74 	andi	a2,t2,0x3a74
bfc36240:	61747300 	0x61747300
bfc36244:	532e7472 	0x532e7472
bfc36248:	6d742f00 	0x6d742f00
bfc3624c:	63632f70 	0x63632f70
bfc36250:	62374249 	0x62374249
bfc36254:	732e7444 	0x732e7444
bfc36258:	73647000 	0x73647000
bfc3625c:	7379735f 	0x7379735f
bfc36260:	6c6c6163 	0x6c6c6163
bfc36264:	0031463a 	0x31463a
bfc36268:	63737973 	0x63737973
bfc3626c:	2e6c6c61 	sltiu	t4,s3,27745
bfc36270:	00c70053 	0xc70053
bfc36274:	00020000 	sll	zero,v0,0x0
bfc36278:	00000000 	nop
bfc3627c:	00280104 	0x280104
bfc36280:	70010000 	0x70010000
bfc36284:	34000000 	li	zero,0x0
bfc36288:	50000000 	0x50000000
bfc3628c:	38803000 	xori	zero,a0,0x3000
bfc36290:	00803001 	0x803001
bfc36294:	02000000 	0x2000000
bfc36298:	00006001 	0x6001
bfc3629c:	01030100 	0x1030100
bfc362a0:	80300050 	lb	s0,80(at)
bfc362a4:	803000a4 	lb	s0,164(at)
bfc362a8:	00000000 	nop
bfc362ac:	0000005b 	0x5b
bfc362b0:	00686303 	0x686303
bfc362b4:	005b0301 	0x5b0301
bfc362b8:	91020000 	lbu	v0,0(t0)
bfc362bc:	00010400 	sll	zero,at,0x10
bfc362c0:	01000000 	0x1000000
bfc362c4:	00006205 	0x6205
bfc362c8:	00050100 	sll	zero,a1,0x4
bfc362cc:	06010600 	bgez	s0,bfc37ad0 <pds_str+0xe48>
bfc362d0:	0000006b 	0x6b
bfc362d4:	69050407 	0x69050407
bfc362d8:	0200746e 	0x200746e
bfc362dc:	00001901 	0x1901
bfc362e0:	01080100 	0x1080100
bfc362e4:	803000a4 	lb	s0,164(at)
bfc362e8:	803000f0 	lb	s0,240(at)
bfc362ec:	0000002c 	0x2c
bfc362f0:	000000a0 	0xa0
bfc362f4:	746d6603 	jalx	b1b5980c <SCHED_N+0x21b56570>
bfc362f8:	a0080100 	sb	t0,256(zero)
bfc362fc:	02000000 	0x2000000
bfc36300:	01040091 	0x1040091
bfc36304:	00000000 	nop
bfc36308:	00620501 	0x620501
bfc3630c:	05010000 	bgez	t0,bfc36310 <binary_user_C_start+0x10578>
bfc36310:	04080000 	0x4080000
bfc36314:	0000005b 	0x5b
bfc36318:	000c0109 	0xc0109
bfc3631c:	0d010000 	jal	b4040000 <SCHED_N+0x2403cd64>
bfc36320:	803000f0 	lb	s0,240(at)
bfc36324:	80300138 	lb	s0,312(at)
bfc36328:	00000058 	0x58
bfc3632c:	00000104 	0x104
bfc36330:	05010000 	bgez	t0,bfc36334 <binary_user_C_start+0x1059c>
bfc36334:	00000062 	0x62
bfc36338:	00000501 	0x501
bfc3633c:	00005e00 	sll	t3,zero,0x18
bfc36340:	82000200 	lb	zero,512(s0)
bfc36344:	04000000 	bltz	zero,bfc36348 <binary_user_C_start+0x105b0>
bfc36348:	00002801 	0x2801
bfc3634c:	2e430100 	sltiu	v1,s2,256
bfc36350:	00340063 	0x340063
bfc36354:	01400000 	0x1400000
bfc36358:	02088030 	0x2088030
bfc3635c:	00438030 	0x438030
bfc36360:	01020000 	0x1020000
bfc36364:	00000076 	0x76
bfc36368:	005a0301 	0x5a0301
bfc3636c:	01400000 	0x1400000
bfc36370:	02088030 	0x2088030
bfc36374:	00848030 	0x848030
bfc36378:	005a0000 	0x5a0000
bfc3637c:	69030000 	0x69030000
bfc36380:	5a050100 	0x5a050100
bfc36384:	02000000 	0x2000000
bfc36388:	6e037091 	0x6e037091
bfc3638c:	5a050100 	0x5a050100
bfc36390:	02000000 	0x2000000
bfc36394:	04007491 	bltz	zero,bfc535dc <pds_str+0x1c954>
bfc36398:	6e690504 	0x6e690504
bfc3639c:	01000074 	0x1000074
bfc363a0:	0e250111 	jal	b8940444 <SCHED_N+0x2893d1a8>
bfc363a4:	0e030b13 	jal	b80c2c4c <SCHED_N+0x280bf9b0>
bfc363a8:	01110e1b 	0x1110e1b
bfc363ac:	06100112 	bltzal	s0,bfc367f8 <binary_user_C_start+0x10a60>
bfc363b0:	2e020000 	sltiu	v0,s0,0
bfc363b4:	030c3f01 	0x30c3f01
bfc363b8:	3b0b3a0e 	xori	t3,t8,0x3a0e
bfc363bc:	110c270b 	beq	t0,t4,bfc3ffec <pds_str+0x9364>
bfc363c0:	40011201 	0x40011201
bfc363c4:	00130106 	0x130106
bfc363c8:	00050300 	sll	zero,a1,0xc
bfc363cc:	0b3a0803 	j	bce8200c <SCHED_N+0x2ce7ed70>
bfc363d0:	13490b3b 	beq	k0,t1,bfc390c0 <pds_str+0x2438>
bfc363d4:	00000a02 	srl	at,zero,0x8
bfc363d8:	3f012e04 	0x3f012e04
bfc363dc:	3a0e030c 	xori	t6,s0,0x30c
bfc363e0:	490b3b0b 	0x490b3b0b
bfc363e4:	000c3c13 	0xc3c13
bfc363e8:	00180500 	sll	zero,t8,0x14
bfc363ec:	24060000 	li	a2,0
bfc363f0:	3e0b0b00 	0x3e0b0b00
bfc363f4:	000e030b 	0xe030b
bfc363f8:	00240700 	0x240700
bfc363fc:	0b3e0b0b 	j	bcf82c2c <SCHED_N+0x2cf7f990>
bfc36400:	00000803 	sra	at,zero,0x0
bfc36404:	0b000f08 	j	bc003c20 <SCHED_N+0x2c000984>
bfc36408:	0013490b 	0x13490b
bfc3640c:	012e0900 	0x12e0900
bfc36410:	0e030c3f 	jal	b80c30fc <SCHED_N+0x280bfe60>
bfc36414:	0b3b0b3a 	j	bcec2ce8 <SCHED_N+0x2cebfa4c>
bfc36418:	01120111 	0x1120111
bfc3641c:	00000640 	sll	zero,zero,0x19
bfc36420:	01110100 	0x1110100
bfc36424:	0b130e25 	j	bc4c3894 <SCHED_N+0x2c4c05f8>
bfc36428:	0e1b0803 	jal	b86c200c <SCHED_N+0x286bed70>
bfc3642c:	01120111 	0x1120111
bfc36430:	00000610 	0x610
bfc36434:	3f012e02 	0x3f012e02
bfc36438:	3a0e030c 	xori	t6,s0,0x30c
bfc3643c:	490b3b0b 	0x490b3b0b
bfc36440:	12011113 	beq	s0,at,bfc3a890 <pds_str+0x3c08>
bfc36444:	01064001 	0x1064001
bfc36448:	03000013 	mtlo	t8
bfc3644c:	08030034 	j	b00c00d0 <SCHED_N+0x200bce34>
bfc36450:	0b3b0b3a 	j	bcec2ce8 <SCHED_N+0x2cebfa4c>
bfc36454:	0a021349 	j	b8084d24 <SCHED_N+0x28081a88>
bfc36458:	24040000 	li	a0,0
bfc3645c:	3e0b0b00 	0x3e0b0b00
bfc36460:	0008030b 	0x8030b
bfc36464:	00000000 	nop
bfc36468:	00040000 	sll	zero,a0,0x0
bfc3646c:	00020000 	sll	zero,v0,0x0
bfc36470:	0004008d 	break	0x4,0x2
bfc36474:	00100000 	sll	zero,s0,0x0
bfc36478:	00020000 	sll	zero,v0,0x0
bfc3647c:	0010208d 	break	0x10,0x82
bfc36480:	00540000 	0x540000
bfc36484:	00020000 	sll	zero,v0,0x0
bfc36488:	0000208e 	0x208e
bfc3648c:	00000000 	nop
bfc36490:	00540000 	0x540000
bfc36494:	00580000 	0x580000
bfc36498:	00020000 	sll	zero,v0,0x0
bfc3649c:	0058008d 	break	0x58,0x2
bfc364a0:	00640000 	0x640000
bfc364a4:	00020000 	sll	zero,v0,0x0
bfc364a8:	0064208d 	break	0x64,0x82
bfc364ac:	00a00000 	0xa00000
bfc364b0:	00020000 	sll	zero,v0,0x0
bfc364b4:	0000208e 	0x208e
bfc364b8:	00000000 	nop
bfc364bc:	00a00000 	0xa00000
bfc364c0:	00a40000 	0xa40000
bfc364c4:	00020000 	sll	zero,v0,0x0
bfc364c8:	00a4008d 	break	0xa4,0x2
bfc364cc:	00b00000 	0xb00000
bfc364d0:	00020000 	sll	zero,v0,0x0
bfc364d4:	00b0208d 	break	0xb0,0x82
bfc364d8:	00e80000 	0xe80000
bfc364dc:	00020000 	sll	zero,v0,0x0
bfc364e0:	0000208e 	0x208e
	...
bfc364ec:	00040000 	sll	zero,a0,0x0
bfc364f0:	00020000 	sll	zero,v0,0x0
bfc364f4:	0004008d 	break	0x4,0x2
bfc364f8:	00100000 	sll	zero,s0,0x0
bfc364fc:	00020000 	sll	zero,v0,0x0
bfc36500:	0010208d 	break	0x10,0x82
bfc36504:	00c80000 	0xc80000
bfc36508:	00020000 	sll	zero,v0,0x0
bfc3650c:	0000208e 	0x208e
bfc36510:	00000000 	nop
bfc36514:	001c0000 	sll	zero,gp,0x0
bfc36518:	00020000 	sll	zero,v0,0x0
bfc3651c:	00000000 	nop
bfc36520:	00000004 	sllv	zero,zero,zero
bfc36524:	00500000 	0x500000
bfc36528:	00e88030 	0xe88030
	...
bfc36534:	001c0000 	sll	zero,gp,0x0
bfc36538:	00020000 	sll	zero,v0,0x0
bfc3653c:	000000cb 	0xcb
bfc36540:	00000004 	sllv	zero,zero,zero
bfc36544:	01400000 	0x1400000
bfc36548:	00c88030 	0xc88030
	...
bfc36554:	003f0000 	0x3f0000
bfc36558:	00020000 	sll	zero,v0,0x0
bfc3655c:	0000001c 	0x1c
bfc36560:	0efb0101 	jal	bbec0404 <SCHED_N+0x2bebd168>
bfc36564:	0101000d 	break	0x101
bfc36568:	00000101 	0x101
bfc3656c:	00000100 	sll	zero,zero,0x4
bfc36570:	696c0001 	0x696c0001
bfc36574:	00632e62 	0x632e62
bfc36578:	00000000 	nop
bfc3657c:	50020500 	0x50020500
bfc36580:	15803000 	bnez	t4,bfc42584 <pds_str+0xb8fc>
bfc36584:	24027508 	li	v0,29960
bfc36588:	08770813 	j	b1dc204c <SCHED_N+0x21dbedb0>
bfc3658c:	08e5083d 	j	b39420f4 <SCHED_N+0x2393ee58>
bfc36590:	e508f377 	swc1	$f8,-3209(t0)
bfc36594:	01001802 	0x1001802
bfc36598:	00004501 	0x4501
bfc3659c:	1a000200 	blez	s0,bfc36da0 <pds_str+0x118>
bfc365a0:	01000000 	0x1000000
bfc365a4:	0d0efb01 	jal	b43bec04 <SCHED_N+0x243bb968>
bfc365a8:	01010100 	0x1010100
bfc365ac:	00000001 	0x1
bfc365b0:	01000001 	0x1000001
bfc365b4:	632e4300 	0x632e4300
bfc365b8:	00000000 	nop
bfc365bc:	02050000 	0x2050000
bfc365c0:	80300140 	lb	s0,320(at)
bfc365c4:	f3bcf315 	0xf3bcf315
bfc365c8:	0200f384 	0x200f384
bfc365cc:	08060104 	j	b0180410 <SCHED_N+0x2017d174>
bfc365d0:	040200ac 	0x40200ac
bfc365d4:	02b70601 	0x2b70601
bfc365d8:	84f41728 	lh	s4,5928(a3)
bfc365dc:	0018024b 	0x18024b
bfc365e0:	64700101 	0x64700101
bfc365e4:	79735f73 	0x79735f73
bfc365e8:	6c616373 	0x6c616373
bfc365ec:	7973006c 	0x7973006c
bfc365f0:	6c616373 	0x6c616373
bfc365f4:	78655f6c 	0x78655f6c
bfc365f8:	73007469 	0x73007469
bfc365fc:	61637379 	0x61637379
bfc36600:	705f6c6c 	0x705f6c6c
bfc36604:	746e6972 	jalx	b1b9a5c8 <SCHED_N+0x21b9732c>
bfc36608:	4e470066 	c3	0x470066
bfc3660c:	20432055 	addi	v1,v0,8277
bfc36610:	2e362e34 	sltiu	s6,s1,11828
bfc36614:	682f0031 	0x682f0031
bfc36618:	2f656d6f 	sltiu	a1,k1,28015
bfc3661c:	2f736470 	sltiu	s3,k1,25712
bfc36620:	6b726f57 	0x6b726f57
bfc36624:	50494d2f 	0x50494d2f
bfc36628:	4f432f53 	c3	0x1432f53
bfc3662c:	2f414f43 	sltiu	at,k0,20291
bfc36630:	5350494d 	0x5350494d
bfc36634:	32534f5f 	andi	s3,s2,0x4f5f
bfc36638:	6573752f 	0x6573752f
bfc3663c:	72732f72 	0x72732f72
bfc36640:	79730063 	0x79730063
bfc36644:	6c616373 	0x6c616373
bfc36648:	75705f6c 	jalx	b5c17db0 <SCHED_N+0x25c14b14>
bfc3664c:	61686374 	0x61686374
bfc36650:	696c0072 	0x696c0072
bfc36654:	00632e62 	0x632e62
bfc36658:	6e69616d 	0x6e69616d
bfc3665c:	00000000 	nop
bfc36660:	0000000c 	syscall
bfc36664:	ffffffff 	0xffffffff
bfc36668:	7c010001 	0x7c010001
bfc3666c:	001d0d1f 	0x1d0d1f
bfc36670:	00000018 	mult	zero,zero
bfc36674:	00000000 	nop
bfc36678:	80300050 	lb	s0,80(at)
bfc3667c:	00000054 	0x54
bfc36680:	4c200e44 	0x4c200e44
bfc36684:	019f029e 	0x19f029e
bfc36688:	00001e0d 	break	0x0,0x78
bfc3668c:	00000018 	mult	zero,zero
bfc36690:	00000000 	nop
bfc36694:	803000a4 	lb	s0,164(at)
bfc36698:	0000004c 	syscall	0x1
bfc3669c:	4c200e44 	0x4c200e44
bfc366a0:	019f029e 	0x19f029e
bfc366a4:	00001e0d 	break	0x0,0x78
bfc366a8:	00000018 	mult	zero,zero
bfc366ac:	00000000 	nop
bfc366b0:	803000f0 	lb	s0,240(at)
bfc366b4:	00000048 	0x48
bfc366b8:	4c200e44 	0x4c200e44
bfc366bc:	019f029e 	0x19f029e
bfc366c0:	00001e0d 	break	0x0,0x78
bfc366c4:	0000000c 	syscall
bfc366c8:	ffffffff 	0xffffffff
bfc366cc:	7c010001 	0x7c010001
bfc366d0:	001d0d1f 	0x1d0d1f
bfc366d4:	00000018 	mult	zero,zero
bfc366d8:	00000064 	0x64
bfc366dc:	80300140 	lb	s0,320(at)
bfc366e0:	000000c8 	0xc8
bfc366e4:	4c200e44 	0x4c200e44
bfc366e8:	019f029e 	0x19f029e
bfc366ec:	00001e0d 	break	0x0,0x78
bfc366f0:	79732e00 	0x79732e00
bfc366f4:	6261746d 	0x6261746d
bfc366f8:	74732e00 	jalx	b1ccb800 <SCHED_N+0x21cc8564>
bfc366fc:	62617472 	0x62617472
bfc36700:	68732e00 	0x68732e00
bfc36704:	74727473 	jalx	b1c9d1cc <SCHED_N+0x21c99f30>
bfc36708:	2e006261 	sltiu	zero,s0,25185
bfc3670c:	74786574 	jalx	b1e195d0 <SCHED_N+0x21e16334>
bfc36710:	65722e00 	0x65722e00
bfc36714:	666e6967 	0x666e6967
bfc36718:	722e006f 	0x722e006f
bfc3671c:	7461646f 	jalx	b18591bc <SCHED_N+0x21855f20>
bfc36720:	702e0061 	0x702e0061
bfc36724:	2e007264 	sltiu	zero,s0,29284
bfc36728:	6d6d6f63 	0x6d6d6f63
bfc3672c:	00746e65 	0x746e65
bfc36730:	756e672e 	jalx	b5b99cb8 <SCHED_N+0x25b96a1c>
bfc36734:	7474612e 	jalx	b1d184b8 <SCHED_N+0x21d1521c>
bfc36738:	75626972 	jalx	b589a5c8 <SCHED_N+0x2589732c>
bfc3673c:	00736574 	0x736574
bfc36740:	6174732e 	0x6174732e
bfc36744:	732e0062 	0x732e0062
bfc36748:	73626174 	0x73626174
bfc3674c:	2e007274 	sltiu	zero,s0,29300
bfc36750:	75626564 	jalx	b5899590 <SCHED_N+0x258962f4>
bfc36754:	6e695f67 	0x6e695f67
bfc36758:	2e006f66 	sltiu	zero,s0,28518
bfc3675c:	75626564 	jalx	b5899590 <SCHED_N+0x258962f4>
bfc36760:	62615f67 	0x62615f67
bfc36764:	76657262 	jalx	b995c988 <SCHED_N+0x299596ec>
bfc36768:	65642e00 	0x65642e00
bfc3676c:	5f677562 	0x5f677562
bfc36770:	00636f6c 	0x636f6c
bfc36774:	6265642e 	0x6265642e
bfc36778:	615f6775 	0x615f6775
bfc3677c:	676e6172 	0x676e6172
bfc36780:	2e007365 	sltiu	zero,s0,29541
bfc36784:	75626564 	jalx	b5899590 <SCHED_N+0x258962f4>
bfc36788:	696c5f67 	0x696c5f67
bfc3678c:	2e00656e 	sltiu	zero,s0,25966
bfc36790:	75626564 	jalx	b5899590 <SCHED_N+0x258962f4>
bfc36794:	74735f67 	jalx	b1cd7d9c <SCHED_N+0x21cd4b00>
bfc36798:	642e0072 	0x642e0072
bfc3679c:	67756265 	0x67756265
bfc367a0:	6172665f 	0x6172665f
bfc367a4:	0000656d 	0x656d
	...
bfc367d0:	0000001b 	divu	zero,zero,zero
bfc367d4:	00000001 	0x1
bfc367d8:	00000006 	srlv	zero,zero,zero
bfc367dc:	80300000 	lb	s0,0(at)
bfc367e0:	00010000 	sll	zero,at,0x0
bfc367e4:	00000210 	0x210
	...
bfc367f0:	00000010 	mfhi	zero
bfc367f4:	00000000 	nop
bfc367f8:	00000021 	move	zero,zero
bfc367fc:	70000006 	0x70000006
bfc36800:	00000002 	srl	zero,zero,0x0
bfc36804:	80300210 	lb	s0,528(at)
bfc36808:	00010210 	0x10210
bfc3680c:	00000018 	mult	zero,zero
	...
bfc36818:	00000004 	sllv	zero,zero,zero
bfc3681c:	00000018 	mult	zero,zero
bfc36820:	0000002a 	slt	zero,zero,zero
bfc36824:	00000001 	0x1
bfc36828:	00000002 	srl	zero,zero,0x0
bfc3682c:	80300230 	lb	s0,560(at)
bfc36830:	00010230 	0x10230
bfc36834:	00000050 	0x50
	...
bfc36840:	00000010 	mfhi	zero
bfc36844:	00000000 	nop
bfc36848:	00000032 	0x32
bfc3684c:	00000001 	0x1
	...
bfc36858:	00010280 	sll	zero,at,0xa
bfc3685c:	000000c0 	ehb
	...
bfc36868:	00000004 	sllv	zero,zero,zero
bfc3686c:	00000000 	nop
bfc36870:	00000037 	0x37
bfc36874:	00000001 	0x1
bfc36878:	00000030 	0x30
bfc3687c:	00000000 	nop
bfc36880:	00010340 	sll	zero,at,0xd
bfc36884:	00000011 	mthi	zero
	...
bfc36890:	00000001 	0x1
bfc36894:	00000001 	0x1
bfc36898:	00000040 	ssnop
bfc3689c:	6ffffff5 	0x6ffffff5
	...
bfc368a8:	00010351 	0x10351
bfc368ac:	00000010 	mfhi	zero
	...
bfc368b8:	00000001 	0x1
bfc368bc:	00000000 	nop
bfc368c0:	00000050 	0x50
bfc368c4:	00000001 	0x1
	...
bfc368d0:	00010364 	0x10364
bfc368d4:	00000120 	0x120
bfc368d8:	00000008 	jr	zero
bfc368dc:	00000000 	nop
bfc368e0:	00000004 	sllv	zero,zero,zero
bfc368e4:	0000000c 	syscall
bfc368e8:	00000056 	0x56
bfc368ec:	00000003 	sra	zero,zero,0x0
	...
bfc368f8:	00010484 	0x10484
bfc368fc:	00000056 	0x56
	...
bfc36908:	00000001 	0x1
bfc3690c:	00000000 	nop
bfc36910:	0000005f 	0x5f
bfc36914:	7000001e 	0x7000001e
	...
bfc36920:	000104da 	0x104da
bfc36924:	0000012d 	0x12d
	...
bfc36930:	00000001 	0x1
bfc36934:	00000000 	nop
bfc36938:	0000006b 	0x6b
bfc3693c:	7000001e 	0x7000001e
	...
bfc36948:	00010607 	0x10607
bfc3694c:	000000c7 	0xc7
	...
bfc36958:	00000001 	0x1
bfc3695c:	00000000 	nop
bfc36960:	00000079 	0x79
bfc36964:	7000001e 	0x7000001e
	...
bfc36970:	000106ce 	0x106ce
bfc36974:	000000b0 	0xb0
	...
bfc36980:	00000001 	0x1
bfc36984:	00000000 	nop
bfc36988:	00000084 	0x84
bfc3698c:	7000001e 	0x7000001e
	...
bfc36998:	0001077e 	0x1077e
bfc3699c:	00000040 	ssnop
	...
bfc369a8:	00000001 	0x1
bfc369ac:	00000000 	nop
bfc369b0:	00000093 	0x93
bfc369b4:	7000001e 	0x7000001e
	...
bfc369c0:	000107be 	0x107be
bfc369c4:	0000008c 	syscall	0x2
	...
bfc369d0:	00000001 	0x1
bfc369d4:	00000000 	nop
bfc369d8:	0000009f 	0x9f
bfc369dc:	7000001e 	0x7000001e
bfc369e0:	00000030 	0x30
bfc369e4:	00000000 	nop
bfc369e8:	0001084a 	0x1084a
bfc369ec:	0000007b 	0x7b
	...
bfc369f8:	00000001 	0x1
bfc369fc:	00000001 	0x1
bfc36a00:	000000aa 	0xaa
bfc36a04:	7000001e 	0x7000001e
	...
bfc36a10:	000108c8 	0x108c8
bfc36a14:	00000090 	0x90
	...
bfc36a20:	00000004 	sllv	zero,zero,zero
bfc36a24:	00000000 	nop
bfc36a28:	00000011 	mthi	zero
bfc36a2c:	00000003 	sra	zero,zero,0x0
	...
bfc36a38:	00010958 	0x10958
bfc36a3c:	000000b7 	0xb7
	...
bfc36a48:	00000001 	0x1
bfc36a4c:	00000000 	nop
bfc36a50:	00000001 	0x1
bfc36a54:	00000002 	srl	zero,zero,0x0
	...
bfc36a60:	00010d08 	0x10d08
bfc36a64:	00000190 	0x190
bfc36a68:	00000012 	mflo	zero
bfc36a6c:	00000012 	mflo	zero
bfc36a70:	00000004 	sllv	zero,zero,zero
bfc36a74:	00000010 	mfhi	zero
bfc36a78:	00000009 	jalr	zero,zero
bfc36a7c:	00000003 	sra	zero,zero,0x0
	...
bfc36a88:	00010e98 	0x10e98
bfc36a8c:	00000053 	0x53
	...
bfc36a98:	00000001 	0x1
	...
bfc36ab4:	80300000 	lb	s0,0(at)
bfc36ab8:	00000000 	nop
bfc36abc:	00010003 	sra	zero,at,0x0
bfc36ac0:	00000000 	nop
bfc36ac4:	80300210 	lb	s0,528(at)
bfc36ac8:	00000000 	nop
bfc36acc:	00020003 	sra	zero,v0,0x0
bfc36ad0:	00000000 	nop
bfc36ad4:	80300230 	lb	s0,560(at)
bfc36ad8:	00000000 	nop
bfc36adc:	00030003 	sra	zero,v1,0x0
	...
bfc36aec:	00040003 	sra	zero,a0,0x0
	...
bfc36afc:	00050003 	sra	zero,a1,0x0
	...
bfc36b0c:	00060003 	sra	zero,a2,0x0
	...
bfc36b1c:	00070003 	sra	zero,a3,0x0
	...
bfc36b2c:	00080003 	sra	zero,t0,0x0
	...
bfc36b3c:	00090003 	sra	zero,t1,0x0
	...
bfc36b4c:	000a0003 	sra	zero,t2,0x0
	...
bfc36b5c:	000b0003 	sra	zero,t3,0x0
	...
bfc36b6c:	000c0003 	sra	zero,t4,0x0
	...
bfc36b7c:	000d0003 	sra	zero,t5,0x0
	...
bfc36b8c:	000e0003 	sra	zero,t6,0x0
	...
bfc36b9c:	000f0003 	sra	zero,t7,0x0
bfc36ba0:	00000001 	0x1
	...
bfc36bac:	fff10004 	0xfff10004
bfc36bb0:	00000007 	srav	zero,zero,zero
	...
bfc36bbc:	fff10004 	0xfff10004
bfc36bc0:	0000000b 	0xb
bfc36bc4:	803000a4 	lb	s0,164(at)
bfc36bc8:	0000004c 	syscall	0x1
bfc36bcc:	00010012 	0x10012
bfc36bd0:	0000001a 	div	zero,zero,zero
bfc36bd4:	80300280 	lb	s0,640(at)
bfc36bd8:	00000000 	nop
bfc36bdc:	fff10010 	0xfff10010
bfc36be0:	0000001e 	0x1e
bfc36be4:	80300000 	lb	s0,0(at)
bfc36be8:	00000004 	sllv	zero,zero,zero
bfc36bec:	00010012 	0x10012
bfc36bf0:	00000025 	move	zero,zero
bfc36bf4:	803000f0 	lb	s0,240(at)
bfc36bf8:	00000048 	0x48
bfc36bfc:	00010012 	0x10012
bfc36c00:	00000032 	0x32
bfc36c04:	80300140 	lb	s0,320(at)
bfc36c08:	000000c8 	0xc8
bfc36c0c:	00010012 	0x10012
bfc36c10:	00000037 	0x37
bfc36c14:	80300050 	lb	s0,80(at)
bfc36c18:	00000054 	0x54
bfc36c1c:	00010012 	0x10012
bfc36c20:	00000047 	0x47
bfc36c24:	80300010 	lb	s0,16(at)
bfc36c28:	00000038 	0x38
bfc36c2c:	00010012 	0x10012
bfc36c30:	62696c00 	0x62696c00
bfc36c34:	4300632e 	c0	0x100632e
bfc36c38:	7300632e 	0x7300632e
bfc36c3c:	61637379 	0x61637379
bfc36c40:	705f6c6c 	0x705f6c6c
bfc36c44:	746e6972 	jalx	b1b9a5c8 <SCHED_N+0x21b9732c>
bfc36c48:	6e650066 	0x6e650066
bfc36c4c:	735f0064 	0x735f0064
bfc36c50:	74726174 	jalx	b1c985d0 <SCHED_N+0x21c95334>
bfc36c54:	73797300 	0x73797300
bfc36c58:	6c6c6163 	0x6c6c6163
bfc36c5c:	6978655f 	0x6978655f
bfc36c60:	616d0074 	0x616d0074
bfc36c64:	73006e69 	0x73006e69
bfc36c68:	61637379 	0x61637379
bfc36c6c:	705f6c6c 	0x705f6c6c
bfc36c70:	68637475 	0x68637475
bfc36c74:	70007261 	0x70007261
bfc36c78:	735f7364 	0x735f7364
bfc36c7c:	61637379 	0x61637379
bfc36c80:	ff006c6c 	0xff006c6c

bfc36c84 <binary_user_C_size>:
bfc36c84:	00010eec 	0x10eec

bfc36c88 <pds_str>:
bfc36c88:	bfc03b10 	0xbfc03b10
bfc36c8c:	00000000 	nop

Disassembly of section .bss:

90000000 <curenv>:
	...

90000010 <envs>:
	...

90002a10 <sectors>:
	...

90003210 <exception_handlers>:
	...

Disassembly of section .sbss:

90003290 <env_free_list>:
90003290:	00000000 	nop

90003294 <next_env_id.1013>:
90003294:	00000000 	nop

Disassembly of section .scommon:

90003298 <Next_EnvNum>:
90003298:	00000000 	nop

9000329c <SCHED_N>:
9000329c:	00000000 	nop

Disassembly of section .pdr:

00000000 <.pdr>:
   0:	bfc00800 	0xbfc00800
   4:	c0000000 	lwc0	$0,0(zero)
   8:	fffffffc 	0xfffffffc
	...
  14:	00000020 	add	zero,zero,zero
  18:	0000001e 	0x1e
  1c:	0000001f 	0x1f
  20:	bfc00850 	0xbfc00850
  24:	40000000 	mfc0	zero,c0_index
  28:	fffffffc 	0xfffffffc
	...
  34:	00000008 	jr	zero
  38:	0000001e 	0x1e
  3c:	0000001f 	0x1f
  40:	bfc0087c 	0xbfc0087c
  44:	c0000000 	lwc0	$0,0(zero)
  48:	fffffffc 	0xfffffffc
	...
  54:	00000018 	mult	zero,zero
  58:	0000001e 	0x1e
  5c:	0000001f 	0x1f
  60:	bfc008f0 	0xbfc008f0
  64:	40000000 	mfc0	zero,c0_index
  68:	fffffffc 	0xfffffffc
	...
  74:	00000010 	mfhi	zero
  78:	0000001e 	0x1e
  7c:	0000001f 	0x1f
  80:	bfc00940 	0xbfc00940
  84:	40000000 	mfc0	zero,c0_index
  88:	fffffffc 	0xfffffffc
	...
  94:	00000010 	mfhi	zero
  98:	0000001e 	0x1e
  9c:	0000001f 	0x1f
  a0:	bfc009e4 	0xbfc009e4
  a4:	c0000000 	lwc0	$0,0(zero)
  a8:	fffffffc 	0xfffffffc
	...
  b4:	00000020 	add	zero,zero,zero
  b8:	0000001e 	0x1e
  bc:	0000001f 	0x1f
  c0:	bfc00bb0 	0xbfc00bb0
  c4:	c0000000 	lwc0	$0,0(zero)
  c8:	fffffffc 	0xfffffffc
	...
  d4:	00000020 	add	zero,zero,zero
  d8:	0000001e 	0x1e
  dc:	0000001f 	0x1f
  e0:	bfc00cec 	0xbfc00cec
  e4:	40000000 	mfc0	zero,c0_index
  e8:	fffffffc 	0xfffffffc
	...
  f4:	00000010 	mfhi	zero
  f8:	0000001e 	0x1e
  fc:	0000001f 	0x1f
 100:	bfc00d78 	0xbfc00d78
 104:	c0000000 	lwc0	$0,0(zero)
 108:	fffffffc 	0xfffffffc
	...
 114:	00000020 	add	zero,zero,zero
 118:	0000001e 	0x1e
 11c:	0000001f 	0x1f
 120:	bfc00de4 	0xbfc00de4
 124:	c0000000 	lwc0	$0,0(zero)
 128:	fffffffc 	0xfffffffc
	...
 134:	00000018 	mult	zero,zero
 138:	0000001e 	0x1e
 13c:	0000001f 	0x1f
 140:	bfc00ee0 	0xbfc00ee0
 144:	c0000000 	lwc0	$0,0(zero)
 148:	fffffffc 	0xfffffffc
	...
 154:	00000020 	add	zero,zero,zero
 158:	0000001e 	0x1e
 15c:	0000001f 	0x1f
 160:	bfc00f98 	0xbfc00f98
 164:	c0000000 	lwc0	$0,0(zero)
 168:	fffffffc 	0xfffffffc
	...
 174:	00000018 	mult	zero,zero
 178:	0000001e 	0x1e
 17c:	0000001f 	0x1f
 180:	bfc00fc0 	0xbfc00fc0
 184:	c0000000 	lwc0	$0,0(zero)
 188:	fffffffc 	0xfffffffc
	...
 194:	00000020 	add	zero,zero,zero
 198:	0000001e 	0x1e
 19c:	0000001f 	0x1f
 1a0:	bfc01054 	0xbfc01054
 1a4:	c0000000 	lwc0	$0,0(zero)
 1a8:	fffffffc 	0xfffffffc
	...
 1b4:	00000018 	mult	zero,zero
 1b8:	0000001e 	0x1e
 1bc:	0000001f 	0x1f
 1c0:	bfc0109c 	0xbfc0109c
 1c4:	40000000 	mfc0	zero,c0_index
 1c8:	fffffffc 	0xfffffffc
	...
 1d4:	00000010 	mfhi	zero
 1d8:	0000001e 	0x1e
 1dc:	0000001f 	0x1f
 1e0:	bfc01118 	0xbfc01118
 1e4:	40010000 	mfc0	at,c0_index
 1e8:	fffffffc 	0xfffffffc
	...
 1f4:	00000010 	mfhi	zero
 1f8:	0000001e 	0x1e
 1fc:	0000001f 	0x1f
 200:	bfc01150 	0xbfc01150
 204:	40010000 	mfc0	at,c0_index
 208:	fffffffc 	0xfffffffc
	...
 214:	00000010 	mfhi	zero
 218:	0000001e 	0x1e
 21c:	0000001f 	0x1f
 220:	bfc01188 	0xbfc01188
 224:	c0000000 	lwc0	$0,0(zero)
 228:	fffffffc 	0xfffffffc
	...
 234:	00000020 	add	zero,zero,zero
 238:	0000001e 	0x1e
 23c:	0000001f 	0x1f
 240:	bfc011e4 	0xbfc011e4
 244:	c0000000 	lwc0	$0,0(zero)
 248:	fffffffc 	0xfffffffc
	...
 254:	00000020 	add	zero,zero,zero
 258:	0000001e 	0x1e
 25c:	0000001f 	0x1f
 260:	bfc01240 	0xbfc01240
 264:	c0000000 	lwc0	$0,0(zero)
 268:	fffffffc 	0xfffffffc
	...
 274:	00000020 	add	zero,zero,zero
 278:	0000001e 	0x1e
 27c:	0000001f 	0x1f
 280:	bfc0129c 	0xbfc0129c
 284:	c0000000 	lwc0	$0,0(zero)
 288:	fffffffc 	0xfffffffc
	...
 294:	00000020 	add	zero,zero,zero
 298:	0000001e 	0x1e
 29c:	0000001f 	0x1f
 2a0:	bfc013c0 	0xbfc013c0
 2a4:	c0000000 	lwc0	$0,0(zero)
 2a8:	fffffffc 	0xfffffffc
	...
 2b4:	00000020 	add	zero,zero,zero
 2b8:	0000001e 	0x1e
 2bc:	0000001f 	0x1f
 2c0:	bfc014e4 	0xbfc014e4
 2c4:	c0000000 	lwc0	$0,0(zero)
 2c8:	fffffffc 	0xfffffffc
	...
 2d4:	00000020 	add	zero,zero,zero
 2d8:	0000001e 	0x1e
 2dc:	0000001f 	0x1f
 2e0:	bfc01610 	0xbfc01610
	...
 2f8:	0000001d 	0x1d
 2fc:	0000001f 	0x1f
 300:	bfc016e0 	0xbfc016e0
	...
 318:	0000001d 	0x1d
 31c:	0000001f 	0x1f
 320:	bfc016fc 	0xbfc016fc
	...
 338:	0000001d 	0x1d
 33c:	0000001f 	0x1f
 340:	bfc01718 	0xbfc01718
	...
 358:	0000001d 	0x1d
 35c:	0000001f 	0x1f
 360:	bfc01720 	0xbfc01720
	...
 374:	00000098 	0x98
 378:	0000001d 	0x1d
 37c:	0000001d 	0x1d
 380:	bfc01820 	0xbfc01820
 384:	c0000000 	lwc0	$0,0(zero)
 388:	fffffffc 	0xfffffffc
	...
 394:	00000020 	add	zero,zero,zero
 398:	0000001e 	0x1e
 39c:	0000001f 	0x1f
 3a0:	bfc01910 	0xbfc01910
 3a4:	40000000 	mfc0	zero,c0_index
 3a8:	fffffffc 	0xfffffffc
	...
 3b4:	00000010 	mfhi	zero
 3b8:	0000001e 	0x1e
 3bc:	0000001f 	0x1f
 3c0:	bfc01a30 	0xbfc01a30
 3c4:	40000000 	mfc0	zero,c0_index
 3c8:	fffffffc 	0xfffffffc
	...
 3d4:	00000010 	mfhi	zero
 3d8:	0000001e 	0x1e
 3dc:	0000001f 	0x1f
 3e0:	bfc01ab4 	0xbfc01ab4
 3e4:	40010000 	mfc0	at,c0_index
 3e8:	fffffffc 	0xfffffffc
	...
 3f4:	00000010 	mfhi	zero
 3f8:	0000001e 	0x1e
 3fc:	0000001f 	0x1f
 400:	bfc01aec 	0xbfc01aec
 404:	40010000 	mfc0	at,c0_index
 408:	fffffffc 	0xfffffffc
	...
 414:	00000010 	mfhi	zero
 418:	0000001e 	0x1e
 41c:	0000001f 	0x1f
 420:	bfc01b24 	0xbfc01b24
 424:	c0000000 	lwc0	$0,0(zero)
 428:	fffffffc 	0xfffffffc
	...
 434:	00000028 	0x28
 438:	0000001e 	0x1e
 43c:	0000001f 	0x1f
 440:	bfc01b90 	0xbfc01b90
 444:	40000000 	mfc0	zero,c0_index
 448:	fffffffc 	0xfffffffc
	...
 454:	00000008 	jr	zero
 458:	0000001e 	0x1e
 45c:	0000001f 	0x1f
 460:	bfc01bb0 	0xbfc01bb0
 464:	40000000 	mfc0	zero,c0_index
 468:	fffffffc 	0xfffffffc
	...
 474:	00000008 	jr	zero
 478:	0000001e 	0x1e
 47c:	0000001f 	0x1f
 480:	bfc01bd0 	0xbfc01bd0
 484:	c0000000 	lwc0	$0,0(zero)
 488:	fffffffc 	0xfffffffc
	...
 494:	00000018 	mult	zero,zero
 498:	0000001e 	0x1e
 49c:	0000001f 	0x1f
 4a0:	bfc01c54 	0xbfc01c54
 4a4:	c0000000 	lwc0	$0,0(zero)
 4a8:	fffffffc 	0xfffffffc
	...
 4b4:	00000058 	0x58
 4b8:	0000001e 	0x1e
 4bc:	0000001f 	0x1f
 4c0:	bfc01d48 	0xbfc01d48
 4c4:	c0000000 	lwc0	$0,0(zero)
 4c8:	fffffffc 	0xfffffffc
	...
 4d4:	00000058 	0x58
 4d8:	0000001e 	0x1e
 4dc:	0000001f 	0x1f
 4e0:	bfc01e78 	0xbfc01e78
 4e4:	40000000 	mfc0	zero,c0_index
 4e8:	fffffffc 	0xfffffffc
	...
 4f4:	00000010 	mfhi	zero
 4f8:	0000001e 	0x1e
 4fc:	0000001f 	0x1f
 500:	bfc01ef0 	0xbfc01ef0
 504:	40000000 	mfc0	zero,c0_index
 508:	fffffffc 	0xfffffffc
	...
 514:	00000008 	jr	zero
 518:	0000001e 	0x1e
 51c:	0000001f 	0x1f
 520:	bfc01f34 	0xbfc01f34
 524:	c0000000 	lwc0	$0,0(zero)
 528:	fffffffc 	0xfffffffc
	...
 534:	00000018 	mult	zero,zero
 538:	0000001e 	0x1e
 53c:	0000001f 	0x1f
 540:	bfc01f70 	0xbfc01f70
 544:	c0000000 	lwc0	$0,0(zero)
 548:	fffffffc 	0xfffffffc
	...
 554:	00000020 	add	zero,zero,zero
 558:	0000001e 	0x1e
 55c:	0000001f 	0x1f
 560:	bfc02030 	0xbfc02030
 564:	c0000000 	lwc0	$0,0(zero)
 568:	fffffffc 	0xfffffffc
	...
 574:	00000020 	add	zero,zero,zero
 578:	0000001e 	0x1e
 57c:	0000001f 	0x1f
 580:	bfc02088 	0xbfc02088
 584:	c0000000 	lwc0	$0,0(zero)
 588:	fffffffc 	0xfffffffc
	...
 594:	00000020 	add	zero,zero,zero
 598:	0000001e 	0x1e
 59c:	0000001f 	0x1f
 5a0:	bfc020f8 	0xbfc020f8
 5a4:	c0000000 	lwc0	$0,0(zero)
 5a8:	fffffffc 	0xfffffffc
	...
 5b4:	000000a8 	0xa8
 5b8:	0000001e 	0x1e
 5bc:	0000001f 	0x1f
 5c0:	bfc029f4 	0xbfc029f4
 5c4:	40000000 	mfc0	zero,c0_index
 5c8:	fffffffc 	0xfffffffc
	...
 5d4:	00000010 	mfhi	zero
 5d8:	0000001e 	0x1e
 5dc:	0000001f 	0x1f
 5e0:	bfc02b34 	0xbfc02b34
 5e4:	40000000 	mfc0	zero,c0_index
 5e8:	fffffffc 	0xfffffffc
	...
 5f4:	00000018 	mult	zero,zero
 5f8:	0000001e 	0x1e
 5fc:	0000001f 	0x1f
 600:	bfc02d90 	0xbfc02d90
 604:	40000000 	mfc0	zero,c0_index
 608:	fffffffc 	0xfffffffc
	...
 614:	00000018 	mult	zero,zero
 618:	0000001e 	0x1e
 61c:	0000001f 	0x1f
 620:	bfc02f00 	0xbfc02f00
 624:	c0000000 	lwc0	$0,0(zero)
 628:	fffffffc 	0xfffffffc
	...
 634:	00000038 	0x38
 638:	0000001e 	0x1e
 63c:	0000001f 	0x1f
 640:	bfc031e0 	0xbfc031e0
 644:	c0000000 	lwc0	$0,0(zero)
 648:	fffffffc 	0xfffffffc
	...
 654:	00000028 	0x28
 658:	0000001e 	0x1e
 65c:	0000001f 	0x1f
 660:	bfc03410 	0xbfc03410
	...
 674:	00000098 	0x98
 678:	0000001d 	0x1d
 67c:	0000001d 	0x1d
 680:	bfc03680 	0xbfc03680
 684:	c0000000 	lwc0	$0,0(zero)
 688:	fffffffc 	0xfffffffc
	...
 694:	00000018 	mult	zero,zero
 698:	0000001e 	0x1e
 69c:	0000001f 	0x1f
 6a0:	bfc036c8 	0xbfc036c8
 6a4:	c0000000 	lwc0	$0,0(zero)
 6a8:	fffffffc 	0xfffffffc
	...
 6b4:	00000018 	mult	zero,zero
 6b8:	0000001e 	0x1e
 6bc:	0000001f 	0x1f
 6c0:	bfc03700 	0xbfc03700
 6c4:	c0000000 	lwc0	$0,0(zero)
 6c8:	fffffffc 	0xfffffffc
	...
 6d4:	00000018 	mult	zero,zero
 6d8:	0000001e 	0x1e
 6dc:	0000001f 	0x1f
 6e0:	bfc03740 	0xbfc03740
	...
 6f8:	0000001d 	0x1d
 6fc:	0000001f 	0x1f
 700:	bfc03780 	0xbfc03780
 704:	c0000000 	lwc0	$0,0(zero)
 708:	fffffffc 	0xfffffffc
	...
 714:	00000020 	add	zero,zero,zero
 718:	0000001e 	0x1e
 71c:	0000001f 	0x1f
 720:	bfc037d4 	0xbfc037d4
 724:	c0000000 	lwc0	$0,0(zero)
 728:	fffffffc 	0xfffffffc
	...
 734:	00000020 	add	zero,zero,zero
 738:	0000001e 	0x1e
 73c:	0000001f 	0x1f
 740:	bfc03820 	0xbfc03820
 744:	c0000000 	lwc0	$0,0(zero)
 748:	fffffffc 	0xfffffffc
	...
 754:	00000020 	add	zero,zero,zero
 758:	0000001e 	0x1e
 75c:	0000001f 	0x1f
 760:	bfc03870 	0xbfc03870
 764:	c0000000 	lwc0	$0,0(zero)
 768:	fffffffc 	0xfffffffc
	...
 774:	00000020 	add	zero,zero,zero
 778:	0000001e 	0x1e
 77c:	0000001f 	0x1f
 780:	bfc03904 	0xbfc03904
 784:	40000000 	mfc0	zero,c0_index
 788:	fffffffc 	0xfffffffc
	...
 794:	00000010 	mfhi	zero
 798:	0000001e 	0x1e
 79c:	0000001f 	0x1f
 7a0:	bfc03990 	0xbfc03990
	...
 7b4:	00000098 	0x98
 7b8:	0000001d 	0x1d
 7bc:	0000001d 	0x1d
 7c0:	bfc00000 	0xbfc00000
	...
 7d8:	0000001d 	0x1d
 7dc:	0000001f 	0x1f
 7e0:	bfc00014 	0xbfc00014
	...
 7f8:	0000001d 	0x1d
 7fc:	0000001f 	0x1f
 800:	bfc00040 	0xbfc00040
	...
 818:	0000001d 	0x1d
 81c:	0000001f 	0x1f

Disassembly of section .comment:

00000000 <.comment>:
   0:	3a434347 	xori	v1,s2,0x4347
   4:	4e472820 	c3	0x472820
   8:	34202955 	ori	zero,at,0x2955
   c:	312e372e 	andi	t6,t1,0x372e
	...

Disassembly of section .gnu.attributes:

00000000 <.gnu.attributes>:
   0:	00000f41 	0xf41
   4:	756e6700 	jalx	5b99c00 <__bss_start-0x8a466400>
   8:	00070100 	sll	zero,a3,0x4
   c:	01040000 	0x1040000

Disassembly of section .debug_info:

00000000 <.debug_info>:
       0:	000000d1 	0xd1
       4:	00000002 	srl	zero,zero,0x0
       8:	01040000 	0x1040000
       c:	0000001e 	0x1e
      10:	00004701 	0x4701
      14:	00002a00 	sll	a1,zero,0x8
      18:	c0080000 	lwc0	$8,0(zero)
      1c:	c00940bf 	lwc0	$9,16575(zero)
      20:	000000bf 	0xbf
      24:	07040200 	0x7040200
      28:	00000174 	0x174
      2c:	00510103 	0x510103
      30:	31010000 	andi	at,t0,0x0
      34:	c0080001 	lwc0	$8,1(zero)
      38:	c00850bf 	lwc0	$8,20671(zero)
      3c:	000000bf 	0xbf
      40:	00600100 	0x600100
      44:	63040000 	0x63040000
      48:	31010068 	andi	at,t0,0x68
      4c:	00000060 	0x60
      50:	05009102 	bltz	t0,fffe445c <pds_str+0x403ad7d4>
      54:	3e010074 	0x3e010074
      58:	00000067 	0x67
      5c:	00709102 	0x709102
      60:	0b080102 	j	c200408 <__bss_start-0x83dffbf8>
      64:	06000000 	bltz	s0,68 <__bss_start-0x8fffff98>
      68:	6e690504 	0x6e690504
      6c:	01070074 	0x1070074
      70:	00000019 	multu	zero,zero
      74:	50014501 	0x50014501
      78:	7cbfc008 	0x7cbfc008
      7c:	44bfc008 	0x44bfc008
      80:	01000000 	0x1000000
      84:	003e0103 	0x3e0103
      88:	4c010000 	mfc3	at,$0
      8c:	c0087c01 	lwc0	$8,31745(zero)
      90:	c008f0bf 	lwc0	$8,-3905(zero)
      94:	000088bf 	0x88bf
      98:	00ab0100 	0xab0100
      9c:	73040000 	0x73040000
      a0:	ab4c0100 	swl	t4,256(k0)
      a4:	02000000 	0x2000000
      a8:	08000091 	j	244 <__bss_start-0x8ffffdbc>
      ac:	00006004 	sllv	t4,zero,zero
      b0:	00010900 	sll	at,at,0x4
      b4:	01000000 	0x1000000
      b8:	08f00154 	j	3c00550 <__bss_start-0x8c3ffab0>
      bc:	0940bfc0 	j	502ff00 <__bss_start-0x8afd0100>
      c0:	00ccbfc0 	0xccbfc0
      c4:	05010000 	bgez	t0,c8 <__bss_start-0x8fffff38>
      c8:	5601006a 	0x5601006a
      cc:	00000067 	0x67
      d0:	00709102 	0x709102
      d4:	00060c00 	sll	at,a2,0x10
      d8:	9b000200 	lwr	zero,512(t8)
      dc:	04000000 	bltz	zero,e0 <__bss_start-0x8fffff20>
      e0:	00001e01 	0x1e01
      e4:	01e90100 	0x1e90100
      e8:	002a0000 	0x2a0000
      ec:	09400000 	j	5000000 <__bss_start-0x8b000000>
      f0:	1608bfc0 	bne	s0,t0,fffefff4 <pds_str+0x403b936c>
      f4:	0063bfc0 	0x63bfc0
      f8:	01020000 	0x1020000
      fc:	00000b08 	0xb08
     100:	05020200 	0x5020200
     104:	000001cb 	0x1cb
     108:	e1070202 	swc0	$7,514(t0)
     10c:	03000000 	0x3000000
     110:	6e690504 	0x6e690504
     114:	04020074 	0x4020074
     118:	00017407 	0x17407
     11c:	05080200 	0x5080200
     120:	000001a4 	0x1a4
     124:	6a070802 	0x6a070802
     128:	04000001 	bltz	zero,130 <__bss_start-0x8ffffed0>
     12c:	000001c4 	0x1c4
     130:	00251602 	0x251602
     134:	d5040000 	0xd5040000
     138:	02000001 	0x2000001
     13c:	00004118 	0x4118
     140:	07040200 	0x7040200
     144:	0000016f 	0x16f
     148:	00009705 	0x9705
     14c:	16039800 	bne	s0,v1,fffe6150 <pds_str+0x403af4c8>
     150:	000000e5 	0xe5
     154:	00018106 	0x18106
     158:	e5180300 	swc1	$f24,768(t0)
     15c:	02000000 	0x2000000
     160:	36060023 	ori	a2,s0,0x23
     164:	03000001 	0x3000001
     168:	00006c1b 	0x6c1b
     16c:	80230300 	lb	v1,768(at)
     170:	69680701 	0x69680701
     174:	6c1c0300 	0x6c1c0300
     178:	03000000 	0x3000000
     17c:	07018423 	bgez	t8,fffe120c <pds_str+0x403aa584>
     180:	03006f6c 	0x3006f6c
     184:	00006c1d 	0x6c1d
     188:	88230300 	lwl	v1,768(at)
     18c:	005c0601 	0x5c0601
     190:	1e030000 	0x1e030000
     194:	0000006c 	0x6c
     198:	018c2303 	0x18c2303
     19c:	00007106 	0x7106
     1a0:	6c1f0300 	0x6c1f0300
     1a4:	03000000 	0x3000000
     1a8:	07019023 	bgez	t8,fffe4238 <pds_str+0x403ad5b0>
     1ac:	03006370 	0x3006370
     1b0:	00006c20 	0x6c20
     1b4:	94230300 	lhu	v1,768(at)
     1b8:	6c080001 	0x6c080001
     1bc:	f5000000 	0xf5000000
     1c0:	09000000 	j	4000000 <__bss_start-0x8c000000>
     1c4:	000000f5 	0xf5
     1c8:	0402001f 	0x402001f
     1cc:	00019b07 	0x19b07
     1d0:	03080a00 	0x3080a00
     1d4:	0001212d 	0x1212d
     1d8:	011c0600 	0x11c0600
     1dc:	2d030000 	sltiu	v1,t0,0
     1e0:	00000169 	0x169
     1e4:	06002302 	bltz	s0,8df0 <__bss_start-0x8fff7210>
     1e8:	000000c0 	ehb
     1ec:	016f2d03 	0x16f2d03
     1f0:	23020000 	addi	v0,t8,0
     1f4:	450b0004 	0x450b0004
     1f8:	a800766e 	swl	zero,30318(zero)
     1fc:	01692903 	0x1692903
     200:	ef060000 	swc3	$6,0(t8)
     204:	03000001 	0x3000001
     208:	0000732a 	0x732a
     20c:	00230200 	0x230200
     210:	0000b906 	0xb906
     214:	612b0300 	0x612b0300
     218:	03000000 	0x3000000
     21c:	06019823 	bgez	s0,fffe62ac <pds_str+0x403af624>
     220:	00000085 	0x85
     224:	00612c03 	0x612c03
     228:	23030000 	addi	v1,t8,0
     22c:	9206019c 	lbu	a2,412(s0)
     230:	03000001 	0x3000001
     234:	0000fc2d 	0xfc2d
     238:	a0230300 	sb	v1,768(at)
     23c:	040c0001 	0x40c0001
     240:	00000121 	0x121
     244:	0169040c 	syscall	0x5a410
     248:	2d050000 	sltiu	a1,t0,0
     24c:	04000001 	bltz	zero,254 <__bss_start-0x8ffffdac>
     250:	01900b01 	0x1900b01
     254:	56060000 	0x56060000
     258:	01000001 	0x1000001
     25c:	0001690b 	0x1690b
     260:	00230200 	0x230200
     264:	14010d00 	bne	zero,at,3668 <__bss_start-0x8fffc998>
     268:	01000001 	0x1000001
     26c:	00410121 	0x410121
     270:	09400000 	j	5000000 <__bss_start-0x8b000000>
     274:	09e4bfc0 	j	792ff00 <__bss_start-0x886d0100>
     278:	0110bfc0 	0x110bfc0
     27c:	da010000 	0xda010000
     280:	0e000001 	jal	8000004 <__bss_start-0x87fffffc>
     284:	21010065 	addi	at,t0,101
     288:	00000169 	0x169
     28c:	0f009102 	jal	c024408 <__bss_start-0x83fdbbf8>
     290:	000000b4 	0xb4
     294:	006c2301 	0x6c2301
     298:	03050000 	0x3050000
     29c:	90003294 	lbu	zero,12948(zero)
     2a0:	78646910 	0x78646910
     2a4:	41260100 	0x41260100
     2a8:	02000000 	0x2000000
     2ac:	11007091 	beqz	t0,1c4f4 <__bss_start-0x8ffe3b0c>
     2b0:	0000d801 	0xd801
     2b4:	012e0100 	0x12e0100
     2b8:	bfc009e4 	0xbfc009e4
     2bc:	bfc00bb0 	0xbfc00bb0
     2c0:	00000154 	0x154
     2c4:	00020a01 	0x20a01
     2c8:	00691000 	0x691000
     2cc:	003a3001 	0x3a3001
     2d0:	91020000 	lbu	v0,0(t0)
     2d4:	00651270 	0x651270
     2d8:	01693101 	0x1693101
     2dc:	13000000 	beqz	t8,2e0 <__bss_start-0x8ffffd20>
     2e0:	0001f601 	0x1f601
     2e4:	01470100 	0x1470100
     2e8:	0000003a 	0x3a
     2ec:	bfc00bb0 	0xbfc00bb0
     2f0:	bfc00cec 	0xbfc00cec
     2f4:	00000198 	0x198
     2f8:	00025001 	0x25001
     2fc:	656e0e00 	0x656e0e00
     300:	47010077 	c1	0x1010077
     304:	0000016f 	0x16f
     308:	10009102 	b	fffe4714 <pds_str+0x403ada8c>
     30c:	01006469 	0x1006469
     310:	00003a49 	0x3a49
     314:	74910200 	jalx	2440800 <__bss_start-0x8dbbf800>
     318:	01006510 	0x1006510
     31c:	0001694a 	0x1694a
     320:	70910200 	0x70910200
     324:	015f1400 	0x15f1400
     328:	5e010000 	0x5e010000
     32c:	c00cec01 	lwc0	$12,-5119(zero)
     330:	c00d78bf 	lwc0	$13,30911(zero)
     334:	0001dcbf 	0x1dcbf
     338:	029f0100 	0x29f0100
     33c:	650e0000 	0x650e0000
     340:	695e0100 	0x695e0100
     344:	02000001 	0x2000001
     348:	8b150091 	lwl	s5,145(t8)
     34c:	01000001 	0x1000001
     350:	00029f5e 	0x29f5e
     354:	04910200 	bgezal	a0,b58 <__bss_start-0x8ffff4a8>
     358:	00028715 	0x28715
     35c:	615e0100 	0x615e0100
     360:	02000000 	0x2000000
     364:	69100891 	0x69100891
     368:	60010064 	0x60010064
     36c:	0000003a 	0x3a
     370:	00709102 	0x709102
     374:	0056040c 	syscall	0x15810
     378:	01110000 	0x1110000
     37c:	000000c8 	0xc8
     380:	78016c01 	0x78016c01
     384:	e4bfc00d 	swc1	$f31,-16371(a1)
     388:	20bfc00d 	addi	ra,a1,-16371
     38c:	01000002 	0x1000002
     390:	000002e8 	0x2e8
     394:	00018b15 	0x18b15
     398:	9f6c0100 	0x9f6c0100
     39c:	02000002 	0x2000002
     3a0:	87150091 	lh	s5,145(t8)
     3a4:	01000002 	0x1000002
     3a8:	0000616c 	0x616c
     3ac:	04910200 	bgezal	a0,bb0 <__bss_start-0x8ffff450>
     3b0:	01006510 	0x1006510
     3b4:	0001696e 	0x1696e
     3b8:	70910200 	0x70910200
     3bc:	79011100 	0x79011100
     3c0:	01000000 	0x1000000
     3c4:	0de40179 	jal	79005e4 <__bss_start-0x886ffa1c>
     3c8:	0ee0bfc0 	jal	b82ff00 <__bss_start-0x847d0100>
     3cc:	0264bfc0 	0x264bfc0
     3d0:	0f010000 	jal	c040000 <__bss_start-0x83fc0000>
     3d4:	0e000003 	jal	800000c <__bss_start-0x87fffff4>
     3d8:	79010065 	0x79010065
     3dc:	00000169 	0x169
     3e0:	00009102 	srl	s2,zero,0x4
     3e4:	02000111 	0x2000111
     3e8:	8b010000 	lwl	at,0(t8)
     3ec:	c00ee001 	lwc0	$14,-8191(zero)
     3f0:	c00f98bf 	lwc0	$15,-26433(zero)
     3f4:	0002a8bf 	0x2a8bf
     3f8:	034e0100 	0x34e0100
     3fc:	650e0000 	0x650e0000
     400:	698b0100 	0x698b0100
     404:	02000001 	0x2000001
     408:	6f100091 	0x6f100091
     40c:	0100646c 	0x100646c
     410:	00034e8d 	break	0x3,0x13a
     414:	70910200 	0x70910200
     418:	00646912 	0x646912
     41c:	003a8e01 	0x3a8e01
     420:	0c000000 	jal	0 <__bss_start-0x90000000>
     424:	00007304 	0x7304
     428:	a1011600 	sb	at,5632(t0)
     42c:	01000000 	0x1000000
     430:	c00f98ae 	lwc0	$15,-26450(zero)
     434:	c00fc0bf 	lwc0	$15,-16193(zero)
     438:	0002ecbf 	0x2ecbf
     43c:	03800100 	0x3800100
     440:	69120000 	0x69120000
     444:	3ab00100 	xori	s0,s5,0x100
     448:	12000000 	beqz	s0,44c <__bss_start-0x8ffffbb4>
     44c:	b001006a 	0xb001006a
     450:	0000003a 	0x3a
     454:	fa011600 	0xfa011600
     458:	01000000 	0x1000000
     45c:	c00fc0b9 	lwc0	$15,-16199(zero)
     460:	c01054bf 	lwc0	$16,21695(zero)
     464:	000318bf 	0x318bf
     468:	03a60100 	0x3a60100
     46c:	65100000 	0x65100000
     470:	69bb0100 	0x69bb0100
     474:	02000001 	0x2000001
     478:	17007091 	bnez	t8,1c6c0 <__bss_start-0x8ffe3940>
     47c:	00014901 	0x14901
     480:	54ca0100 	0x54ca0100
     484:	9cbfc010 	0x9cbfc010
     488:	5cbfc010 	0x5cbfc010
     48c:	01000003 	0x1000003
     490:	02080118 	0x2080118
     494:	de010000 	0xde010000
     498:	c0109c01 	lwc0	$16,-25599(zero)
     49c:	c01118bf 	lwc0	$17,6335(zero)
     4a0:	0003a0bf 	0x3a0bf
     4a4:	03ee0100 	0x3ee0100
     4a8:	650e0000 	0x650e0000
     4ac:	69de0100 	0x69de0100
     4b0:	02000001 	0x2000001
     4b4:	69100091 	0x69100091
     4b8:	3ae00100 	xori	zero,s7,0x100
     4bc:	02000000 	0x2000000
     4c0:	0d007091 	jal	401c244 <__bss_start-0x8bfe3dbc>
     4c4:	00014101 	0x14101
     4c8:	01ea0100 	0x1ea0100
     4cc:	00000041 	0x41
     4d0:	bfc01118 	0xbfc01118
     4d4:	bfc01150 	0xbfc01150
     4d8:	000003e4 	0x3e4
     4dc:	00041901 	0x41901
     4e0:	00701000 	0x701000
     4e4:	0041ec01 	0x41ec01
     4e8:	91020000 	lbu	v0,0(t0)
     4ec:	010d0070 	0x10d0070
     4f0:	00000066 	0x66
     4f4:	4101f501 	bc0t	ffffd8fc <pds_str+0x403c6c74>
     4f8:	50000000 	0x50000000
     4fc:	88bfc011 	lwl	ra,-16367(a1)
     500:	28bfc011 	slti	ra,a1,-16367
     504:	01000004 	sllv	zero,zero,t0
     508:	00000444 	0x444
     50c:	01007010 	0x1007010
     510:	000041f7 	0x41f7
     514:	70910200 	0x70910200
     518:	0e011900 	jal	8046400 <__bss_start-0x87fb9c00>
     51c:	01000001 	0x1000001
     520:	11880102 	beq	t4,t0,92c <__bss_start-0x8ffff6d4>
     524:	11e4bfc0 	beq	t7,a0,ffff0428 <pds_str+0x403b97a0>
     528:	046cbfc0 	0x46cbfc0
     52c:	86010000 	lh	at,0(s0)
     530:	1a000004 	blez	s0,544 <__bss_start-0x8ffffabc>
     534:	04010069 	b	6dc <__bss_start-0x8ffff924>
     538:	00003a01 	0x3a01
     53c:	70910200 	0x70910200
     540:	c011981b 	lwc0	$17,-26597(zero)
     544:	c011dcbf 	lwc0	$17,-9025(zero)
     548:	86011cbf 	lh	at,7359(s0)
     54c:	01000001 	0x1000001
     550:	003a0109 	0x3a0109
     554:	1d010000 	0x1d010000
     558:	19000000 	blez	t0,55c <__bss_start-0x8ffffaa4>
     55c:	0000f401 	0xf401
     560:	010f0100 	0x10f0100
     564:	bfc011e4 	0xbfc011e4
     568:	bfc01240 	0xbfc01240
     56c:	00000498 	0x498
     570:	0004df01 	0x4df01
     574:	00691a00 	0x691a00
     578:	3a011101 	xori	at,s0,0x1101
     57c:	02000000 	0x2000000
     580:	731e7091 	0x731e7091
     584:	12010072 	beq	s0,at,750 <__bss_start-0x8ffff8b0>
     588:	00004101 	0x4101
     58c:	00601f00 	0x601f00
     590:	12010000 	beq	s0,at,594 <__bss_start-0x8ffffa6c>
     594:	00004101 	0x4101
     598:	11f41b00 	beq	t7,s4,719c <__bss_start-0x8fff8e64>
     59c:	1238bfc0 	beq	s1,t8,ffff04a0 <pds_str+0x403b9818>
     5a0:	011cbfc0 	0x11cbfc0
     5a4:	00000186 	0x186
     5a8:	3a010901 	xori	at,s0,0x901
     5ac:	01000000 	0x1000000
     5b0:	0000001d 	0x1d
     5b4:	01080119 	0x1080119
     5b8:	1e010000 	0x1e010000
     5bc:	c0124001 	lwc0	$18,16385(zero)
     5c0:	c0129cbf 	lwc0	$18,-25409(zero)
     5c4:	0004c4bf 	0x4c4bf
     5c8:	05380100 	0x5380100
     5cc:	691a0000 	0x691a0000
     5d0:	01200100 	0x1200100
     5d4:	0000003a 	0x3a
     5d8:	1e709102 	0x1e709102
     5dc:	01007273 	0x1007273
     5e0:	00410121 	0x410121
     5e4:	601f0000 	0x601f0000
     5e8:	01000000 	0x1000000
     5ec:	00410121 	0x410121
     5f0:	501b0000 	0x501b0000
     5f4:	94bfc012 	lhu	ra,-16366(a1)
     5f8:	1cbfc012 	0x1cbfc012
     5fc:	00018601 	0x18601
     600:	01090100 	0x1090100
     604:	0000003a 	0x3a
     608:	00001d01 	0x1d01
     60c:	b2011900 	0xb2011900
     610:	01000001 	0x1000001
     614:	129c012e 	beq	s4,gp,ad0 <__bss_start-0x8ffff530>
     618:	13c0bfc0 	beqz	s8,ffff051c <pds_str+0x403b9894>
     61c:	04f0bfc0 	bltzal	a3,ffff0520 <pds_str+0x403b9898>
     620:	60010000 	0x60010000
     624:	1a000005 	blez	s0,63c <__bss_start-0x8ffff9c4>
     628:	30010065 	andi	at,zero,0x65
     62c:	00016901 	0x16901
     630:	70910200 	0x70910200
     634:	bb011900 	swr	at,6400(t8)
     638:	01000001 	0x1000001
     63c:	13c00144 	beqz	s8,b50 <__bss_start-0x8ffff4b0>
     640:	14e4bfc0 	bne	a3,a0,ffff0544 <pds_str+0x403b98bc>
     644:	0534bfc0 	0x534bfc0
     648:	88010000 	lwl	at,0(zero)
     64c:	1a000005 	blez	s0,664 <__bss_start-0x8ffff99c>
     650:	46010065 	c1	0x10065
     654:	00016901 	0x16901
     658:	70910200 	0x70910200
     65c:	24011900 	li	at,6400
     660:	01000001 	0x1000001
     664:	14e4015a 	bne	a3,a0,bd0 <__bss_start-0x8ffff430>
     668:	1608bfc0 	bne	s0,t0,ffff056c <pds_str+0x403b98e4>
     66c:	0578bfc0 	0x578bfc0
     670:	b0010000 	0xb0010000
     674:	1a000005 	blez	s0,68c <__bss_start-0x8ffff974>
     678:	5c010065 	0x5c010065
     67c:	00016901 	0x16901
     680:	70910200 	0x70910200
     684:	01db0f00 	0x1db0f00
     688:	10010000 	beq	zero,at,68c <__bss_start-0x8ffff974>
     68c:	00000175 	0x175
     690:	32900305 	andi	s0,s4,0x305
     694:	21089000 	addi	t0,t0,-28672
     698:	d1000001 	0xd1000001
     69c:	09000005 	j	4000014 <__bss_start-0x8bffffec>
     6a0:	000000f5 	0xf5
     6a4:	d320003f 	0xd320003f
     6a8:	01000000 	0x1000000
     6ac:	0005c10d 	break	0x5,0x304
     6b0:	03050100 	0x3050100
     6b4:	90000010 	lbu	zero,16(zero)
     6b8:	00009020 	add	s2,zero,zero
     6bc:	690e0100 	0x690e0100
     6c0:	01000001 	0x1000001
     6c4:	00000305 	0x305
     6c8:	aa219000 	swl	at,-28672(s1)
     6cc:	01000000 	0x1000000
     6d0:	00060214 	0x60214
     6d4:	0c010100 	jal	40400 <__bss_start-0x8ffbfc00>
     6d8:	00060804 	sllv	at,a2,zero
     6dc:	06010200 	bgez	s0,ee0 <__bss_start-0x8ffff120>
     6e0:	00000014 	0x14
     6e4:	0005c900 	sll	t9,a1,0x4
     6e8:	b3000200 	0xb3000200
     6ec:	04000002 	bltz	zero,6f8 <__bss_start-0x8ffff908>
     6f0:	00001e01 	0x1e01
     6f4:	02280100 	0x2280100
     6f8:	002a0000 	0x2a0000
     6fc:	18200000 	blez	at,700 <__bss_start-0x8ffff900>
     700:	1ee4bfc0 	0x1ee4bfc0
     704:	0233bfc0 	0x233bfc0
     708:	01020000 	0x1020000
     70c:	00000b08 	0xb08
     710:	05020200 	0x5020200
     714:	000001cb 	0x1cb
     718:	e1070202 	swc0	$7,514(t0)
     71c:	03000000 	0x3000000
     720:	6e690504 	0x6e690504
     724:	c5040074 	lwc1	$f4,116(t0)
     728:	02000002 	0x2000002
     72c:	00004c10 	0x4c10
     730:	07040200 	0x7040200
     734:	00000174 	0x174
     738:	a4050802 	sh	a1,2050(zero)
     73c:	02000001 	0x2000001
     740:	016a0708 	0x16a0708
     744:	d5040000 	0xd5040000
     748:	02000001 	0x2000001
     74c:	00004c18 	0x4c18
     750:	07040200 	0x7040200
     754:	0000016f 	0x16f
     758:	00022104 	0x22104
     75c:	411f0200 	0x411f0200
     760:	05000000 	bltz	t0,764 <__bss_start-0x8ffff89c>
     764:	00000097 	0x97
     768:	f0160398 	0xf0160398
     76c:	06000000 	bltz	s0,770 <__bss_start-0x8ffff890>
     770:	00000181 	0x181
     774:	00f01803 	0xf01803
     778:	23020000 	addi	v0,t8,0
     77c:	01360600 	0x1360600
     780:	1b030000 	0x1b030000
     784:	0000006c 	0x6c
     788:	01802303 	0x1802303
     78c:	00696807 	srav	t5,t1,v1
     790:	006c1c03 	0x6c1c03
     794:	23030000 	addi	v1,t8,0
     798:	6c070184 	0x6c070184
     79c:	1d03006f 	0x1d03006f
     7a0:	0000006c 	0x6c
     7a4:	01882303 	0x1882303
     7a8:	00005c06 	0x5c06
     7ac:	6c1e0300 	0x6c1e0300
     7b0:	03000000 	0x3000000
     7b4:	06018c23 	bgez	s0,fffe3844 <pds_str+0x403acbbc>
     7b8:	00000071 	0x71
     7bc:	006c1f03 	0x6c1f03
     7c0:	23030000 	addi	v1,t8,0
     7c4:	70070190 	0x70070190
     7c8:	20030063 	addi	v1,zero,99
     7cc:	0000006c 	0x6c
     7d0:	01942303 	0x1942303
     7d4:	006c0800 	0x6c0800
     7d8:	01000000 	0x1000000
     7dc:	00090000 	sll	zero,t1,0x0
     7e0:	1f000001 	bgtz	t8,7e8 <__bss_start-0x8ffff818>
     7e4:	07040200 	0x7040200
     7e8:	0000019b 	0x19b
     7ec:	2d03080a 	sltiu	v1,t0,2058
     7f0:	0000012c 	0x12c
     7f4:	00011c06 	0x11c06
     7f8:	742d0300 	jalx	b40c00 <__bss_start-0x8f4bf400>
     7fc:	02000001 	0x2000001
     800:	c0060023 	lwc0	$6,35(zero)
     804:	03000000 	0x3000000
     808:	00017a2d 	0x17a2d
     80c:	04230200 	0x4230200
     810:	6e450b00 	0x6e450b00
     814:	03a80076 	0x3a80076
     818:	00017429 	0x17429
     81c:	01ef0600 	0x1ef0600
     820:	2a030000 	slti	v1,s0,0
     824:	0000007e 	0x7e
     828:	06002302 	bltz	s0,9434 <__bss_start-0x8fff6bcc>
     82c:	000000b9 	0xb9
     830:	00612b03 	0x612b03
     834:	23030000 	addi	v1,t8,0
     838:	85060198 	lh	a2,408(t0)
     83c:	03000000 	0x3000000
     840:	0000612c 	0x612c
     844:	9c230300 	0x9c230300
     848:	01920601 	0x1920601
     84c:	2d030000 	sltiu	v1,t0,0
     850:	00000107 	0x107
     854:	01a02303 	0x1a02303
     858:	2c040c00 	sltiu	a0,zero,3072
     85c:	0c000001 	jal	4 <__bss_start-0x8ffffffc>
     860:	00017404 	0x17404
     864:	38010d00 	xori	at,zero,0xd00
     868:	01000002 	0x1000002
     86c:	00003a3a 	0x3a3a
     870:	c0182000 	lwc0	$24,8192(zero)
     874:	c01910bf 	lwc0	$25,4287(zero)
     878:	0005bcbf 	0x5bcbf
     87c:	01f00100 	0x1f00100
     880:	300e0000 	andi	t6,zero,0x0
     884:	01000003 	0x1000003
     888:	0001f03c 	0x1f03c
     88c:	70910200 	0x70910200
     890:	0003360e 	0x3360e
     894:	f03d0100 	0xf03d0100
     898:	02000001 	0x2000001
     89c:	690f7491 	0x690f7491
     8a0:	4c3f0100 	0x4c3f0100
     8a4:	0f000000 	jal	c000000 <__bss_start-0x84000000>
     8a8:	3f01006a 	0x3f01006a
     8ac:	0000004c 	syscall	0x1
     8b0:	0072730f 	0x72730f
     8b4:	004c4001 	0x4c4001
     8b8:	60100000 	0x60100000
     8bc:	01000000 	0x1000000
     8c0:	00004c40 	sll	t1,zero,0x11
     8c4:	6d011100 	0x6d011100
     8c8:	01000002 	0x1000002
     8cc:	00003a72 	0x3a72
     8d0:	00120100 	sll	zero,s2,0x4
     8d4:	4c040c00 	0x4c040c00
     8d8:	13000000 	beqz	t8,8dc <__bss_start-0x8ffff724>
     8dc:	0002bf01 	0x2bf01
     8e0:	018a0100 	0x18a0100
     8e4:	bfc01910 	0xbfc01910
     8e8:	bfc01a30 	0xbfc01a30
     8ec:	000005e8 	0x5e8
     8f0:	00024901 	0x24901
     8f4:	72731400 	0x72731400
     8f8:	8a010063 	lwl	at,99(s0)
     8fc:	00000249 	0x249
     900:	14009102 	bnez	zero,fffe4d0c <pds_str+0x403ae084>
     904:	00747364 	0x747364
     908:	02508a01 	0x2508a01
     90c:	91020000 	lbu	v0,0(t0)
     910:	656c1404 	0x656c1404
     914:	8a01006e 	lwl	at,110(s0)
     918:	00000073 	0x73
     91c:	15089102 	bne	t0,t0,fffe4d28 <pds_str+0x403ae0a0>
     920:	0078616d 	0x78616d
     924:	02508c01 	0x2508c01
     928:	91020000 	lbu	v0,0(t0)
     92c:	040c0070 	0x40c0070
     930:	0000024f 	0x24f
     934:	13041716 	beq	t8,a0,6590 <__bss_start-0x8fff9a70>
     938:	00025101 	0x25101
     93c:	01a20100 	0x1a20100
     940:	bfc01a30 	0xbfc01a30
     944:	bfc01ab4 	0xbfc01ab4
     948:	0000062c 	0x62c
     94c:	00029d01 	0x29d01
     950:	00761400 	0x761400
     954:	0250a201 	0x250a201
     958:	91020000 	lbu	v0,0(t0)
     95c:	006e1400 	0x6e1400
     960:	0061a201 	0x61a201
     964:	91020000 	lbu	v0,0(t0)
     968:	00701504 	0x701504
     96c:	029da401 	0x29da401
     970:	91020000 	lbu	v0,0(t0)
     974:	006d1570 	0x6d1570
     978:	003aa501 	0x3aa501
     97c:	91020000 	lbu	v0,0(t0)
     980:	040c0074 	0x40c0074
     984:	000002a3 	0x2a3
     988:	14060102 	bne	zero,a2,d94 <__bss_start-0x8ffff26c>
     98c:	18000000 	blez	zero,990 <__bss_start-0x8ffff670>
     990:	0000022f 	0x22f
     994:	4c01b101 	0x4c01b101
     998:	b4000000 	0xb4000000
     99c:	ecbfc01a 	swc3	$31,-16358(a1)
     9a0:	70bfc01a 	0x70bfc01a
     9a4:	01000006 	srlv	zero,zero,t0
     9a8:	000002d4 	0x2d4
     9ac:	01007015 	0x1007015
     9b0:	00004cb3 	0x4cb3
     9b4:	70910200 	0x70910200
     9b8:	033d1800 	0x33d1800
     9bc:	bc010000 	0xbc010000
     9c0:	00004c01 	0x4c01
     9c4:	c01aec00 	lwc0	$26,-5120(zero)
     9c8:	c01b24bf 	lwc0	$27,9407(zero)
     9cc:	0006b4bf 	0x6b4bf
     9d0:	02fe0100 	0x2fe0100
     9d4:	70150000 	0x70150000
     9d8:	4cbe0100 	0x4cbe0100
     9dc:	02000000 	0x2000000
     9e0:	19007091 	blez	t0,1cc28 <__bss_start-0x8ffe33d8>
     9e4:	00030c01 	0x30c01
     9e8:	01c80100 	0x1c80100
     9ec:	bfc01b24 	0xbfc01b24
     9f0:	bfc01b90 	0xbfc01b90
     9f4:	000006f8 	0x6f8
     9f8:	00034201 	0x34201
     9fc:	72731500 	0x72731500
     a00:	4cca0100 	0x4cca0100
     a04:	02000000 	0x2000000
     a08:	600e7091 	0x600e7091
     a0c:	01000000 	0x1000000
     a10:	00004cca 	0x4cca
     a14:	6c910200 	0x6c910200
     a18:	0003300e 	0x3300e
     a1c:	f0cc0100 	0xf0cc0100
     a20:	02000001 	0x2000001
     a24:	1a006891 	blez	s0,1ac6c <__bss_start-0x8ffe5394>
     a28:	00030101 	0x30101
     a2c:	01dd0100 	0x1dd0100
     a30:	bfc01b90 	0xbfc01b90
     a34:	bfc01bb0 	0xbfc01bb0
     a38:	0000073c 	0x73c
     a3c:	63011b01 	0x63011b01
     a40:	01000002 	0x1000002
     a44:	b0010108 	0xb0010108
     a48:	d0bfc01b 	0xd0bfc01b
     a4c:	80bfc01b 	lb	ra,-16357(a1)
     a50:	01000007 	srav	zero,zero,t0
     a54:	02f7011c 	0x2f7011c
     a58:	0f010000 	jal	c040000 <__bss_start-0x83fc0000>
     a5c:	1bd00101 	0x1bd00101
     a60:	1c54bfc0 	0x1c54bfc0
     a64:	07c4bfc0 	0x7c4bfc0
     a68:	98010000 	lwr	at,0(zero)
     a6c:	1d000003 	bgtz	t0,a7c <__bss_start-0x8ffff584>
     a70:	0f01006e 	jal	c0401b8 <__bss_start-0x83fbfe48>
     a74:	00002501 	0x2501
     a78:	00910200 	0x910200
     a7c:	8c011c00 	lw	at,7168(zero)
     a80:	01000002 	0x1000002
     a84:	54010115 	0x54010115
     a88:	48bfc01c 	0x48bfc01c
     a8c:	08bfc01d 	j	2ff0074 <__bss_start-0x8d00ff8c>
     a90:	01000008 	jr	t0
     a94:	00000418 	0x418
     a98:	01006e1d 	0x1006e1d
     a9c:	01f00115 	0x1f00115
     aa0:	91020000 	lbu	v0,0(t0)
     aa4:	00691e00 	0x691e00
     aa8:	3a011701 	xori	at,s0,0x1701
     aac:	03000000 	0x3000000
     ab0:	1e7fb891 	0x1e7fb891
     ab4:	00667562 	0x667562
     ab8:	18011801 	0x18011801
     abc:	02000004 	sllv	zero,zero,s0
     ac0:	631e4491 	0x631e4491
     ac4:	18010068 	0x18010068
     ac8:	00042801 	0x42801
     acc:	bc910300 	0xbc910300
     ad0:	00631e7f 	0x631e7f
     ad4:	25011901 	addiu	at,t0,6401
     ad8:	02000000 	0x2000000
     adc:	631e4091 	0x631e4091
     ae0:	0100685f 	0x100685f
     ae4:	00250119 	0x250119
     ae8:	91020000 	lbu	v0,0(t0)
     aec:	5f631e42 	0x5f631e42
     af0:	1901006c 	0x1901006c
     af4:	00002501 	0x2501
     af8:	41910200 	0x41910200
     afc:	00250800 	0x250800
     b00:	04280000 	0x4280000
     b04:	00090000 	sll	zero,t1,0x0
     b08:	31000001 	andi	zero,t0,0x1
     b0c:	25040c00 	addiu	a0,t0,3072
     b10:	1c000000 	bgtz	zero,b14 <__bss_start-0x8ffff4ec>
     b14:	00021201 	0x21201
     b18:	012a0100 	0x12a0100
     b1c:	c01d4801 	lwc0	$29,18433(zero)
     b20:	c01e78bf 	lwc0	$30,30911(zero)
     b24:	00084fbf 	0x84fbf
     b28:	04ae0100 	0x4ae0100
     b2c:	6e1d0000 	0x6e1d0000
     b30:	012a0100 	0x12a0100
     b34:	000001f0 	0x1f0
     b38:	1e009102 	bgtz	s0,fffe4f44 <pds_str+0x403ae2bc>
     b3c:	2c010069 	sltiu	at,zero,105
     b40:	00003a01 	0x3a01
     b44:	b8910300 	swr	s1,768(a0)
     b48:	75621e7f 	jalx	58879fc <__bss_start-0x8a778604>
     b4c:	2d010066 	sltiu	at,t0,102
     b50:	00041801 	0x41801
     b54:	44910200 	0x44910200
     b58:	0068631e 	0x68631e
     b5c:	28012d01 	slti	at,zero,11521
     b60:	03000004 	sllv	zero,zero,t8
     b64:	1e7fbc91 	0x1e7fbc91
     b68:	2e010063 	sltiu	at,s0,99
     b6c:	00002501 	0x2501
     b70:	40910200 	0x40910200
     b74:	685f631e 	0x685f631e
     b78:	012e0100 	0x12e0100
     b7c:	00000025 	move	zero,zero
     b80:	1e429102 	0x1e429102
     b84:	006c5f63 	0x6c5f63
     b88:	25012e01 	addiu	at,t0,11777
     b8c:	02000000 	0x2000000
     b90:	1f004191 	bgtz	t8,111d8 <__bss_start-0x8ffeee28>
     b94:	0002b501 	0x2b501
     b98:	01400100 	0x1400100
     b9c:	c01e7801 	lwc0	$30,30721(zero)
     ba0:	c01ee4bf 	lwc0	$30,-6977(zero)
     ba4:	000896bf 	0x896bf
     ba8:	04f30100 	0x4f30100
     bac:	6e1d0000 	0x6e1d0000
     bb0:	01400100 	0x1400100
     bb4:	000001f0 	0x1f0
     bb8:	1d009102 	bgtz	t0,fffe4fc4 <pds_str+0x403ae33c>
     bbc:	006e656c 	0x6e656c
     bc0:	3a014001 	xori	at,s0,0x4001
     bc4:	02000000 	0x2000000
     bc8:	691e0491 	0x691e0491
     bcc:	01420100 	0x1420100
     bd0:	0000003a 	0x3a
     bd4:	00709102 	0x709102
     bd8:	00002508 	0x2508
     bdc:	00050600 	sll	zero,a1,0x18
     be0:	01002000 	0x1002000
     be4:	0faf0000 	jal	ebc0000 <__bss_start-0x81440000>
     be8:	21000001 	addi	zero,t0,1
     bec:	000002cf 	0x2cf
     bf0:	04f30104 	0x4f30104
     bf4:	05010000 	bgez	t0,bf8 <__bss_start-0x8ffff408>
     bf8:	c03ee003 	lwc0	$30,-8189(at)
     bfc:	027922bf 	0x27922bf
     c00:	fd040000 	0xfd040000
     c04:	00004c10 	0x4c10
     c08:	03050100 	0x3050100
     c0c:	bfc14e90 	0xbfc14e90
     c10:	00002508 	0x2508
     c14:	00053e00 	sll	a3,a1,0x18
     c18:	01002000 	0x1002000
     c1c:	0eff0000 	jal	bfc0000 <__bss_start-0x84040000>
     c20:	21000001 	addi	zero,t0,1
     c24:	0000023d 	0x23d
     c28:	052b0105 	0x52b0105
     c2c:	05010000 	bgez	t0,c30 <__bss_start-0x8ffff3d0>
     c30:	c14e9403 	lwc0	$14,-27645(t2)
     c34:	031d22bf 	0x31d22bf
     c38:	f2050000 	0xf2050000
     c3c:	00004c10 	0x4c10
     c40:	03050100 	0x3050100
     c44:	bfc25d94 	0xbfc25d94
     c48:	00002508 	0x2508
     c4c:	00057600 	sll	t6,a1,0x18
     c50:	01002000 	0x1002000
     c54:	0eeb0000 	jal	bac0000 <__bss_start-0x84540000>
     c58:	21000001 	addi	zero,t0,1
     c5c:	000002e3 	0x2e3
     c60:	05630106 	0x5630106
     c64:	05010000 	bgez	t0,c68 <__bss_start-0x8ffff398>
     c68:	c25d9803 	lwc0	$29,-26621(s2)
     c6c:	029a22bf 	0x29a22bf
     c70:	f1060000 	0xf1060000
     c74:	00004c10 	0x4c10
     c78:	03050100 	0x3050100
     c7c:	bfc36c84 	0xbfc36c84
     c80:	00009023 	negu	s2,zero
     c84:	740f0100 	jalx	3c0400 <__bss_start-0x8fc3fc00>
     c88:	01000001 	0x1000001
     c8c:	02ad2101 	0x2ad2101
     c90:	15010000 	bne	t0,at,c94 <__bss_start-0x8ffff36c>
     c94:	00000428 	0x428
     c98:	88030501 	lwl	v1,1281(zero)
     c9c:	21bfc36c 	addi	ra,t5,-15508
     ca0:	00000257 	0x257
     ca4:	003a1901 	0x3a1901
     ca8:	05010000 	bgez	t0,cac <__bss_start-0x8ffff354>
     cac:	00329803 	0x329803
     cb0:	00e60090 	0xe60090
     cb4:	00020000 	sll	zero,v0,0x0
     cb8:	000004dd 	0x4dd
     cbc:	001e0104 	0x1e0104
     cc0:	5d010000 	0x5d010000
     cc4:	2a000003 	slti	zero,s0,3
     cc8:	f0000000 	0xf0000000
     ccc:	70bfc01e 	0x70bfc01e
     cd0:	9ebfc01f 	0x9ebfc01f
     cd4:	02000003 	0x2000003
     cd8:	000b0801 	0xb0801
     cdc:	02020000 	0x2020000
     ce0:	0001cb05 	0x1cb05
     ce4:	07020200 	0x7020200
     ce8:	000000e1 	0xe1
     cec:	69050403 	0x69050403
     cf0:	0200746e 	0x200746e
     cf4:	01740704 	0x1740704
     cf8:	08020000 	j	80000 <__bss_start-0x8ff80000>
     cfc:	0001a405 	0x1a405
     d00:	07080200 	0x7080200
     d04:	0000016a 	0x16a
     d08:	6f070402 	0x6f070402
     d0c:	04000001 	bltz	zero,d14 <__bss_start-0x8ffff2ec>
     d10:	00000367 	0x367
     d14:	78030204 	0x78030204
     d18:	05000000 	bltz	t0,d1c <__bss_start-0x8ffff2e4>
     d1c:	00000349 	0x349
     d20:	003a0402 	0x3a0402
     d24:	23020000 	addi	v0,t8,0
     d28:	01060000 	0x1060000
     d2c:	00000364 	0x364
     d30:	a4010701 	sh	at,1793(zero)
     d34:	f0000000 	0xf0000000
     d38:	34bfc01e 	ori	ra,a1,0xc01e
     d3c:	dabfc01f 	0xdabfc01f
     d40:	01000008 	jr	t0
     d44:	000000a4 	0xa4
     d48:	00617007 	srav	t6,at,v1
     d4c:	00410701 	0x410701
     d50:	91020000 	lbu	v0,0(t0)
     d54:	04080000 	0x4080000
     d58:	0000005d 	0x5d
     d5c:	03500109 	0x3500109
     d60:	0c010000 	jal	40000 <__bss_start-0x8ffc0000>
     d64:	bfc01f34 	0xbfc01f34
     d68:	bfc01f70 	0xbfc01f70
     d6c:	0000091e 	0x91e
     d70:	005d0a01 	0x5d0a01
     d74:	00d00000 	0xd00000
     d78:	d00b0000 	0xd00b0000
     d7c:	ff000000 	0xff000000
     d80:	04020001 	0x4020001
     d84:	00019b07 	0x19b07
     d88:	036e0c00 	0x36e0c00
     d8c:	04010000 	b	d90 <__bss_start-0x8ffff270>
     d90:	000000bf 	0xbf
     d94:	10030501 	beq	zero,v1,219c <__bss_start-0x8fffde64>
     d98:	0090002a 	slt	zero,a0,s0
     d9c:	000004f1 	0x4f1
     da0:	05920002 	0x5920002
     da4:	01040000 	0x1040000
     da8:	0000001e 	0x1e
     dac:	0003ae01 	0x3ae01
     db0:	00002a00 	sll	a1,zero,0x8
     db4:	c01f7000 	lwc0	$31,28672(zero)
     db8:	c031dcbf 	lwc0	$17,-9025(at)
     dbc:	0003ecbf 	0x3ecbf
     dc0:	03c70200 	0x3c70200
     dc4:	28020000 	slti	v0,zero,0
     dc8:	00000030 	0x30
     dcc:	037f0403 	0x37f0403
     dd0:	ce020000 	lwc3	$2,0(s0)
     dd4:	02000003 	0x2000003
     dd8:	00002566 	0x2566
     ddc:	be010400 	0xbe010400
     de0:	01000003 	0x1000003
     de4:	1f700117 	0x1f700117
     de8:	2030bfc0 	addi	s0,at,-16448
     dec:	0962bfc0 	j	58aff00 <__bss_start-0x8a750100>
     df0:	8e010000 	lw	at,0(s0)
     df4:	05000000 	bltz	t0,df8 <__bss_start-0x8ffff208>
     df8:	00677261 	0x677261
     dfc:	008e1701 	0x8e1701
     e00:	91020000 	lbu	v0,0(t0)
     e04:	00730500 	0x730500
     e08:	00901701 	0x901701
     e0c:	91020000 	lbu	v0,0(t0)
     e10:	006c0504 	0x6c0504
     e14:	009d1701 	0x9d1701
     e18:	91020000 	lbu	v0,0(t0)
     e1c:	00690608 	0x690608
     e20:	009d1901 	0x9d1901
     e24:	91020000 	lbu	v0,0(t0)
     e28:	04070070 	0x4070070
     e2c:	00960408 	0x960408
     e30:	01090000 	0x1090000
     e34:	00000b08 	0xb08
     e38:	05040a00 	0x5040a00
     e3c:	00746e69 	0x746e69
     e40:	04ab0104 	0x4ab0104
     e44:	25010000 	addiu	at,t0,0
     e48:	c0203001 	lwc0	$0,12289(at)
     e4c:	c02088bf 	lwc0	$0,-30529(at)
     e50:	0009a6bf 	0x9a6bf
     e54:	00db0100 	0xdb0100
     e58:	66050000 	0x66050000
     e5c:	0100746d 	0x100746d
     e60:	00009025 	move	s2,zero
     e64:	00910200 	0x910200
     e68:	7061060b 	0x7061060b
     e6c:	36270100 	ori	a3,s1,0x100
     e70:	02000000 	0x2000000
     e74:	04007091 	bltz	zero,1d0bc <__bss_start-0x8ffe2f44>
     e78:	0003db01 	0x3db01
     e7c:	012e0100 	0x12e0100
     e80:	bfc02088 	0xbfc02088
     e84:	bfc020f8 	0xbfc020f8
     e88:	000009ea 	0x9ea
     e8c:	00012e01 	0x12e01
     e90:	03f50c00 	0x3f50c00
     e94:	2e010000 	sltiu	at,s0,0
     e98:	0000012e 	0x12e
     e9c:	0c009102 	jal	24408 <__bss_start-0x8ffdbbf8>
     ea0:	0000040d 	break	0x0,0x10
     ea4:	009d2e01 	0x9d2e01
     ea8:	91020000 	lbu	v0,0(t0)
     eac:	6d660504 	0x6d660504
     eb0:	2e010074 	sltiu	at,s0,116
     eb4:	0000012e 	0x12e
     eb8:	0b089102 	j	c224408 <__bss_start-0x83ddbbf8>
     ebc:	00706106 	0x706106
     ec0:	00363001 	0x363001
     ec4:	91020000 	lbu	v0,0(t0)
     ec8:	04080070 	0x4080070
     ecc:	00000134 	0x134
     ed0:	0000960d 	break	0x0,0x258
     ed4:	91010400 	lbu	at,1024(t0)
     ed8:	01000003 	0x1000003
     edc:	20f8015e 	addi	t8,a3,350
     ee0:	29f4bfc0 	slti	s4,t7,-16448
     ee4:	0a16bfc0 	j	85aff00 <__bss_start-0x87a50100>
     ee8:	33010000 	andi	at,t8,0x0
     eec:	05000002 	bltz	t0,ef8 <__bss_start-0x8ffff108>
     ef0:	00677261 	0x677261
     ef4:	008e5f01 	0x8e5f01
     ef8:	91020000 	lbu	v0,0(t0)
     efc:	6d660500 	0x6d660500
     f00:	60010074 	0x60010074
     f04:	00000090 	0x90
     f08:	05049102 	0x5049102
     f0c:	01007061 	0x1007061
     f10:	00003661 	0x3661
     f14:	08910200 	j	2440800 <__bss_start-0x8dbbf800>
     f18:	66756206 	0x66756206
     f1c:	336e0100 	andi	t6,k1,0x100
     f20:	03000002 	0x3000002
     f24:	067fa491 	0x67fa491
     f28:	70010063 	0x70010063
     f2c:	00000096 	0x96
     f30:	7f9c9103 	0x7f9c9103
     f34:	01007306 	0x1007306
     f38:	00009071 	0x9071
     f3c:	a0910300 	sb	s1,768(a0)
     f40:	756e067f 	jalx	5b819fc <__bss_start-0x8a47e604>
     f44:	7201006d 	0x7201006d
     f48:	0000024a 	0x24a
     f4c:	7ef89103 	0x7ef89103
     f50:	0004390e 	0x4390e
     f54:	9d740100 	0x9d740100
     f58:	03000000 	0x3000000
     f5c:	0e7efc91 	jal	9fbf244 <__bss_start-0x86040dbc>
     f60:	000003b6 	0x3b6
     f64:	009d7501 	0x9d7501
     f68:	91030000 	lbu	v1,0(t0)
     f6c:	ef0e7f80 	swc3	$14,32640(t8)
     f70:	01000003 	0x1000003
     f74:	00009d76 	0x9d76
     f78:	84910300 	lh	s1,768(a0)
     f7c:	04270e7f 	0x4270e7f
     f80:	77010000 	jalx	c040000 <__bss_start-0x83fc0000>
     f84:	0000009d 	0x9d
     f88:	7f889103 	0x7f889103
     f8c:	0003e70e 	0x3e70e
     f90:	9d780100 	0x9d780100
     f94:	03000000 	0x3000000
     f98:	0e7f8c91 	jal	9fe3244 <__bss_start-0x8601cdbc>
     f9c:	000003e2 	0x3e2
     fa0:	00967901 	0x967901
     fa4:	91030000 	lbu	v1,0(t0)
     fa8:	4c0e7f90 	0x4c0e7f90
     fac:	01000004 	sllv	zero,zero,t0
     fb0:	00009d7b 	0x9d7b
     fb4:	98910300 	lwr	s1,768(a0)
     fb8:	00000f7f 	0xf7f
     fbc:	760e0000 	jalx	8380000 <__bss_start-0x87c80000>
     fc0:	01000003 	0x1000003
     fc4:	00009080 	sll	s2,zero,0x2
     fc8:	94910300 	lhu	s1,768(a0)
     fcc:	1000007f 	b	11cc <__bss_start-0x8fffee34>
     fd0:	00000096 	0x96
     fd4:	00000243 	sra	zero,zero,0x9
     fd8:	00024311 	0x24311
     fdc:	09004f00 	j	4013c00 <__bss_start-0x8bfec400>
     fe0:	019b0704 	0x19b0704
     fe4:	04090000 	0x4090000
     fe8:	0001a905 	0x1a905
     fec:	42011200 	c0	0x11200
     ff0:	01000004 	sllv	zero,zero,t0
     ff4:	9d01011d 	0x9d01011d
     ff8:	f4000000 	0xf4000000
     ffc:	34bfc029 	ori	ra,a1,0xc029
    1000:	5dbfc02b 	0x5dbfc02b
    1004:	0100000a 	0x100000a
    1008:	000002b8 	0x2b8
    100c:	66756213 	0x66756213
    1010:	011d0100 	0x11d0100
    1014:	00000090 	0x90
    1018:	13009102 	beqz	t8,fffe5424 <pds_str+0x403ae79c>
    101c:	1d010063 	0x1d010063
    1020:	00009601 	0x9601
    1024:	04910200 	bgezal	a0,1828 <__bss_start-0x8fffe7d8>
    1028:	00044c14 	0x44c14
    102c:	011d0100 	0x11d0100
    1030:	0000009d 	0x9d
    1034:	14089102 	bne	zero,t0,fffe5440 <pds_str+0x403ae7b8>
    1038:	000003e7 	0x3e7
    103c:	9d011d01 	0x9d011d01
    1040:	02000000 	0x2000000
    1044:	69150c91 	0x69150c91
    1048:	011f0100 	0x11f0100
    104c:	0000009d 	0x9d
    1050:	00709102 	0x709102
    1054:	041b0112 	0x41b0112
    1058:	2d010000 	sltiu	at,t0,0
    105c:	009d0101 	0x9d0101
    1060:	2b340000 	slti	s4,t9,0
    1064:	2d90bfc0 	sltiu	s0,t4,-16448
    1068:	0aa1bfc0 	j	a86ff00 <__bss_start-0x85790100>
    106c:	3c010000 	lui	at,0x0
    1070:	13000003 	beqz	t8,1080 <__bss_start-0x8fffef80>
    1074:	00667562 	0x667562
    1078:	90012d01 	lbu	at,11521(zero)
    107c:	02000000 	0x2000000
    1080:	73130091 	0x73130091
    1084:	012d0100 	0x12d0100
    1088:	00000090 	0x90
    108c:	14049102 	bne	zero,a0,fffe5498 <pds_str+0x403ae810>
    1090:	0000044c 	syscall	0x11
    1094:	9d012d01 	0x9d012d01
    1098:	02000000 	0x2000000
    109c:	e7140891 	swc1	$f20,2193(t8)
    10a0:	01000003 	0x1000003
    10a4:	009d012d 	0x9d012d
    10a8:	91020000 	lbu	v0,0(t0)
    10ac:	0069150c 	syscall	0x1a454
    10b0:	9d012f01 	0x9d012f01
    10b4:	02000000 	0x2000000
    10b8:	6c156891 	0x6c156891
    10bc:	01006e65 	0x1006e65
    10c0:	009d0130 	0x9d0130
    10c4:	91020000 	lbu	v0,0(t0)
    10c8:	3173156c 	andi	s3,t3,0x156c
    10cc:	01310100 	0x1310100
    10d0:	00000090 	0x90
    10d4:	00709102 	0x709102
    10d8:	03a00116 	0x3a00116
    10dc:	40010000 	mfc0	at,c0_index
    10e0:	2d900101 	sltiu	s0,t4,257
    10e4:	2f00bfc0 	sltiu	zero,t8,-16448
    10e8:	0ae5bfc0 	j	b96ff00 <__bss_start-0x84690100>
    10ec:	ba010000 	swr	at,0(s0)
    10f0:	13000003 	beqz	t8,1100 <__bss_start-0x8fffef00>
    10f4:	00667562 	0x667562
    10f8:	90014001 	lbu	at,16385(zero)
    10fc:	02000000 	0x2000000
    1100:	6e130091 	0x6e130091
    1104:	01400100 	0x1400100
    1108:	000003ba 	0x3ba
    110c:	15049102 	bne	t0,a0,fffe5518 <pds_str+0x403ae890>
    1110:	42010069 	c0	0x10069
    1114:	00009d01 	0x9d01
    1118:	68910200 	0x68910200
    111c:	00686315 	0x686315
    1120:	90014301 	lbu	at,17153(zero)
    1124:	02000000 	0x2000000
    1128:	63156c91 	0x63156c91
    112c:	01440100 	0x1440100
    1130:	00000096 	0x96
    1134:	15709102 	bne	t3,s0,fffe5540 <pds_str+0x403ae8b8>
    1138:	00685f63 	0x685f63
    113c:	96014401 	lhu	at,17409(s0)
    1140:	02000000 	0x2000000
    1144:	63157291 	0x63157291
    1148:	01006c5f 	0x1006c5f
    114c:	00960144 	0x960144
    1150:	91020000 	lbu	v0,0(t0)
    1154:	04080071 	0x4080071
    1158:	000003c0 	sll	zero,zero,0xf
    115c:	74070409 	jalx	1c1024 <__bss_start-0x8fe3efdc>
    1160:	17000001 	bnez	t8,1168 <__bss_start-0x8fffee98>
    1164:	00041201 	0x41201
    1168:	015d0100 	0x15d0100
    116c:	00009d01 	0x9d01
    1170:	c02f0000 	lwc0	$15,0(at)
    1174:	c031dcbf 	lwc0	$17,-9025(at)
    1178:	000b29bf 	0xb29bf
    117c:	04c70100 	0x4c70100
    1180:	62130000 	0x62130000
    1184:	01006675 	0x1006675
    1188:	0090015d 	0x90015d
    118c:	91020000 	lbu	v0,0(t0)
    1190:	00751300 	0x751300
    1194:	c7015d01 	lwc1	$f1,23809(t8)
    1198:	02000004 	sllv	zero,zero,s0
    119c:	d6140491 	0xd6140491
    11a0:	01000003 	0x1000003
    11a4:	009d015d 	0x9d015d
    11a8:	91020000 	lbu	v0,0(t0)
    11ac:	03b61408 	0x3b61408
    11b0:	5d010000 	0x5d010000
    11b4:	00009d01 	0x9d01
    11b8:	0c910200 	jal	2440800 <__bss_start-0x8dbbf800>
    11bc:	00044c14 	0x44c14
    11c0:	015e0100 	0x15e0100
    11c4:	0000009d 	0x9d
    11c8:	14109102 	bne	zero,s0,fffe55d4 <pds_str+0x403ae94c>
    11cc:	000003e7 	0x3e7
    11d0:	9d015e01 	0x9d015e01
    11d4:	02000000 	0x2000000
    11d8:	e2141491 	swc0	$20,5265(s0)
    11dc:	01000003 	0x1000003
    11e0:	0096015e 	0x96015e
    11e4:	91020000 	lbu	v0,0(t0)
    11e8:	03fa1470 	0x3fa1470
    11ec:	5e010000 	0x5e010000
    11f0:	00009d01 	0x9d01
    11f4:	1c910200 	0x1c910200
    11f8:	00042c18 	0x42c18
    11fc:	016a0100 	0x16a0100
    1200:	0000009d 	0x9d
    1204:	15689102 	bne	t3,t0,fffe5610 <pds_str+0x403ae988>
    1208:	6b010070 	0x6b010070
    120c:	00009001 	0x9001
    1210:	58910200 	0x58910200
    1214:	01006915 	0x1006915
    1218:	009d016c 	0x9d016c
    121c:	91020000 	lbu	v0,0(t0)
    1220:	30e0195c 	andi	zero,a3,0x195c
    1224:	31c0bfc0 	andi	zero,t6,0xbfc0
    1228:	9a18bfc0 	lwr	t8,-16448(s0)
    122c:	01000003 	0x1000003
    1230:	009d019b 	0x9d019b
    1234:	91020000 	lbu	v0,0(t0)
    1238:	6e651560 	0x6e651560
    123c:	9c010064 	0x9c010064
    1240:	00009d01 	0x9d01
    1244:	64910200 	0x64910200
    1248:	c0312419 	lwc0	$17,9241(at)
    124c:	c031a8bf 	lwc0	$17,-22337(at)
    1250:	6d7415bf 	0x6d7415bf
    1254:	a4010070 	sh	at,112(zero)
    1258:	00009601 	0x9601
    125c:	6c910200 	0x6c910200
    1260:	09000000 	j	4000000 <__bss_start-0x8c000000>
    1264:	016f0704 	0x16f0704
    1268:	96100000 	lhu	s0,0(s0)
    126c:	de000000 	0xde000000
    1270:	11000004 	beqz	t0,1284 <__bss_start-0x8fffed7c>
    1274:	00000243 	sra	zero,zero,0x9
    1278:	010e0018 	mult	t0,t6
    127c:	01000004 	sllv	zero,zero,t0
    1280:	0004ef58 	0x4ef58
    1284:	28030500 	slti	v1,zero,1280
    1288:	0dbfc03c 	jal	6ff00f0 <__bss_start-0x8900ff10>
    128c:	000004ce 	0x4ce
    1290:	0001e500 	sll	gp,at,0x14
    1294:	f4000200 	0xf4000200
    1298:	04000006 	bltz	zero,12b4 <__bss_start-0x8fffed4c>
    129c:	00001e01 	0x1e01
    12a0:	045f0100 	0x45f0100
    12a4:	002a0000 	0x2a0000
    12a8:	31e00000 	andi	zero,t7,0x0
    12ac:	3404bfc0 	li	a0,0xbfc0
    12b0:	069dbfc0 	0x69dbfc0
    12b4:	01020000 	0x1020000
    12b8:	00000b08 	0xb08
    12bc:	05020200 	0x5020200
    12c0:	000001cb 	0x1cb
    12c4:	e1070202 	swc0	$7,514(t0)
    12c8:	03000000 	0x3000000
    12cc:	6e690504 	0x6e690504
    12d0:	04020074 	0x4020074
    12d4:	00017407 	0x17407
    12d8:	05080200 	0x5080200
    12dc:	000001a4 	0x1a4
    12e0:	6a070802 	0x6a070802
    12e4:	04000001 	bltz	zero,12ec <__bss_start-0x8fffed14>
    12e8:	000001d5 	0x1d5
    12ec:	00411803 	0x411803
    12f0:	04020000 	0x4020000
    12f4:	00016f07 	0x16f07
    12f8:	00970500 	0x970500
    12fc:	02980000 	0x2980000
    1300:	0000da16 	0xda16
    1304:	01810600 	0x1810600
    1308:	18020000 	0x18020000
    130c:	000000da 	0xda
    1310:	06002302 	bltz	s0,9f1c <__bss_start-0x8fff60e4>
    1314:	00000136 	0x136
    1318:	00611b02 	0x611b02
    131c:	23030000 	addi	v1,t8,0
    1320:	68070180 	0x68070180
    1324:	1c020069 	0x1c020069
    1328:	00000061 	0x61
    132c:	01842303 	0x1842303
    1330:	006f6c07 	0x6f6c07
    1334:	00611d02 	0x611d02
    1338:	23030000 	addi	v1,t8,0
    133c:	5c060188 	0x5c060188
    1340:	02000000 	0x2000000
    1344:	0000611e 	0x611e
    1348:	8c230300 	lw	v1,768(at)
    134c:	00710601 	0x710601
    1350:	1f020000 	0x1f020000
    1354:	00000061 	0x61
    1358:	01902303 	0x1902303
    135c:	00637007 	srav	t6,v1,v1
    1360:	00612002 	0x612002
    1364:	23030000 	addi	v1,t8,0
    1368:	08000194 	j	650 <__bss_start-0x8ffff9b0>
    136c:	00000061 	0x61
    1370:	000000ea 	0xea
    1374:	0000ea09 	0xea09
    1378:	02001f00 	0x2001f00
    137c:	019b0704 	0x19b0704
    1380:	080a0000 	j	280000 <__bss_start-0x8fd80000>
    1384:	01162d02 	0x1162d02
    1388:	1c060000 	0x1c060000
    138c:	02000001 	0x2000001
    1390:	00015e2d 	0x15e2d
    1394:	00230200 	0x230200
    1398:	0000c006 	srlv	t8,zero,zero
    139c:	642d0200 	0x642d0200
    13a0:	02000001 	0x2000001
    13a4:	0b000423 	j	c00108c <__bss_start-0x83ffef74>
    13a8:	00766e45 	0x766e45
    13ac:	5e2902a8 	0x5e2902a8
    13b0:	06000001 	bltz	s0,13b8 <__bss_start-0x8fffec48>
    13b4:	000001ef 	0x1ef
    13b8:	00682a02 	0x682a02
    13bc:	23020000 	addi	v0,t8,0
    13c0:	00b90600 	0xb90600
    13c4:	2b020000 	slti	v0,t8,0
    13c8:	00000056 	0x56
    13cc:	01982303 	0x1982303
    13d0:	00008506 	0x8506
    13d4:	562c0200 	0x562c0200
    13d8:	03000000 	0x3000000
    13dc:	06019c23 	bgez	s0,fffe846c <pds_str+0x403b17e4>
    13e0:	00000192 	0x192
    13e4:	00f12d02 	0xf12d02
    13e8:	23030000 	addi	v1,t8,0
    13ec:	0c0001a0 	jal	680 <__bss_start-0x8ffff980>
    13f0:	00011604 	0x11604
    13f4:	5e040c00 	0x5e040c00
    13f8:	0d000001 	jal	4000004 <__bss_start-0x8bfffffc>
    13fc:	00045301 	0x45301
    1400:	010e0100 	0x10e0100
    1404:	bfc031e0 	0xbfc031e0
    1408:	bfc03404 	0xbfc03404
    140c:	00000b6d 	0xb6d
    1410:	0001ac01 	0x1ac01
    1414:	046f0e00 	0x46f0e00
    1418:	10010000 	beq	zero,at,141c <__bss_start-0x8fffebe4>
    141c:	0000003a 	0x3a
    1420:	0f6c9102 	jal	db24408 <__bss_start-0x824dbbf8>
    1424:	10010069 	beq	zero,at,15cc <__bss_start-0x8fffea34>
    1428:	0000003a 	0x3a
    142c:	0f689102 	jal	da24408 <__bss_start-0x825dbbf8>
    1430:	01006469 	0x1006469
    1434:	00003a11 	0x3a11
    1438:	70910200 	0x70910200
    143c:	01160800 	0x1160800
    1440:	01bc0000 	0x1bc0000
    1444:	ea090000 	swc2	$9,0(s0)
    1448:	3f000000 	0x3f000000
    144c:	00d31000 	0xd31000
    1450:	30020000 	andi	v0,zero,0x0
    1454:	000001ac 	0x1ac
    1458:	67110101 	0x67110101
    145c:	01000004 	sllv	zero,zero,t0
    1460:	00003a04 	0x3a04
    1464:	03050100 	0x3050100
    1468:	9000329c 	lbu	zero,12956(zero)
    146c:	00025710 	0x25710
    1470:	3a080100 	xori	t0,s0,0x100
    1474:	01000000 	0x1000000
    1478:	00ba0001 	0xba0001
    147c:	00020000 	sll	zero,v0,0x0
    1480:	000007e9 	0x7e9
    1484:	001e0104 	0x1e0104
    1488:	89010000 	lwl	at,0(t0)
    148c:	2a000004 	slti	zero,s0,4
    1490:	80000000 	lb	zero,0(zero)
    1494:	38bfc036 	xori	ra,a1,0xc036
    1498:	19bfc037 	0x19bfc037
    149c:	02000007 	srav	zero,zero,s0
    14a0:	000b0801 	0xb0801
    14a4:	02020000 	0x2020000
    14a8:	0001cb05 	0x1cb05
    14ac:	07020200 	0x7020200
    14b0:	000000e1 	0xe1
    14b4:	69050403 	0x69050403
    14b8:	0200746e 	0x200746e
    14bc:	01740704 	0x1740704
    14c0:	08020000 	j	80000 <__bss_start-0x8ff80000>
    14c4:	0001a405 	0x1a405
    14c8:	07080200 	0x7080200
    14cc:	0000016a 	0x16a
    14d0:	6f070402 	0x6f070402
    14d4:	02000001 	0x2000001
    14d8:	019b0704 	0x19b0704
    14dc:	01040000 	0x1040000
    14e0:	00000497 	0x497
    14e4:	80010d01 	lb	at,3329(zero)
    14e8:	c8bfc036 	lwc2	$31,-16330(a1)
    14ec:	b1bfc036 	0xb1bfc036
    14f0:	0100000b 	0x100000b
    14f4:	0000008c 	syscall	0x2
    14f8:	00686305 	0x686305
    14fc:	008c0d01 	0x8c0d01
    1500:	91020000 	lbu	v0,0(t0)
    1504:	01020000 	0x1020000
    1508:	00001406 	0x1406
    150c:	75010600 	jalx	4041800 <__bss_start-0x8bfbe800>
    1510:	01000004 	sllv	zero,zero,t0
    1514:	c036c812 	lwc0	$22,-14318(at)
    1518:	c03700bf 	lwc0	$23,191(at)
    151c:	000bf5bf 	0xbf5bf
    1520:	01060100 	0x1060100
    1524:	0000047e 	0x47e
    1528:	37001701 	ori	zero,t8,0x1701
    152c:	3738bfc0 	ori	t8,t9,0xbfc0
    1530:	0c39bfc0 	jal	e6ff00 <__bss_start-0x8f190100>
    1534:	00010000 	sll	zero,at,0x0
    1538:	00000102 	srl	zero,zero,0x4
    153c:	08520002 	j	1480008 <__bss_start-0x8eb7fff8>
    1540:	01040000 	0x1040000
    1544:	0000001e 	0x1e
    1548:	0004b201 	0x4b201
    154c:	00002a00 	sll	a1,zero,0x8
    1550:	c0378000 	lwc0	$23,-32768(at)
    1554:	c03868bf 	lwc0	$24,26815(at)
    1558:	000762bf 	0x762bf
    155c:	08010200 	j	40800 <__bss_start-0x8ffbf800>
    1560:	0000000b 	0xb
    1564:	cb050202 	lwc2	$5,514(t8)
    1568:	02000001 	0x2000001
    156c:	00e10702 	0xe10702
    1570:	04030000 	0x4030000
    1574:	746e6905 	jalx	1b9a414 <__bss_start-0x8e465bec>
    1578:	07040200 	0x7040200
    157c:	00000174 	0x174
    1580:	a4050802 	sh	a1,2050(zero)
    1584:	02000001 	0x2000001
    1588:	016a0708 	0x16a0708
    158c:	04020000 	0x4020000
    1590:	00016f07 	0x16f07
    1594:	07040200 	0x7040200
    1598:	0000019b 	0x19b
    159c:	04cd0104 	0x4cd0104
    15a0:	0d010000 	jal	4040000 <__bss_start-0x8bfc0000>
    15a4:	c0378001 	lwc0	$23,-32767(at)
    15a8:	c037d4bf 	lwc0	$23,-11073(at)
    15ac:	000c7dbf 	0xc7dbf
    15b0:	009b0100 	0x9b0100
    15b4:	63050000 	0x63050000
    15b8:	0d010068 	jal	40401a0 <__bss_start-0x8bfbfe60>
    15bc:	0000009b 	0x9b
    15c0:	06009102 	bltz	s0,fffe59cc <pds_str+0x403aed44>
    15c4:	0004dd01 	0x4dd01
    15c8:	3a0f0100 	xori	t7,s0,0x100
    15cc:	01000000 	0x1000000
    15d0:	02000007 	srav	zero,zero,s0
    15d4:	00140601 	0x140601
    15d8:	01040000 	0x1040000
    15dc:	000004a3 	0x4a3
    15e0:	d4011201 	0xd4011201
    15e4:	20bfc037 	addi	ra,a1,-16329
    15e8:	c1bfc038 	lwc0	$31,-16328(t5)
    15ec:	0100000c 	syscall	0x40000
    15f0:	000000da 	0xda
    15f4:	746d6605 	jalx	1b59814 <__bss_start-0x8e4a67ec>
    15f8:	da120100 	0xda120100
    15fc:	02000000 	0x2000000
    1600:	01060091 	0x1060091
    1604:	000004dd 	0x4dd
    1608:	003a0f01 	0x3a0f01
    160c:	07010000 	bgez	t8,1610 <__bss_start-0x8fffe9f0>
    1610:	04080000 	0x4080000
    1614:	0000009b 	0x9b
    1618:	04c00109 	bltz	a2,1a40 <__bss_start-0x8fffe5c0>
    161c:	17010000 	bne	t8,at,1620 <__bss_start-0x8fffe9e0>
    1620:	bfc03820 	0xbfc03820
    1624:	bfc03868 	0xbfc03868
    1628:	00000d05 	0xd05
    162c:	dd010601 	0xdd010601
    1630:	01000004 	sllv	zero,zero,t0
    1634:	00003a0f 	0x3a0f
    1638:	00070100 	sll	zero,a3,0x4
    163c:	01000000 	0x1000000
    1640:	00020000 	sll	zero,v0,0x0
    1644:	000008da 	0x8da
    1648:	001e0104 	0x1e0104
    164c:	01010000 	0x1010000
    1650:	2a000005 	slti	zero,s0,5
    1654:	70000000 	0x70000000
    1658:	84bfc038 	lh	ra,-16328(a1)
    165c:	afbfc039 	sw	ra,-16327(sp)
    1660:	02000007 	srav	zero,zero,s0
    1664:	000b0801 	0xb0801
    1668:	02020000 	0x2020000
    166c:	0001cb05 	0x1cb05
    1670:	07020200 	0x7020200
    1674:	000000e1 	0xe1
    1678:	69050403 	0x69050403
    167c:	0200746e 	0x200746e
    1680:	01740704 	0x1740704
    1684:	08020000 	j	80000 <__bss_start-0x8ff80000>
    1688:	0001a405 	0x1a405
    168c:	07080200 	0x7080200
    1690:	0000016a 	0x16a
    1694:	6f070402 	0x6f070402
    1698:	04000001 	bltz	zero,16a0 <__bss_start-0x8fffe960>
    169c:	00000056 	0x56
    16a0:	0000006d 	0x6d
    16a4:	00006d05 	0x6d05
    16a8:	02001f00 	0x2001f00
    16ac:	019b0704 	0x19b0704
    16b0:	01060000 	0x1060000
    16b4:	000004e6 	0x4e6
    16b8:	38700c01 	xori	s0,v1,0xc01
    16bc:	3904bfc0 	xori	a0,t0,0xbfc0
    16c0:	0d49bfc0 	jal	526ff00 <__bss_start-0x8ad90100>
    16c4:	9a010000 	lwr	at,0(s0)
    16c8:	07000000 	bltz	t8,16cc <__bss_start-0x8fffe934>
    16cc:	0d010069 	jal	40401a4 <__bss_start-0x8bfbfe5c>
    16d0:	0000003a 	0x3a
    16d4:	00709102 	0x709102
    16d8:	051c0108 	0x51c0108
    16dc:	17010000 	bne	t8,at,16e0 <__bss_start-0x8fffe920>
    16e0:	0000ef01 	0xef01
    16e4:	c0390400 	lwc0	$25,1024(at)
    16e8:	c03984bf 	lwc0	$25,-31553(at)
    16ec:	000d8dbf 	0xd8dbf
    16f0:	00ef0100 	0xef0100
    16f4:	6e090000 	0x6e090000
    16f8:	3a170100 	xori	s7,s0,0x100
    16fc:	02000000 	0x2000000
    1700:	f00a0091 	0xf00a0091
    1704:	01000004 	sllv	zero,zero,t0
    1708:	0000ef17 	0xef17
    170c:	04910200 	bgezal	a0,1f10 <__bss_start-0x8fffe0f0>
    1710:	0004f90b 	0x4f90b
    1714:	56180100 	0x56180100
    1718:	02000000 	0x2000000
    171c:	f50b7091 	0xf50b7091
    1720:	01000004 	sllv	zero,zero,t0
    1724:	00005619 	0x5619
    1728:	74910200 	jalx	2440800 <__bss_start-0x8dbbf800>
    172c:	0d040c00 	jal	4103000 <__bss_start-0x8befd000>
    1730:	00000509 	0x509
    1734:	005d0a01 	0x5d0a01
    1738:	05010000 	bgez	t0,173c <__bss_start-0x8fffe8c4>
    173c:	00321003 	0x321003
    1740:	Address 0x0000000000001740 is out of bounds.


Disassembly of section .debug_abbrev:

00000000 <.debug_abbrev>:
   0:	25011101 	addiu	at,t0,4353
   4:	030b130e 	0x30b130e
   8:	110e1b0e 	beq	t0,t6,6c44 <__bss_start-0x8fff93bc>
   c:	10011201 	beq	zero,at,4814 <__bss_start-0x8fffb7ec>
  10:	02000006 	srlv	zero,zero,s0
  14:	0b0b0024 	j	c2c0090 <__bss_start-0x83d3ff70>
  18:	0e030b3e 	jal	80c2cf8 <__bss_start-0x87f3d308>
  1c:	2e030000 	sltiu	v1,s0,0
  20:	030c3f01 	0x30c3f01
  24:	3b0b3a0e 	xori	t3,t8,0x3a0e
  28:	110c270b 	beq	t0,t4,9c58 <__bss_start-0x8fff63a8>
  2c:	40011201 	0x40011201
  30:	0c429606 	jal	10a5818 <__bss_start-0x8ef5a7e8>
  34:	00001301 	0x1301
  38:	03000504 	0x3000504
  3c:	3b0b3a08 	xori	t3,t8,0x3a08
  40:	0213490b 	0x213490b
  44:	0500000a 	bltz	t0,70 <__bss_start-0x8fffff90>
  48:	08030034 	j	c00d0 <__bss_start-0x8ff3ff30>
  4c:	0b3b0b3a 	j	cec2ce8 <__bss_start-0x8313d318>
  50:	0a021349 	j	8084d24 <__bss_start-0x87f7b2dc>
  54:	24060000 	li	a2,0
  58:	3e0b0b00 	0x3e0b0b00
  5c:	0008030b 	0x8030b
  60:	002e0700 	0x2e0700
  64:	0e030c3f 	jal	80c30fc <__bss_start-0x87f3cf04>
  68:	0b3b0b3a 	j	cec2ce8 <__bss_start-0x8313d318>
  6c:	01110c27 	0x1110c27
  70:	06400112 	bltz	s2,4bc <__bss_start-0x8ffffb44>
  74:	000c4297 	0xc4297
  78:	000f0800 	sll	at,t7,0x0
  7c:	13490b0b 	beq	k0,t1,2cac <__bss_start-0x8fffd354>
  80:	2e090000 	sltiu	t1,s0,0
  84:	030c3f01 	0x30c3f01
  88:	3b0b3a0e 	xori	t3,t8,0x3a0e
  8c:	110c270b 	beq	t0,t4,9cbc <__bss_start-0x8fff6344>
  90:	40011201 	0x40011201
  94:	0c429706 	jal	10a5c18 <__bss_start-0x8ef5a3e8>
  98:	01000000 	0x1000000
  9c:	0e250111 	jal	8940444 <__bss_start-0x876bfbbc>
  a0:	0e030b13 	jal	80c2c4c <__bss_start-0x87f3d3b4>
  a4:	01110e1b 	0x1110e1b
  a8:	06100112 	bltzal	s0,4f4 <__bss_start-0x8ffffb0c>
  ac:	24020000 	li	v0,0
  b0:	3e0b0b00 	0x3e0b0b00
  b4:	000e030b 	0xe030b
  b8:	00240300 	0x240300
  bc:	0b3e0b0b 	j	cf82c2c <__bss_start-0x8307d3d4>
  c0:	00000803 	sra	at,zero,0x0
  c4:	03001604 	0x3001604
  c8:	3b0b3a0e 	xori	t3,t8,0x3a0e
  cc:	0013490b 	0x13490b
  d0:	01130500 	0x1130500
  d4:	0b0b0e03 	j	c2c380c <__bss_start-0x83d3c7f4>
  d8:	0b3b0b3a 	j	cec2ce8 <__bss_start-0x8313d318>
  dc:	00001301 	0x1301
  e0:	03000d06 	0x3000d06
  e4:	3b0b3a0e 	xori	t3,t8,0x3a0e
  e8:	3813490b 	xori	s3,zero,0x490b
  ec:	0700000a 	bltz	t8,118 <__bss_start-0x8ffffee8>
  f0:	0803000d 	j	c0034 <__bss_start-0x8ff3ffcc>
  f4:	0b3b0b3a 	j	cec2ce8 <__bss_start-0x8313d318>
  f8:	0a381349 	j	8e04d24 <__bss_start-0x871fb2dc>
  fc:	01080000 	0x1080000
 100:	01134901 	0x1134901
 104:	09000013 	j	400004c <__bss_start-0x8bffffb4>
 108:	13490021 	beq	k0,t1,190 <__bss_start-0x8ffffe70>
 10c:	00000b2f 	0xb2f
 110:	0b01130a 	j	c044c28 <__bss_start-0x83fbb3d8>
 114:	3b0b3a0b 	xori	t3,t8,0x3a0b
 118:	0013010b 	0x13010b
 11c:	01130b00 	0x1130b00
 120:	0b0b0803 	j	c2c200c <__bss_start-0x83d3dff4>
 124:	0b3b0b3a 	j	cec2ce8 <__bss_start-0x8313d318>
 128:	00001301 	0x1301
 12c:	0b000f0c 	j	c003c30 <__bss_start-0x83ffc3d0>
 130:	0013490b 	0x13490b
 134:	012e0d00 	0x12e0d00
 138:	0e030c3f 	jal	80c30fc <__bss_start-0x87f3cf04>
 13c:	0b3b0b3a 	j	cec2ce8 <__bss_start-0x8313d318>
 140:	13490c27 	beq	k0,t1,31e0 <__bss_start-0x8fffce20>
 144:	01120111 	0x1120111
 148:	42970640 	c0	0x970640
 14c:	0013010c 	syscall	0x4c04
 150:	00050e00 	sll	at,a1,0x18
 154:	0b3a0803 	j	ce8200c <__bss_start-0x8317dff4>
 158:	13490b3b 	beq	k0,t1,2e48 <__bss_start-0x8fffd1b8>
 15c:	00000a02 	srl	at,zero,0x8
 160:	0300340f 	0x300340f
 164:	3b0b3a0e 	xori	t3,t8,0x3a0e
 168:	0213490b 	0x213490b
 16c:	1000000a 	b	198 <__bss_start-0x8ffffe68>
 170:	08030034 	j	c00d0 <__bss_start-0x8ff3ff30>
 174:	0b3b0b3a 	j	cec2ce8 <__bss_start-0x8313d318>
 178:	0a021349 	j	8084d24 <__bss_start-0x87f7b2dc>
 17c:	2e110000 	sltiu	s1,s0,0
 180:	030c3f01 	0x30c3f01
 184:	3b0b3a0e 	xori	t3,t8,0x3a0e
 188:	110c270b 	beq	t0,t4,9db8 <__bss_start-0x8fff6248>
 18c:	40011201 	0x40011201
 190:	0c429606 	jal	10a5818 <__bss_start-0x8ef5a7e8>
 194:	00001301 	0x1301
 198:	03003412 	0x3003412
 19c:	3b0b3a08 	xori	t3,t8,0x3a08
 1a0:	0013490b 	0x13490b
 1a4:	012e1300 	0x12e1300
 1a8:	0e030c3f 	jal	80c30fc <__bss_start-0x87f3cf04>
 1ac:	0b3b0b3a 	j	cec2ce8 <__bss_start-0x8313d318>
 1b0:	13490c27 	beq	k0,t1,3250 <__bss_start-0x8fffcdb0>
 1b4:	01120111 	0x1120111
 1b8:	42960640 	c0	0x960640
 1bc:	0013010c 	syscall	0x4c04
 1c0:	012e1400 	0x12e1400
 1c4:	0b3a0e03 	j	ce8380c <__bss_start-0x8317c7f4>
 1c8:	0c270b3b 	jal	9c2cec <__bss_start-0x8f63d314>
 1cc:	01120111 	0x1120111
 1d0:	42970640 	c0	0x970640
 1d4:	0013010c 	syscall	0x4c04
 1d8:	00051500 	sll	v0,a1,0x14
 1dc:	0b3a0e03 	j	ce8380c <__bss_start-0x8317c7f4>
 1e0:	13490b3b 	beq	k0,t1,2ed0 <__bss_start-0x8fffd130>
 1e4:	00000a02 	srl	at,zero,0x8
 1e8:	3f012e16 	0x3f012e16
 1ec:	3a0e030c 	xori	t6,s0,0x30c
 1f0:	110b3b0b 	beq	t0,t3,ee20 <__bss_start-0x8fff11e0>
 1f4:	40011201 	0x40011201
 1f8:	0c429606 	jal	10a5818 <__bss_start-0x8ef5a7e8>
 1fc:	00001301 	0x1301
 200:	3f002e17 	0x3f002e17
 204:	3a0e030c 	xori	t6,s0,0x30c
 208:	110b3b0b 	beq	t0,t3,ee38 <__bss_start-0x8fff11c8>
 20c:	40011201 	0x40011201
 210:	0c429606 	jal	10a5818 <__bss_start-0x8ef5a7e8>
 214:	2e180000 	sltiu	t8,s0,0
 218:	030c3f01 	0x30c3f01
 21c:	3b0b3a0e 	xori	t3,t8,0x3a0e
 220:	110c270b 	beq	t0,t4,9e50 <__bss_start-0x8fff61b0>
 224:	40011201 	0x40011201
 228:	0c429706 	jal	10a5c18 <__bss_start-0x8ef5a3e8>
 22c:	00001301 	0x1301
 230:	3f012e19 	0x3f012e19
 234:	3a0e030c 	xori	t6,s0,0x30c
 238:	11053b0b 	beq	t0,a1,ee68 <__bss_start-0x8fff1198>
 23c:	40011201 	0x40011201
 240:	0c429606 	jal	10a5818 <__bss_start-0x8ef5a7e8>
 244:	00001301 	0x1301
 248:	0300341a 	0x300341a
 24c:	3b0b3a08 	xori	t3,t8,0x3a08
 250:	02134905 	0x2134905
 254:	1b00000a 	blez	t8,280 <__bss_start-0x8ffffd80>
 258:	0111010b 	0x111010b
 25c:	00000112 	0x112
 260:	3f012e1c 	0x3f012e1c
 264:	3a0e030c 	xori	t6,s0,0x30c
 268:	49053b0b 	0x49053b0b
 26c:	000c3c13 	0xc3c13
 270:	00181d00 	sll	v1,t8,0x14
 274:	341e0000 	li	s8,0x0
 278:	3a080300 	xori	t0,s0,0x300
 27c:	49053b0b 	0x49053b0b
 280:	1f000013 	bgtz	t8,2d0 <__bss_start-0x8ffffd30>
 284:	0e030034 	jal	80c00d0 <__bss_start-0x87f3ff30>
 288:	053b0b3a 	0x53b0b3a
 28c:	00001349 	0x1349
 290:	03003420 	0x3003420
 294:	3b0b3a0e 	xori	t3,t8,0x3a0e
 298:	3f13490b 	0x3f13490b
 29c:	000a020c 	syscall	0x2808
 2a0:	00342100 	0x342100
 2a4:	0b3a0e03 	j	ce8380c <__bss_start-0x8317c7f4>
 2a8:	13490b3b 	beq	k0,t1,2f98 <__bss_start-0x8fffd068>
 2ac:	0c3c0c3f 	jal	f030fc <__bss_start-0x8f0fcf04>
 2b0:	01000000 	0x1000000
 2b4:	0e250111 	jal	8940444 <__bss_start-0x876bfbbc>
 2b8:	0e030b13 	jal	80c2c4c <__bss_start-0x87f3d3b4>
 2bc:	01110e1b 	0x1110e1b
 2c0:	06100112 	bltzal	s0,70c <__bss_start-0x8ffff8f4>
 2c4:	24020000 	li	v0,0
 2c8:	3e0b0b00 	0x3e0b0b00
 2cc:	000e030b 	0xe030b
 2d0:	00240300 	0x240300
 2d4:	0b3e0b0b 	j	cf82c2c <__bss_start-0x8307d3d4>
 2d8:	00000803 	sra	at,zero,0x0
 2dc:	03001604 	0x3001604
 2e0:	3b0b3a0e 	xori	t3,t8,0x3a0e
 2e4:	0013490b 	0x13490b
 2e8:	01130500 	0x1130500
 2ec:	0b0b0e03 	j	c2c380c <__bss_start-0x83d3c7f4>
 2f0:	0b3b0b3a 	j	cec2ce8 <__bss_start-0x8313d318>
 2f4:	00001301 	0x1301
 2f8:	03000d06 	0x3000d06
 2fc:	3b0b3a0e 	xori	t3,t8,0x3a0e
 300:	3813490b 	xori	s3,zero,0x490b
 304:	0700000a 	bltz	t8,330 <__bss_start-0x8ffffcd0>
 308:	0803000d 	j	c0034 <__bss_start-0x8ff3ffcc>
 30c:	0b3b0b3a 	j	cec2ce8 <__bss_start-0x8313d318>
 310:	0a381349 	j	8e04d24 <__bss_start-0x871fb2dc>
 314:	01080000 	0x1080000
 318:	01134901 	0x1134901
 31c:	09000013 	j	400004c <__bss_start-0x8bffffb4>
 320:	13490021 	beq	k0,t1,3a8 <__bss_start-0x8ffffc58>
 324:	00000b2f 	0xb2f
 328:	0b01130a 	j	c044c28 <__bss_start-0x83fbb3d8>
 32c:	3b0b3a0b 	xori	t3,t8,0x3a0b
 330:	0013010b 	0x13010b
 334:	01130b00 	0x1130b00
 338:	0b0b0803 	j	c2c200c <__bss_start-0x83d3dff4>
 33c:	0b3b0b3a 	j	cec2ce8 <__bss_start-0x8313d318>
 340:	00001301 	0x1301
 344:	0b000f0c 	j	c003c30 <__bss_start-0x83ffc3d0>
 348:	0013490b 	0x13490b
 34c:	012e0d00 	0x12e0d00
 350:	0e030c3f 	jal	80c30fc <__bss_start-0x87f3cf04>
 354:	0b3b0b3a 	j	cec2ce8 <__bss_start-0x8313d318>
 358:	01111349 	0x1111349
 35c:	06400112 	bltz	s2,7a8 <__bss_start-0x8ffff858>
 360:	010c4296 	0x10c4296
 364:	0e000013 	jal	800004c <__bss_start-0x87ffffb4>
 368:	0e030034 	jal	80c00d0 <__bss_start-0x87f3ff30>
 36c:	0b3b0b3a 	j	cec2ce8 <__bss_start-0x8313d318>
 370:	0a021349 	j	8084d24 <__bss_start-0x87f7b2dc>
 374:	340f0000 	li	t7,0x0
 378:	3a080300 	xori	t0,s0,0x300
 37c:	490b3b0b 	0x490b3b0b
 380:	10000013 	b	3d0 <__bss_start-0x8ffffc30>
 384:	0e030034 	jal	80c00d0 <__bss_start-0x87f3ff30>
 388:	0b3b0b3a 	j	cec2ce8 <__bss_start-0x8313d318>
 38c:	00001349 	0x1349
 390:	3f012e11 	0x3f012e11
 394:	3a0e030c 	xori	t6,s0,0x30c
 398:	490b3b0b 	0x490b3b0b
 39c:	000c3c13 	0xc3c13
 3a0:	00181200 	sll	v0,t8,0x8
 3a4:	2e130000 	sltiu	s3,s0,0
 3a8:	030c3f01 	0x30c3f01
 3ac:	3b0b3a0e 	xori	t3,t8,0x3a0e
 3b0:	110c270b 	beq	t0,t4,9fe0 <__bss_start-0x8fff6020>
 3b4:	40011201 	0x40011201
 3b8:	0c429706 	jal	10a5c18 <__bss_start-0x8ef5a3e8>
 3bc:	00001301 	0x1301
 3c0:	03000514 	0x3000514
 3c4:	3b0b3a08 	xori	t3,t8,0x3a08
 3c8:	0213490b 	0x213490b
 3cc:	1500000a 	bnez	t0,3f8 <__bss_start-0x8ffffc08>
 3d0:	08030034 	j	c00d0 <__bss_start-0x8ff3ff30>
 3d4:	0b3b0b3a 	j	cec2ce8 <__bss_start-0x8313d318>
 3d8:	0a021349 	j	8084d24 <__bss_start-0x87f7b2dc>
 3dc:	26160000 	addiu	s6,s0,0
 3e0:	17000000 	bnez	t8,3e4 <__bss_start-0x8ffffc1c>
 3e4:	0b0b000f 	j	c2c003c <__bss_start-0x83d3ffc4>
 3e8:	2e180000 	sltiu	t8,s0,0
 3ec:	3a0e0301 	xori	t6,s0,0x301
 3f0:	270b3b0b 	addiu	t3,t8,15115
 3f4:	1113490c 	beq	t0,s3,12828 <__bss_start-0x8ffed7d8>
 3f8:	40011201 	0x40011201
 3fc:	0c429706 	jal	10a5c18 <__bss_start-0x8ef5a3e8>
 400:	00001301 	0x1301
 404:	3f012e19 	0x3f012e19
 408:	3a0e030c 	xori	t6,s0,0x30c
 40c:	270b3b0b 	addiu	t3,t8,15115
 410:	1201110c 	beq	s0,at,4844 <__bss_start-0x8fffb7bc>
 414:	96064001 	lhu	a2,16385(s0)
 418:	13010c42 	beq	t8,at,3524 <__bss_start-0x8fffcadc>
 41c:	2e1a0000 	sltiu	k0,s0,0
 420:	030c3f00 	0x30c3f00
 424:	3b0b3a0e 	xori	t3,t8,0x3a0e
 428:	110c270b 	beq	t0,t4,a058 <__bss_start-0x8fff5fa8>
 42c:	40011201 	0x40011201
 430:	0c429706 	jal	10a5c18 <__bss_start-0x8ef5a3e8>
 434:	2e1b0000 	sltiu	k1,s0,0
 438:	030c3f00 	0x30c3f00
 43c:	3b0b3a0e 	xori	t3,t8,0x3a0e
 440:	110c2705 	beq	t0,t4,a058 <__bss_start-0x8fff5fa8>
 444:	40011201 	0x40011201
 448:	0c429706 	jal	10a5c18 <__bss_start-0x8ef5a3e8>
 44c:	2e1c0000 	sltiu	gp,s0,0
 450:	030c3f01 	0x30c3f01
 454:	3b0b3a0e 	xori	t3,t8,0x3a0e
 458:	110c2705 	beq	t0,t4,a070 <__bss_start-0x8fff5f90>
 45c:	40011201 	0x40011201
 460:	0c429606 	jal	10a5818 <__bss_start-0x8ef5a7e8>
 464:	00001301 	0x1301
 468:	0300051d 	0x300051d
 46c:	3b0b3a08 	xori	t3,t8,0x3a08
 470:	02134905 	0x2134905
 474:	1e00000a 	bgtz	s0,4a0 <__bss_start-0x8ffffb60>
 478:	08030034 	j	c00d0 <__bss_start-0x8ff3ff30>
 47c:	053b0b3a 	0x53b0b3a
 480:	0a021349 	j	8084d24 <__bss_start-0x87f7b2dc>
 484:	2e1f0000 	sltiu	ra,s0,0
 488:	030c3f01 	0x30c3f01
 48c:	3b0b3a0e 	xori	t3,t8,0x3a0e
 490:	110c2705 	beq	t0,t4,a0a8 <__bss_start-0x8fff5f58>
 494:	40011201 	0x40011201
 498:	0c429706 	jal	10a5c18 <__bss_start-0x8ef5a3e8>
 49c:	00001301 	0x1301
 4a0:	49002120 	bc2f	8924 <__bss_start-0x8fff76dc>
 4a4:	00062f13 	0x62f13
 4a8:	00342100 	0x342100
 4ac:	0b3a0e03 	j	ce8380c <__bss_start-0x8317c7f4>
 4b0:	13490b3b 	beq	k0,t1,31a0 <__bss_start-0x8fffce60>
 4b4:	0a020c3f 	j	80830fc <__bss_start-0x87f7cf04>
 4b8:	34220000 	ori	v0,at,0x0
 4bc:	3a0e0300 	xori	t6,s0,0x300
 4c0:	49053b0b 	0x49053b0b
 4c4:	020c3f13 	0x20c3f13
 4c8:	2300000a 	addi	zero,t8,10
 4cc:	0e030034 	jal	80c00d0 <__bss_start-0x87f3ff30>
 4d0:	0b3b0b3a 	j	cec2ce8 <__bss_start-0x8313d318>
 4d4:	0c3f1349 	jal	fc4d24 <__bss_start-0x8f03b2dc>
 4d8:	00000c3c 	0xc3c
 4dc:	01110100 	0x1110100
 4e0:	0b130e25 	j	c4c3894 <__bss_start-0x83b3c76c>
 4e4:	0e1b0e03 	jal	86c380c <__bss_start-0x8793c7f4>
 4e8:	01120111 	0x1120111
 4ec:	00000610 	0x610
 4f0:	0b002402 	j	c009008 <__bss_start-0x83ff6ff8>
 4f4:	030b3e0b 	0x30b3e0b
 4f8:	0300000e 	0x300000e
 4fc:	0b0b0024 	j	c2c0090 <__bss_start-0x83d3ff70>
 500:	08030b3e 	j	c2cf8 <__bss_start-0x8ff3d308>
 504:	13040000 	beq	t8,a0,508 <__bss_start-0x8ffffaf8>
 508:	0b0e0301 	j	c380c04 <__bss_start-0x83c7f3fc>
 50c:	3b0b3a0b 	xori	t3,t8,0x3a0b
 510:	0013010b 	0x13010b
 514:	000d0500 	sll	zero,t5,0x14
 518:	0b3a0e03 	j	ce8380c <__bss_start-0x8317c7f4>
 51c:	13490b3b 	beq	k0,t1,320c <__bss_start-0x8fffcdf4>
 520:	00000a38 	0xa38
 524:	3f012e06 	0x3f012e06
 528:	3a0e030c 	xori	t6,s0,0x30c
 52c:	270b3b0b 	addiu	t3,t8,15115
 530:	1113490c 	beq	t0,s3,12964 <__bss_start-0x8ffed69c>
 534:	40011201 	0x40011201
 538:	0c429706 	jal	10a5c18 <__bss_start-0x8ef5a3e8>
 53c:	00001301 	0x1301
 540:	03000507 	0x3000507
 544:	3b0b3a08 	xori	t3,t8,0x3a08
 548:	0213490b 	0x213490b
 54c:	0800000a 	j	28 <__bss_start-0x8fffffd8>
 550:	0b0b000f 	j	c2c003c <__bss_start-0x83d3ffc4>
 554:	00001349 	0x1349
 558:	3f002e09 	0x3f002e09
 55c:	3a0e030c 	xori	t6,s0,0x30c
 560:	110b3b0b 	beq	t0,t3,f190 <__bss_start-0x8fff0e70>
 564:	40011201 	0x40011201
 568:	0c429606 	jal	10a5818 <__bss_start-0x8ef5a7e8>
 56c:	010a0000 	0x10a0000
 570:	01134901 	0x1134901
 574:	0b000013 	j	c00004c <__bss_start-0x83ffffb4>
 578:	13490021 	beq	k0,t1,600 <__bss_start-0x8ffffa00>
 57c:	0000052f 	0x52f
 580:	0300340c 	syscall	0xc00d0
 584:	3b0b3a0e 	xori	t3,t8,0x3a0e
 588:	3f13490b 	0x3f13490b
 58c:	000a020c 	syscall	0x2808
 590:	11010000 	beq	t0,at,594 <__bss_start-0x8ffffa6c>
 594:	130e2501 	beq	t8,t6,999c <__bss_start-0x8fff6664>
 598:	1b0e030b 	0x1b0e030b
 59c:	1201110e 	beq	s0,at,49d8 <__bss_start-0x8fffb628>
 5a0:	00061001 	0x61001
 5a4:	00160200 	sll	zero,s6,0x8
 5a8:	0b3a0e03 	j	ce8380c <__bss_start-0x8317c7f4>
 5ac:	13490b3b 	beq	k0,t1,329c <__bss_start-0x8fffcd64>
 5b0:	0f030000 	jal	c0c0000 <__bss_start-0x83f40000>
 5b4:	030b0b00 	0x30b0b00
 5b8:	0400000e 	bltz	zero,5f4 <__bss_start-0x8ffffa0c>
 5bc:	0c3f012e 	jal	fc04b8 <__bss_start-0x8f03fb48>
 5c0:	0b3a0e03 	j	ce8380c <__bss_start-0x8317c7f4>
 5c4:	0c270b3b 	jal	9c2cec <__bss_start-0x8f63d314>
 5c8:	01120111 	0x1120111
 5cc:	42960640 	c0	0x960640
 5d0:	0013010c 	syscall	0x4c04
 5d4:	00050500 	sll	zero,a1,0x14
 5d8:	0b3a0803 	j	ce8200c <__bss_start-0x8317dff4>
 5dc:	13490b3b 	beq	k0,t1,32cc <__bss_start-0x8fffcd34>
 5e0:	00000a02 	srl	at,zero,0x8
 5e4:	03003406 	0x3003406
 5e8:	3b0b3a08 	xori	t3,t8,0x3a08
 5ec:	0213490b 	0x213490b
 5f0:	0700000a 	bltz	t8,61c <__bss_start-0x8ffff9e4>
 5f4:	0b0b000f 	j	c2c003c <__bss_start-0x83d3ffc4>
 5f8:	0f080000 	jal	c200000 <__bss_start-0x83e00000>
 5fc:	490b0b00 	0x490b0b00
 600:	09000013 	j	400004c <__bss_start-0x8bffffb4>
 604:	0b0b0024 	j	c2c0090 <__bss_start-0x83d3ff70>
 608:	0e030b3e 	jal	80c2cf8 <__bss_start-0x87f3d308>
 60c:	240a0000 	li	t2,0
 610:	3e0b0b00 	0x3e0b0b00
 614:	0008030b 	0x8030b
 618:	00180b00 	sll	at,t8,0xc
 61c:	050c0000 	0x50c0000
 620:	3a0e0300 	xori	t6,s0,0x300
 624:	490b3b0b 	0x490b3b0b
 628:	000a0213 	0xa0213
 62c:	00260d00 	0x260d00
 630:	00001349 	0x1349
 634:	0300340e 	0x300340e
 638:	3b0b3a0e 	xori	t3,t8,0x3a0e
 63c:	0213490b 	0x213490b
 640:	0f00000a 	jal	c000028 <__bss_start-0x83ffffd8>
 644:	0655010b 	0x655010b
 648:	01100000 	0x1100000
 64c:	01134901 	0x1134901
 650:	11000013 	beqz	t0,6a0 <__bss_start-0x8ffff960>
 654:	13490021 	beq	k0,t1,6dc <__bss_start-0x8ffff924>
 658:	00000b2f 	0xb2f
 65c:	3f012e12 	0x3f012e12
 660:	3a0e030c 	xori	t6,s0,0x30c
 664:	27053b0b 	addiu	a1,t8,15115
 668:	1113490c 	beq	t0,s3,12a9c <__bss_start-0x8ffed564>
 66c:	40011201 	0x40011201
 670:	0c429706 	jal	10a5c18 <__bss_start-0x8ef5a3e8>
 674:	00001301 	0x1301
 678:	03000513 	0x3000513
 67c:	3b0b3a08 	xori	t3,t8,0x3a08
 680:	02134905 	0x2134905
 684:	1400000a 	bnez	zero,6b0 <__bss_start-0x8ffff950>
 688:	0e030005 	jal	80c0014 <__bss_start-0x87f3ffec>
 68c:	053b0b3a 	0x53b0b3a
 690:	0a021349 	j	8084d24 <__bss_start-0x87f7b2dc>
 694:	34150000 	li	s5,0x0
 698:	3a080300 	xori	t0,s0,0x300
 69c:	49053b0b 	0x49053b0b
 6a0:	000a0213 	0xa0213
 6a4:	012e1600 	0x12e1600
 6a8:	0e030c3f 	jal	80c30fc <__bss_start-0x87f3cf04>
 6ac:	053b0b3a 	0x53b0b3a
 6b0:	01110c27 	0x1110c27
 6b4:	06400112 	bltz	s2,b00 <__bss_start-0x8ffff500>
 6b8:	010c4297 	0x10c4297
 6bc:	17000013 	bnez	t8,70c <__bss_start-0x8ffff8f4>
 6c0:	0c3f012e 	jal	fc04b8 <__bss_start-0x8f03fb48>
 6c4:	0b3a0e03 	j	ce8380c <__bss_start-0x8317c7f4>
 6c8:	0c27053b 	jal	9c14ec <__bss_start-0x8f63eb14>
 6cc:	01111349 	0x1111349
 6d0:	06400112 	bltz	s2,b1c <__bss_start-0x8ffff4e4>
 6d4:	010c4296 	0x10c4296
 6d8:	18000013 	blez	zero,728 <__bss_start-0x8ffff8d8>
 6dc:	0e030034 	jal	80c00d0 <__bss_start-0x87f3ff30>
 6e0:	053b0b3a 	0x53b0b3a
 6e4:	0a021349 	j	8084d24 <__bss_start-0x87f7b2dc>
 6e8:	0b190000 	j	c640000 <__bss_start-0x839c0000>
 6ec:	12011101 	beq	s0,at,4af4 <__bss_start-0x8fffb50c>
 6f0:	00000001 	0x1
 6f4:	25011101 	addiu	at,t0,4353
 6f8:	030b130e 	0x30b130e
 6fc:	110e1b0e 	beq	t0,t6,7338 <__bss_start-0x8fff8cc8>
 700:	10011201 	beq	zero,at,4f08 <__bss_start-0x8fffb0f8>
 704:	02000006 	srlv	zero,zero,s0
 708:	0b0b0024 	j	c2c0090 <__bss_start-0x83d3ff70>
 70c:	0e030b3e 	jal	80c2cf8 <__bss_start-0x87f3d308>
 710:	24030000 	li	v1,0
 714:	3e0b0b00 	0x3e0b0b00
 718:	0008030b 	0x8030b
 71c:	00160400 	sll	zero,s6,0x10
 720:	0b3a0e03 	j	ce8380c <__bss_start-0x8317c7f4>
 724:	13490b3b 	beq	k0,t1,3414 <__bss_start-0x8fffcbec>
 728:	13050000 	beq	t8,a1,72c <__bss_start-0x8ffff8d4>
 72c:	0b0e0301 	j	c380c04 <__bss_start-0x83c7f3fc>
 730:	3b0b3a0b 	xori	t3,t8,0x3a0b
 734:	0013010b 	0x13010b
 738:	000d0600 	sll	zero,t5,0x18
 73c:	0b3a0e03 	j	ce8380c <__bss_start-0x8317c7f4>
 740:	13490b3b 	beq	k0,t1,3430 <__bss_start-0x8fffcbd0>
 744:	00000a38 	0xa38
 748:	03000d07 	0x3000d07
 74c:	3b0b3a08 	xori	t3,t8,0x3a08
 750:	3813490b 	xori	s3,zero,0x490b
 754:	0800000a 	j	28 <__bss_start-0x8fffffd8>
 758:	13490101 	beq	k0,t1,b60 <__bss_start-0x8ffff4a0>
 75c:	00001301 	0x1301
 760:	49002109 	bc2f	8b88 <__bss_start-0x8fff7478>
 764:	000b2f13 	0xb2f13
 768:	01130a00 	0x1130a00
 76c:	0b3a0b0b 	j	ce82c2c <__bss_start-0x8317d3d4>
 770:	13010b3b 	beq	t8,at,3460 <__bss_start-0x8fffcba0>
 774:	130b0000 	beq	t8,t3,778 <__bss_start-0x8ffff888>
 778:	0b080301 	j	c200c04 <__bss_start-0x83dff3fc>
 77c:	3b0b3a0b 	xori	t3,t8,0x3a0b
 780:	0013010b 	0x13010b
 784:	000f0c00 	sll	at,t7,0x10
 788:	13490b0b 	beq	k0,t1,33b8 <__bss_start-0x8fffcc48>
 78c:	2e0d0000 	sltiu	t5,s0,0
 790:	030c3f01 	0x30c3f01
 794:	3b0b3a0e 	xori	t3,t8,0x3a0e
 798:	110c270b 	beq	t0,t4,a3c8 <__bss_start-0x8fff5c38>
 79c:	40011201 	0x40011201
 7a0:	0c429606 	jal	10a5818 <__bss_start-0x8ef5a7e8>
 7a4:	00001301 	0x1301
 7a8:	0300340e 	0x300340e
 7ac:	3b0b3a0e 	xori	t3,t8,0x3a0e
 7b0:	0213490b 	0x213490b
 7b4:	0f00000a 	jal	c000028 <__bss_start-0x83ffffd8>
 7b8:	08030034 	j	c00d0 <__bss_start-0x8ff3ff30>
 7bc:	0b3b0b3a 	j	cec2ce8 <__bss_start-0x8313d318>
 7c0:	0a021349 	j	8084d24 <__bss_start-0x87f7b2dc>
 7c4:	34100000 	li	s0,0x0
 7c8:	3a0e0300 	xori	t6,s0,0x300
 7cc:	490b3b0b 	0x490b3b0b
 7d0:	3c0c3f13 	lui	t4,0x3f13
 7d4:	1100000c 	beqz	t0,808 <__bss_start-0x8ffff7f8>
 7d8:	0e030034 	jal	80c00d0 <__bss_start-0x87f3ff30>
 7dc:	0b3b0b3a 	j	cec2ce8 <__bss_start-0x8313d318>
 7e0:	0c3f1349 	jal	fc4d24 <__bss_start-0x8f03b2dc>
 7e4:	00000a02 	srl	at,zero,0x8
 7e8:	01110100 	0x1110100
 7ec:	0b130e25 	j	c4c3894 <__bss_start-0x83b3c76c>
 7f0:	0e1b0e03 	jal	86c380c <__bss_start-0x8793c7f4>
 7f4:	01120111 	0x1120111
 7f8:	00000610 	0x610
 7fc:	0b002402 	j	c009008 <__bss_start-0x83ff6ff8>
 800:	030b3e0b 	0x30b3e0b
 804:	0300000e 	0x300000e
 808:	0b0b0024 	j	c2c0090 <__bss_start-0x83d3ff70>
 80c:	08030b3e 	j	c2cf8 <__bss_start-0x8ff3d308>
 810:	2e040000 	sltiu	a0,s0,0
 814:	030c3f01 	0x30c3f01
 818:	3b0b3a0e 	xori	t3,t8,0x3a0e
 81c:	110c270b 	beq	t0,t4,a44c <__bss_start-0x8fff5bb4>
 820:	40011201 	0x40011201
 824:	0c429606 	jal	10a5818 <__bss_start-0x8ef5a7e8>
 828:	00001301 	0x1301
 82c:	03000505 	0x3000505
 830:	3b0b3a08 	xori	t3,t8,0x3a08
 834:	0213490b 	0x213490b
 838:	0600000a 	bltz	s0,864 <__bss_start-0x8ffff79c>
 83c:	0c3f002e 	jal	fc00b8 <__bss_start-0x8f03ff48>
 840:	0b3a0e03 	j	ce8380c <__bss_start-0x8317c7f4>
 844:	01110b3b 	0x1110b3b
 848:	06400112 	bltz	s2,c94 <__bss_start-0x8ffff36c>
 84c:	000c4296 	0xc4296
 850:	11010000 	beq	t0,at,854 <__bss_start-0x8ffff7ac>
 854:	130e2501 	beq	t8,t6,9c5c <__bss_start-0x8fff63a4>
 858:	1b0e030b 	0x1b0e030b
 85c:	1201110e 	beq	s0,at,4c98 <__bss_start-0x8fffb368>
 860:	00061001 	0x61001
 864:	00240200 	0x240200
 868:	0b3e0b0b 	j	cf82c2c <__bss_start-0x8307d3d4>
 86c:	00000e03 	sra	at,zero,0x18
 870:	0b002403 	j	c00900c <__bss_start-0x83ff6ff4>
 874:	030b3e0b 	0x30b3e0b
 878:	04000008 	bltz	zero,89c <__bss_start-0x8ffff764>
 87c:	0c3f012e 	jal	fc04b8 <__bss_start-0x8f03fb48>
 880:	0b3a0e03 	j	ce8380c <__bss_start-0x8317c7f4>
 884:	0c270b3b 	jal	9c2cec <__bss_start-0x8f63d314>
 888:	01120111 	0x1120111
 88c:	42960640 	c0	0x960640
 890:	0013010c 	syscall	0x4c04
 894:	00050500 	sll	zero,a1,0x14
 898:	0b3a0803 	j	ce8200c <__bss_start-0x8317dff4>
 89c:	13490b3b 	beq	k0,t1,358c <__bss_start-0x8fffca74>
 8a0:	00000a02 	srl	at,zero,0x8
 8a4:	3f012e06 	0x3f012e06
 8a8:	3a0e030c 	xori	t6,s0,0x30c
 8ac:	490b3b0b 	0x490b3b0b
 8b0:	000c3c13 	0xc3c13
 8b4:	00180700 	sll	zero,t8,0x1c
 8b8:	0f080000 	jal	c200000 <__bss_start-0x83e00000>
 8bc:	490b0b00 	0x490b0b00
 8c0:	09000013 	j	400004c <__bss_start-0x8bffffb4>
 8c4:	0c3f012e 	jal	fc04b8 <__bss_start-0x8f03fb48>
 8c8:	0b3a0e03 	j	ce8380c <__bss_start-0x8317c7f4>
 8cc:	01110b3b 	0x1110b3b
 8d0:	06400112 	bltz	s2,d1c <__bss_start-0x8ffff2e4>
 8d4:	000c4296 	0xc4296
 8d8:	11010000 	beq	t0,at,8dc <__bss_start-0x8ffff724>
 8dc:	130e2501 	beq	t8,t6,9ce4 <__bss_start-0x8fff631c>
 8e0:	1b0e030b 	0x1b0e030b
 8e4:	1201110e 	beq	s0,at,4d20 <__bss_start-0x8fffb2e0>
 8e8:	00061001 	0x61001
 8ec:	00240200 	0x240200
 8f0:	0b3e0b0b 	j	cf82c2c <__bss_start-0x8307d3d4>
 8f4:	00000e03 	sra	at,zero,0x18
 8f8:	0b002403 	j	c00900c <__bss_start-0x83ff6ff4>
 8fc:	030b3e0b 	0x30b3e0b
 900:	04000008 	bltz	zero,924 <__bss_start-0x8ffff6dc>
 904:	13490101 	beq	k0,t1,d0c <__bss_start-0x8ffff2f4>
 908:	00001301 	0x1301
 90c:	49002105 	bc2f	8d24 <__bss_start-0x8fff72dc>
 910:	000b2f13 	0xb2f13
 914:	012e0600 	0x12e0600
 918:	0e030c3f 	jal	80c30fc <__bss_start-0x87f3cf04>
 91c:	0b3b0b3a 	j	cec2ce8 <__bss_start-0x8313d318>
 920:	01120111 	0x1120111
 924:	42960640 	c0	0x960640
 928:	0013010c 	syscall	0x4c04
 92c:	00340700 	0x340700
 930:	0b3a0803 	j	ce8200c <__bss_start-0x8317dff4>
 934:	13490b3b 	beq	k0,t1,3624 <__bss_start-0x8fffc9dc>
 938:	00000a02 	srl	at,zero,0x8
 93c:	3f012e08 	0x3f012e08
 940:	3a0e030c 	xori	t6,s0,0x30c
 944:	270b3b0b 	addiu	t3,t8,15115
 948:	1113490c 	beq	t0,s3,12d7c <__bss_start-0x8ffed284>
 94c:	40011201 	0x40011201
 950:	0c429706 	jal	10a5c18 <__bss_start-0x8ef5a3e8>
 954:	00001301 	0x1301
 958:	03000509 	0x3000509
 95c:	3b0b3a08 	xori	t3,t8,0x3a08
 960:	0213490b 	0x213490b
 964:	0a00000a 	j	8000028 <__bss_start-0x87ffffd8>
 968:	0e030005 	jal	80c0014 <__bss_start-0x87f3ffec>
 96c:	0b3b0b3a 	j	cec2ce8 <__bss_start-0x8313d318>
 970:	0a021349 	j	8084d24 <__bss_start-0x87f7b2dc>
 974:	340b0000 	li	t3,0x0
 978:	3a0e0300 	xori	t6,s0,0x300
 97c:	490b3b0b 	0x490b3b0b
 980:	000a0213 	0xa0213
 984:	000f0c00 	sll	at,t7,0x10
 988:	00000b0b 	0xb0b
 98c:	0300340d 	break	0x300,0xd0
 990:	3b0b3a0e 	xori	t3,t8,0x3a0e
 994:	3f13490b 	0x3f13490b
 998:	000a020c 	syscall	0x2808
	...

Disassembly of section .debug_loc:

00000000 <.debug_loc>:
   0:	00000000 	nop
   4:	00000004 	sllv	zero,zero,zero
   8:	008d0002 	0x8d0002
   c:	00000004 	sllv	zero,zero,zero
  10:	00000010 	mfhi	zero
  14:	208d0002 	addi	t5,a0,2
  18:	00000010 	mfhi	zero
  1c:	0000003c 	0x3c
  20:	208e0002 	addi	t6,a0,2
  24:	0000003c 	0x3c
  28:	00000048 	0x48
  2c:	208d0002 	addi	t5,a0,2
  30:	00000048 	0x48
  34:	00000050 	0x50
  38:	008d0002 	0x8d0002
	...
  44:	00000050 	0x50
  48:	00000054 	0x54
  4c:	008d0002 	0x8d0002
  50:	00000054 	0x54
  54:	0000005c 	0x5c
  58:	088d0002 	j	2340008 <__bss_start-0x8dcbfff8>
  5c:	0000005c 	0x5c
  60:	0000006c 	0x6c
  64:	088e0002 	j	2380008 <__bss_start-0x8dc7fff8>
  68:	0000006c 	0x6c
  6c:	00000074 	0x74
  70:	088d0002 	j	2340008 <__bss_start-0x8dcbfff8>
  74:	00000074 	0x74
  78:	0000007c 	0x7c
  7c:	008d0002 	0x8d0002
	...
  88:	0000007c 	0x7c
  8c:	00000080 	sll	zero,zero,0x2
  90:	008d0002 	0x8d0002
  94:	00000080 	sll	zero,zero,0x2
  98:	0000008c 	syscall	0x2
  9c:	188d0002 	0x188d0002
  a0:	0000008c 	syscall	0x2
  a4:	000000dc 	0xdc
  a8:	188e0002 	0x188e0002
  ac:	000000dc 	0xdc
  b0:	000000e8 	0xe8
  b4:	188d0002 	0x188d0002
  b8:	000000e8 	0xe8
  bc:	000000f0 	0xf0
  c0:	008d0002 	0x8d0002
	...
  cc:	000000f0 	0xf0
  d0:	000000f4 	0xf4
  d4:	008d0002 	0x8d0002
  d8:	000000f4 	0xf4
  dc:	000000fc 	0xfc
  e0:	108d0002 	beq	a0,t5,ec <__bss_start-0x8fffff14>
  e4:	000000fc 	0xfc
  e8:	00000130 	0x130
  ec:	108e0002 	beq	a0,t6,f8 <__bss_start-0x8fffff08>
  f0:	00000130 	0x130
  f4:	00000138 	0x138
  f8:	108d0002 	beq	a0,t5,104 <__bss_start-0x8ffffefc>
  fc:	00000138 	0x138
 100:	00000140 	sll	zero,zero,0x5
 104:	008d0002 	0x8d0002
	...
 114:	00000004 	sllv	zero,zero,zero
 118:	008d0002 	0x8d0002
 11c:	00000004 	sllv	zero,zero,zero
 120:	0000000c 	syscall
 124:	108d0002 	beq	a0,t5,130 <__bss_start-0x8ffffed0>
 128:	0000000c 	syscall
 12c:	00000094 	0x94
 130:	108e0002 	beq	a0,t6,13c <__bss_start-0x8ffffec4>
 134:	00000094 	0x94
 138:	0000009c 	0x9c
 13c:	108d0002 	beq	a0,t5,148 <__bss_start-0x8ffffeb8>
 140:	0000009c 	0x9c
 144:	000000a4 	0xa4
 148:	008d0002 	0x8d0002
	...
 154:	000000a4 	0xa4
 158:	000000a8 	0xa8
 15c:	008d0002 	0x8d0002
 160:	000000a8 	0xa8
 164:	000000b4 	0xb4
 168:	208d0002 	addi	t5,a0,2
 16c:	000000b4 	0xb4
 170:	0000025c 	0x25c
 174:	208e0002 	addi	t6,a0,2
 178:	0000025c 	0x25c
 17c:	00000268 	0x268
 180:	208d0002 	addi	t5,a0,2
 184:	00000268 	0x268
 188:	00000270 	0x270
 18c:	008d0002 	0x8d0002
	...
 198:	00000270 	0x270
 19c:	00000274 	0x274
 1a0:	008d0002 	0x8d0002
 1a4:	00000274 	0x274
 1a8:	00000280 	sll	zero,zero,0xa
 1ac:	208d0002 	addi	t5,a0,2
 1b0:	00000280 	sll	zero,zero,0xa
 1b4:	00000398 	0x398
 1b8:	208e0002 	addi	t6,a0,2
 1bc:	00000398 	0x398
 1c0:	000003a4 	0x3a4
 1c4:	208d0002 	addi	t5,a0,2
 1c8:	000003a4 	0x3a4
 1cc:	000003ac 	0x3ac
 1d0:	008d0002 	0x8d0002
	...
 1dc:	000003ac 	0x3ac
 1e0:	000003b0 	0x3b0
 1e4:	008d0002 	0x8d0002
 1e8:	000003b0 	0x3b0
 1ec:	000003b8 	0x3b8
 1f0:	108d0002 	beq	a0,t5,1fc <__bss_start-0x8ffffe04>
 1f4:	000003b8 	0x3b8
 1f8:	00000428 	0x428
 1fc:	108e0002 	beq	a0,t6,208 <__bss_start-0x8ffffdf8>
 200:	00000428 	0x428
 204:	00000430 	0x430
 208:	108d0002 	beq	a0,t5,214 <__bss_start-0x8ffffdec>
 20c:	00000430 	0x430
 210:	00000438 	0x438
 214:	008d0002 	0x8d0002
	...
 220:	00000438 	0x438
 224:	0000043c 	0x43c
 228:	008d0002 	0x8d0002
 22c:	0000043c 	0x43c
 230:	00000448 	0x448
 234:	208d0002 	addi	t5,a0,2
 238:	00000448 	0x448
 23c:	00000490 	0x490
 240:	208e0002 	addi	t6,a0,2
 244:	00000490 	0x490
 248:	0000049c 	0x49c
 24c:	208d0002 	addi	t5,a0,2
 250:	0000049c 	0x49c
 254:	000004a4 	0x4a4
 258:	008d0002 	0x8d0002
	...
 264:	000004a4 	0x4a4
 268:	000004a8 	0x4a8
 26c:	008d0002 	0x8d0002
 270:	000004a8 	0x4a8
 274:	000004b4 	0x4b4
 278:	188d0002 	0x188d0002
 27c:	000004b4 	0x4b4
 280:	0000058c 	syscall	0x16
 284:	188e0002 	0x188e0002
 288:	0000058c 	syscall	0x16
 28c:	00000598 	0x598
 290:	188d0002 	0x188d0002
 294:	00000598 	0x598
 298:	000005a0 	0x5a0
 29c:	008d0002 	0x8d0002
	...
 2a8:	000005a0 	0x5a0
 2ac:	000005a4 	0x5a4
 2b0:	008d0002 	0x8d0002
 2b4:	000005a4 	0x5a4
 2b8:	000005b0 	0x5b0
 2bc:	208d0002 	addi	t5,a0,2
 2c0:	000005b0 	0x5b0
 2c4:	00000644 	0x644
 2c8:	208e0002 	addi	t6,a0,2
 2cc:	00000644 	0x644
 2d0:	00000650 	0x650
 2d4:	208d0002 	addi	t5,a0,2
 2d8:	00000650 	0x650
 2dc:	00000658 	0x658
 2e0:	008d0002 	0x8d0002
	...
 2ec:	00000658 	0x658
 2f0:	0000065c 	0x65c
 2f4:	008d0002 	0x8d0002
 2f8:	0000065c 	0x65c
 2fc:	00000668 	0x668
 300:	188d0002 	0x188d0002
 304:	00000668 	0x668
 308:	00000680 	sll	zero,zero,0x1a
 30c:	188e0002 	0x188e0002
	...
 318:	00000680 	sll	zero,zero,0x1a
 31c:	00000684 	0x684
 320:	008d0002 	0x8d0002
 324:	00000684 	0x684
 328:	00000690 	0x690
 32c:	208d0002 	addi	t5,a0,2
 330:	00000690 	0x690
 334:	00000700 	sll	zero,zero,0x1c
 338:	208e0002 	addi	t6,a0,2
 33c:	00000700 	sll	zero,zero,0x1c
 340:	0000070c 	syscall	0x1c
 344:	208d0002 	addi	t5,a0,2
 348:	0000070c 	syscall	0x1c
 34c:	00000714 	0x714
 350:	008d0002 	0x8d0002
	...
 35c:	00000714 	0x714
 360:	00000718 	0x718
 364:	008d0002 	0x8d0002
 368:	00000718 	0x718
 36c:	00000724 	0x724
 370:	188d0002 	0x188d0002
 374:	00000724 	0x724
 378:	00000748 	0x748
 37c:	188e0002 	0x188e0002
 380:	00000748 	0x748
 384:	00000754 	0x754
 388:	188d0002 	0x188d0002
 38c:	00000754 	0x754
 390:	0000075c 	0x75c
 394:	008d0002 	0x8d0002
	...
 3a0:	0000075c 	0x75c
 3a4:	00000760 	0x760
 3a8:	008d0002 	0x8d0002
 3ac:	00000760 	0x760
 3b0:	00000768 	0x768
 3b4:	108d0002 	beq	a0,t5,3c0 <__bss_start-0x8ffffc40>
 3b8:	00000768 	0x768
 3bc:	000007c8 	0x7c8
 3c0:	108e0002 	beq	a0,t6,3cc <__bss_start-0x8ffffc34>
 3c4:	000007c8 	0x7c8
 3c8:	000007d0 	0x7d0
 3cc:	108d0002 	beq	a0,t5,3d8 <__bss_start-0x8ffffc28>
 3d0:	000007d0 	0x7d0
 3d4:	000007d8 	0x7d8
 3d8:	008d0002 	0x8d0002
	...
 3e4:	000007d8 	0x7d8
 3e8:	000007dc 	0x7dc
 3ec:	008d0002 	0x8d0002
 3f0:	000007dc 	0x7dc
 3f4:	000007e8 	0x7e8
 3f8:	108d0002 	beq	a0,t5,404 <__bss_start-0x8ffffbfc>
 3fc:	000007e8 	0x7e8
 400:	000007fc 	0x7fc
 404:	108e0002 	beq	a0,t6,410 <__bss_start-0x8ffffbf0>
 408:	000007fc 	0x7fc
 40c:	00000808 	0x808
 410:	108d0002 	beq	a0,t5,41c <__bss_start-0x8ffffbe4>
 414:	00000808 	0x808
 418:	00000810 	mfhi	at
 41c:	008d0002 	0x8d0002
	...
 428:	00000810 	mfhi	at
 42c:	00000814 	0x814
 430:	008d0002 	0x8d0002
 434:	00000814 	0x814
 438:	00000820 	add	at,zero,zero
 43c:	108d0002 	beq	a0,t5,448 <__bss_start-0x8ffffbb8>
 440:	00000820 	add	at,zero,zero
 444:	00000834 	0x834
 448:	108e0002 	beq	a0,t6,454 <__bss_start-0x8ffffbac>
 44c:	00000834 	0x834
 450:	00000840 	sll	at,zero,0x1
 454:	108d0002 	beq	a0,t5,460 <__bss_start-0x8ffffba0>
 458:	00000840 	sll	at,zero,0x1
 45c:	00000848 	0x848
 460:	008d0002 	0x8d0002
	...
 46c:	00000848 	0x848
 470:	0000084c 	syscall	0x21
 474:	008d0002 	0x8d0002
 478:	0000084c 	syscall	0x21
 47c:	00000858 	0x858
 480:	208d0002 	addi	t5,a0,2
 484:	00000858 	0x858
 488:	000008a4 	0x8a4
 48c:	208e0002 	addi	t6,a0,2
	...
 498:	000008a4 	0x8a4
 49c:	000008a8 	0x8a8
 4a0:	008d0002 	0x8d0002
 4a4:	000008a8 	0x8a8
 4a8:	000008b4 	0x8b4
 4ac:	208d0002 	addi	t5,a0,2
 4b0:	000008b4 	0x8b4
 4b4:	00000900 	sll	at,zero,0x4
 4b8:	208e0002 	addi	t6,a0,2
	...
 4c4:	00000900 	sll	at,zero,0x4
 4c8:	00000904 	0x904
 4cc:	008d0002 	0x8d0002
 4d0:	00000904 	0x904
 4d4:	00000910 	0x910
 4d8:	208d0002 	addi	t5,a0,2
 4dc:	00000910 	0x910
 4e0:	0000095c 	0x95c
 4e4:	208e0002 	addi	t6,a0,2
	...
 4f0:	0000095c 	0x95c
 4f4:	00000960 	0x960
 4f8:	008d0002 	0x8d0002
 4fc:	00000960 	0x960
 500:	0000096c 	0x96c
 504:	208d0002 	addi	t5,a0,2
 508:	0000096c 	0x96c
 50c:	00000a6c 	0xa6c
 510:	208e0002 	addi	t6,a0,2
 514:	00000a6c 	0xa6c
 518:	00000a78 	0xa78
 51c:	208d0002 	addi	t5,a0,2
 520:	00000a78 	0xa78
 524:	00000a80 	sll	at,zero,0xa
 528:	008d0002 	0x8d0002
	...
 534:	00000a80 	sll	at,zero,0xa
 538:	00000a84 	0xa84
 53c:	008d0002 	0x8d0002
 540:	00000a84 	0xa84
 544:	00000a90 	0xa90
 548:	208d0002 	addi	t5,a0,2
 54c:	00000a90 	0xa90
 550:	00000b90 	0xb90
 554:	208e0002 	addi	t6,a0,2
 558:	00000b90 	0xb90
 55c:	00000b9c 	0xb9c
 560:	208d0002 	addi	t5,a0,2
 564:	00000b9c 	0xb9c
 568:	00000ba4 	0xba4
 56c:	008d0002 	0x8d0002
	...
 578:	00000ba4 	0xba4
 57c:	00000ba8 	0xba8
 580:	008d0002 	0x8d0002
 584:	00000ba8 	0xba8
 588:	00000bb4 	0xbb4
 58c:	208d0002 	addi	t5,a0,2
 590:	00000bb4 	0xbb4
 594:	00000cb4 	0xcb4
 598:	208e0002 	addi	t6,a0,2
 59c:	00000cb4 	0xcb4
 5a0:	00000cc0 	sll	at,zero,0x13
 5a4:	208d0002 	addi	t5,a0,2
 5a8:	00000cc0 	sll	at,zero,0x13
 5ac:	00000cc8 	0xcc8
 5b0:	008d0002 	0x8d0002
	...
 5c0:	00000004 	sllv	zero,zero,zero
 5c4:	008d0002 	0x8d0002
 5c8:	00000004 	sllv	zero,zero,zero
 5cc:	00000010 	mfhi	zero
 5d0:	208d0002 	addi	t5,a0,2
 5d4:	00000010 	mfhi	zero
 5d8:	000000f0 	0xf0
 5dc:	208e0002 	addi	t6,a0,2
	...
 5e8:	000000f0 	0xf0
 5ec:	000000f4 	0xf4
 5f0:	008d0002 	0x8d0002
 5f4:	000000f4 	0xf4
 5f8:	000000fc 	0xfc
 5fc:	108d0002 	beq	a0,t5,608 <__bss_start-0x8ffff9f8>
 600:	000000fc 	0xfc
 604:	00000200 	sll	zero,zero,0x8
 608:	108e0002 	beq	a0,t6,614 <__bss_start-0x8ffff9ec>
 60c:	00000200 	sll	zero,zero,0x8
 610:	00000208 	0x208
 614:	108d0002 	beq	a0,t5,620 <__bss_start-0x8ffff9e0>
 618:	00000208 	0x208
 61c:	00000210 	0x210
 620:	008d0002 	0x8d0002
	...
 62c:	00000210 	0x210
 630:	00000214 	0x214
 634:	008d0002 	0x8d0002
 638:	00000214 	0x214
 63c:	0000021c 	0x21c
 640:	108d0002 	beq	a0,t5,64c <__bss_start-0x8ffff9b4>
 644:	0000021c 	0x21c
 648:	00000284 	0x284
 64c:	108e0002 	beq	a0,t6,658 <__bss_start-0x8ffff9a8>
 650:	00000284 	0x284
 654:	0000028c 	syscall	0xa
 658:	108d0002 	beq	a0,t5,664 <__bss_start-0x8ffff99c>
 65c:	0000028c 	syscall	0xa
 660:	00000294 	0x294
 664:	008d0002 	0x8d0002
	...
 670:	00000294 	0x294
 674:	00000298 	0x298
 678:	008d0002 	0x8d0002
 67c:	00000298 	0x298
 680:	000002a4 	0x2a4
 684:	108d0002 	beq	a0,t5,690 <__bss_start-0x8ffff970>
 688:	000002a4 	0x2a4
 68c:	000002b8 	0x2b8
 690:	108e0002 	beq	a0,t6,69c <__bss_start-0x8ffff964>
 694:	000002b8 	0x2b8
 698:	000002c4 	0x2c4
 69c:	108d0002 	beq	a0,t5,6a8 <__bss_start-0x8ffff958>
 6a0:	000002c4 	0x2c4
 6a4:	000002cc 	syscall	0xb
 6a8:	008d0002 	0x8d0002
	...
 6b4:	000002cc 	syscall	0xb
 6b8:	000002d0 	0x2d0
 6bc:	008d0002 	0x8d0002
 6c0:	000002d0 	0x2d0
 6c4:	000002dc 	0x2dc
 6c8:	108d0002 	beq	a0,t5,6d4 <__bss_start-0x8ffff92c>
 6cc:	000002dc 	0x2dc
 6d0:	000002f0 	0x2f0
 6d4:	108e0002 	beq	a0,t6,6e0 <__bss_start-0x8ffff920>
 6d8:	000002f0 	0x2f0
 6dc:	000002fc 	0x2fc
 6e0:	108d0002 	beq	a0,t5,6ec <__bss_start-0x8ffff914>
 6e4:	000002fc 	0x2fc
 6e8:	00000304 	0x304
 6ec:	008d0002 	0x8d0002
	...
 6f8:	00000304 	0x304
 6fc:	00000308 	0x308
 700:	008d0002 	0x8d0002
 704:	00000308 	0x308
 708:	00000314 	0x314
 70c:	288d0002 	slti	t5,a0,2
 710:	00000314 	0x314
 714:	0000035c 	0x35c
 718:	288e0002 	slti	t6,a0,2
 71c:	0000035c 	0x35c
 720:	00000368 	0x368
 724:	288d0002 	slti	t5,a0,2
 728:	00000368 	0x368
 72c:	00000370 	0x370
 730:	008d0002 	0x8d0002
	...
 73c:	00000370 	0x370
 740:	00000374 	0x374
 744:	008d0002 	0x8d0002
 748:	00000374 	0x374
 74c:	0000037c 	0x37c
 750:	088d0002 	j	2340008 <__bss_start-0x8dcbfff8>
 754:	0000037c 	0x37c
 758:	00000380 	sll	zero,zero,0xe
 75c:	088e0002 	j	2380008 <__bss_start-0x8dc7fff8>
 760:	00000380 	sll	zero,zero,0xe
 764:	00000388 	0x388
 768:	088d0002 	j	2340008 <__bss_start-0x8dcbfff8>
 76c:	00000388 	0x388
 770:	00000390 	0x390
 774:	008d0002 	0x8d0002
	...
 780:	00000390 	0x390
 784:	00000394 	0x394
 788:	008d0002 	0x8d0002
 78c:	00000394 	0x394
 790:	0000039c 	0x39c
 794:	088d0002 	j	2340008 <__bss_start-0x8dcbfff8>
 798:	0000039c 	0x39c
 79c:	000003a0 	0x3a0
 7a0:	088e0002 	j	2380008 <__bss_start-0x8dc7fff8>
 7a4:	000003a0 	0x3a0
 7a8:	000003a8 	0x3a8
 7ac:	088d0002 	j	2340008 <__bss_start-0x8dcbfff8>
 7b0:	000003a8 	0x3a8
 7b4:	000003b0 	0x3b0
 7b8:	008d0002 	0x8d0002
	...
 7c4:	000003b0 	0x3b0
 7c8:	000003b4 	0x3b4
 7cc:	008d0002 	0x8d0002
 7d0:	000003b4 	0x3b4
 7d4:	000003c0 	sll	zero,zero,0xf
 7d8:	188d0002 	0x188d0002
 7dc:	000003c0 	sll	zero,zero,0xf
 7e0:	00000420 	0x420
 7e4:	188e0002 	0x188e0002
 7e8:	00000420 	0x420
 7ec:	0000042c 	0x42c
 7f0:	188d0002 	0x188d0002
 7f4:	0000042c 	0x42c
 7f8:	00000434 	0x434
 7fc:	008d0002 	0x8d0002
	...
 808:	00000434 	0x434
 80c:	00000438 	0x438
 810:	008d0002 	0x8d0002
 814:	00000438 	0x438
 818:	00000444 	0x444
 81c:	d88d0003 	0xd88d0003
 820:	00044400 	sll	t0,a0,0x10
 824:	00051400 	sll	v0,a1,0x10
 828:	8e000300 	lw	zero,768(s0)
 82c:	051400d8 	0x51400d8
 830:	05200000 	bltz	t1,834 <__bss_start-0x8ffff7cc>
 834:	00030000 	sll	zero,v1,0x0
 838:	2000d88d 	addi	zero,zero,-10099
 83c:	28000005 	slti	zero,zero,5
 840:	02000005 	0x2000005
 844:	00008d00 	sll	s1,zero,0x14
 848:	00000000 	nop
 84c:	28000000 	slti	zero,zero,0
 850:	2c000005 	sltiu	zero,zero,5
 854:	02000005 	0x2000005
 858:	2c008d00 	sltiu	zero,zero,-29440
 85c:	38000005 	xori	zero,zero,0x5
 860:	03000005 	0x3000005
 864:	00d88d00 	0xd88d00
 868:	00000538 	0x538
 86c:	00000644 	0x644
 870:	d88e0003 	0xd88e0003
 874:	00064400 	sll	t0,a2,0x10
 878:	00065000 	sll	t2,a2,0x0
 87c:	8d000300 	lw	zero,768(t0)
 880:	065000d8 	bltzal	s2,be4 <__bss_start-0x8ffff41c>
 884:	06580000 	0x6580000
 888:	00020000 	sll	zero,v0,0x0
 88c:	0000008d 	break	0x0,0x2
 890:	00000000 	nop
 894:	06580000 	0x6580000
 898:	065c0000 	0x65c0000
 89c:	00020000 	sll	zero,v0,0x0
 8a0:	065c008d 	0x65c008d
 8a4:	06640000 	0x6640000
 8a8:	00020000 	sll	zero,v0,0x0
 8ac:	0664108d 	0x664108d
 8b0:	06b40000 	0x6b40000
 8b4:	00020000 	sll	zero,v0,0x0
 8b8:	06b4108e 	0x6b4108e
 8bc:	06bc0000 	0x6bc0000
 8c0:	00020000 	sll	zero,v0,0x0
 8c4:	06bc108d 	0x6bc108d
 8c8:	06c40000 	0x6c40000
 8cc:	00020000 	sll	zero,v0,0x0
 8d0:	0000008d 	break	0x0,0x2
	...
 8dc:	00040000 	sll	zero,a0,0x0
 8e0:	00020000 	sll	zero,v0,0x0
 8e4:	0004008d 	break	0x4,0x2
 8e8:	000c0000 	sll	zero,t4,0x0
 8ec:	00020000 	sll	zero,v0,0x0
 8f0:	000c088d 	break	0xc,0x22
 8f4:	00340000 	0x340000
 8f8:	00020000 	sll	zero,v0,0x0
 8fc:	0034088e 	0x34088e
 900:	003c0000 	0x3c0000
 904:	00020000 	sll	zero,v0,0x0
 908:	003c088d 	break	0x3c,0x22
 90c:	00440000 	0x440000
 910:	00020000 	sll	zero,v0,0x0
 914:	0000008d 	break	0x0,0x2
 918:	00000000 	nop
 91c:	00440000 	0x440000
 920:	00480000 	0x480000
 924:	00020000 	sll	zero,v0,0x0
 928:	0048008d 	break	0x48,0x2
 92c:	00540000 	0x540000
 930:	00020000 	sll	zero,v0,0x0
 934:	0054188d 	break	0x54,0x62
 938:	006c0000 	0x6c0000
 93c:	00020000 	sll	zero,v0,0x0
 940:	006c188e 	0x6c188e
 944:	00780000 	0x780000
 948:	00020000 	sll	zero,v0,0x0
 94c:	0078188d 	break	0x78,0x62
 950:	00800000 	0x800000
 954:	00020000 	sll	zero,v0,0x0
 958:	0000008d 	break	0x0,0x2
	...
 964:	00040000 	sll	zero,a0,0x0
 968:	00020000 	sll	zero,v0,0x0
 96c:	0004008d 	break	0x4,0x2
 970:	00100000 	sll	zero,s0,0x0
 974:	00020000 	sll	zero,v0,0x0
 978:	0010208d 	break	0x10,0x82
 97c:	00ac0000 	0xac0000
 980:	00020000 	sll	zero,v0,0x0
 984:	00ac208e 	0xac208e
 988:	00b80000 	0xb80000
 98c:	00020000 	sll	zero,v0,0x0
 990:	00b8208d 	break	0xb8,0x82
 994:	00c00000 	0xc00000
 998:	00020000 	sll	zero,v0,0x0
 99c:	0000008d 	break	0x0,0x2
 9a0:	00000000 	nop
 9a4:	00c00000 	0xc00000
 9a8:	00c40000 	0xc40000
 9ac:	00020000 	sll	zero,v0,0x0
 9b0:	00c4008d 	break	0xc4,0x2
 9b4:	00d00000 	0xd00000
 9b8:	00020000 	sll	zero,v0,0x0
 9bc:	00d0208d 	break	0xd0,0x82
 9c0:	01040000 	0x1040000
 9c4:	00020000 	sll	zero,v0,0x0
 9c8:	0104208e 	0x104208e
 9cc:	01100000 	0x1100000
 9d0:	00020000 	sll	zero,v0,0x0
 9d4:	0110208d 	break	0x110,0x82
 9d8:	01180000 	0x1180000
 9dc:	00020000 	sll	zero,v0,0x0
 9e0:	0000008d 	break	0x0,0x2
 9e4:	00000000 	nop
 9e8:	01180000 	0x1180000
 9ec:	011c0000 	0x11c0000
 9f0:	00020000 	sll	zero,v0,0x0
 9f4:	011c008d 	break	0x11c,0x2
 9f8:	01280000 	0x1280000
 9fc:	00020000 	sll	zero,v0,0x0
 a00:	0128208d 	break	0x128,0x82
 a04:	01880000 	0x1880000
 a08:	00020000 	sll	zero,v0,0x0
 a0c:	0000208e 	0x208e
 a10:	00000000 	nop
 a14:	01880000 	0x1880000
 a18:	018c0000 	0x18c0000
 a1c:	00020000 	sll	zero,v0,0x0
 a20:	018c008d 	break	0x18c,0x2
 a24:	01980000 	0x1980000
 a28:	00030000 	sll	zero,v1,0x0
 a2c:	9801a88d 	lwr	at,-22387(zero)
 a30:	70000001 	0x70000001
 a34:	0300000a 	0x300000a
 a38:	01a88e00 	0x1a88e00
 a3c:	00000a70 	0xa70
 a40:	00000a7c 	0xa7c
 a44:	a88d0003 	swl	t5,3(a0)
 a48:	000a7c01 	0xa7c01
 a4c:	000a8400 	sll	s0,t2,0x10
 a50:	8d000200 	lw	zero,512(t0)
	...
 a5c:	000a8400 	sll	s0,t2,0x10
 a60:	000a8800 	sll	s1,t2,0x0
 a64:	8d000200 	lw	zero,512(t0)
 a68:	000a8800 	sll	s1,t2,0x0
 a6c:	000a9000 	sll	s2,t2,0x0
 a70:	8d000200 	lw	zero,512(t0)
 a74:	000a9010 	0xa9010
 a78:	000bb400 	sll	s6,t3,0x10
 a7c:	8e000200 	lw	zero,512(s0)
 a80:	000bb410 	0xbb410
 a84:	000bbc00 	sll	s7,t3,0x10
 a88:	8d000200 	lw	zero,512(t0)
 a8c:	000bbc10 	0xbbc10
 a90:	000bc400 	sll	t8,t3,0x10
 a94:	8d000200 	lw	zero,512(t0)
	...
 aa0:	000bc400 	sll	t8,t3,0x10
 aa4:	000bc800 	sll	t9,t3,0x0
 aa8:	8d000200 	lw	zero,512(t0)
 aac:	000bc800 	sll	t9,t3,0x0
 ab0:	000bd000 	sll	k0,t3,0x0
 ab4:	8d000200 	lw	zero,512(t0)
 ab8:	000bd018 	0xbd018
 abc:	000e1000 	sll	v0,t6,0x0
 ac0:	8e000200 	lw	zero,512(s0)
 ac4:	000e1018 	0xe1018
 ac8:	000e1800 	sll	v1,t6,0x0
 acc:	8d000200 	lw	zero,512(t0)
 ad0:	000e1818 	0xe1818
 ad4:	000e2000 	sll	a0,t6,0x0
 ad8:	8d000200 	lw	zero,512(t0)
	...
 ae4:	000e2000 	sll	a0,t6,0x0
 ae8:	000e2400 	sll	a0,t6,0x10
 aec:	8d000200 	lw	zero,512(t0)
 af0:	000e2400 	sll	a0,t6,0x10
 af4:	000e2c00 	sll	a1,t6,0x10
 af8:	8d000200 	lw	zero,512(t0)
 afc:	000e2c18 	0xe2c18
 b00:	000f8000 	sll	s0,t7,0x0
 b04:	8e000200 	lw	zero,512(s0)
 b08:	000f8018 	0xf8018
 b0c:	000f8800 	sll	s1,t7,0x0
 b10:	8d000200 	lw	zero,512(t0)
 b14:	000f8818 	0xf8818
 b18:	000f9000 	sll	s2,t7,0x0
 b1c:	8d000200 	lw	zero,512(t0)
	...
 b28:	000f9000 	sll	s2,t7,0x0
 b2c:	000f9400 	sll	s2,t7,0x10
 b30:	8d000200 	lw	zero,512(t0)
 b34:	000f9400 	sll	s2,t7,0x10
 b38:	000fa000 	sll	s4,t7,0x0
 b3c:	8d000200 	lw	zero,512(t0)
 b40:	000fa038 	0xfa038
 b44:	00125800 	sll	t3,s2,0x0
 b48:	8e000200 	lw	zero,512(s0)
 b4c:	00125838 	0x125838
 b50:	00126400 	sll	t4,s2,0x10
 b54:	8d000200 	lw	zero,512(t0)
 b58:	00126438 	0x126438
 b5c:	00126c00 	sll	t5,s2,0x10
 b60:	8d000200 	lw	zero,512(t0)
	...
 b70:	00000400 	sll	zero,zero,0x10
 b74:	8d000200 	lw	zero,512(t0)
 b78:	00000400 	sll	zero,zero,0x10
 b7c:	00001000 	sll	v0,zero,0x0
 b80:	8d000200 	lw	zero,512(t0)
 b84:	00001028 	0x1028
 b88:	00021000 	sll	v0,v0,0x0
 b8c:	8e000200 	lw	zero,512(s0)
 b90:	00021028 	0x21028
 b94:	00021c00 	sll	v1,v0,0x10
 b98:	8d000200 	lw	zero,512(t0)
 b9c:	00021c28 	0x21c28
 ba0:	00022400 	sll	a0,v0,0x10
 ba4:	8d000200 	lw	zero,512(t0)
	...
 bb4:	00000400 	sll	zero,zero,0x10
 bb8:	8d000200 	lw	zero,512(t0)
 bbc:	00000400 	sll	zero,zero,0x10
 bc0:	00001000 	sll	v0,zero,0x0
 bc4:	8d000200 	lw	zero,512(t0)
 bc8:	00001018 	0x1018
 bcc:	00003400 	sll	a2,zero,0x10
 bd0:	8e000200 	lw	zero,512(s0)
 bd4:	00003418 	0x3418
 bd8:	00004000 	sll	t0,zero,0x0
 bdc:	8d000200 	lw	zero,512(t0)
 be0:	00004018 	0x4018
 be4:	00004800 	sll	t1,zero,0x0
 be8:	8d000200 	lw	zero,512(t0)
	...
 bf4:	00004800 	sll	t1,zero,0x0
 bf8:	00004c00 	sll	t1,zero,0x10
 bfc:	8d000200 	lw	zero,512(t0)
 c00:	00004c00 	sll	t1,zero,0x10
 c04:	00005800 	sll	t3,zero,0x0
 c08:	8d000200 	lw	zero,512(t0)
 c0c:	00005818 	0x5818
 c10:	00006c00 	sll	t5,zero,0x10
 c14:	8e000200 	lw	zero,512(s0)
 c18:	00006c18 	0x6c18
 c1c:	00007800 	sll	t7,zero,0x0
 c20:	8d000200 	lw	zero,512(t0)
 c24:	00007818 	0x7818
 c28:	00008000 	sll	s0,zero,0x0
 c2c:	8d000200 	lw	zero,512(t0)
	...
 c38:	00008000 	sll	s0,zero,0x0
 c3c:	00008400 	sll	s0,zero,0x10
 c40:	8d000200 	lw	zero,512(t0)
 c44:	00008400 	sll	s0,zero,0x10
 c48:	00009000 	sll	s2,zero,0x0
 c4c:	8d000200 	lw	zero,512(t0)
 c50:	00009018 	0x9018
 c54:	0000a400 	sll	s4,zero,0x10
 c58:	8e000200 	lw	zero,512(s0)
 c5c:	0000a418 	0xa418
 c60:	0000b000 	sll	s6,zero,0x0
 c64:	8d000200 	lw	zero,512(t0)
 c68:	0000b018 	0xb018
 c6c:	0000b800 	sll	s7,zero,0x0
 c70:	8d000200 	lw	zero,512(t0)
	...
 c80:	00000400 	sll	zero,zero,0x10
 c84:	8d000200 	lw	zero,512(t0)
 c88:	00000400 	sll	zero,zero,0x10
 c8c:	00001000 	sll	v0,zero,0x0
 c90:	8d000200 	lw	zero,512(t0)
 c94:	00001020 	add	v0,zero,zero
 c98:	00004000 	sll	t0,zero,0x0
 c9c:	8e000200 	lw	zero,512(s0)
 ca0:	00004020 	add	t0,zero,zero
 ca4:	00004c00 	sll	t1,zero,0x10
 ca8:	8d000200 	lw	zero,512(t0)
 cac:	00004c20 	0x4c20
 cb0:	00005400 	sll	t2,zero,0x10
 cb4:	8d000200 	lw	zero,512(t0)
	...
 cc0:	00005400 	sll	t2,zero,0x10
 cc4:	00005800 	sll	t3,zero,0x0
 cc8:	8d000200 	lw	zero,512(t0)
 ccc:	00005800 	sll	t3,zero,0x0
 cd0:	00006400 	sll	t4,zero,0x10
 cd4:	8d000200 	lw	zero,512(t0)
 cd8:	00006420 	0x6420
 cdc:	00008c00 	sll	s1,zero,0x10
 ce0:	8e000200 	lw	zero,512(s0)
 ce4:	00008c20 	0x8c20
 ce8:	00009800 	sll	s3,zero,0x0
 cec:	8d000200 	lw	zero,512(t0)
 cf0:	00009820 	add	s3,zero,zero
 cf4:	0000a000 	sll	s4,zero,0x0
 cf8:	8d000200 	lw	zero,512(t0)
	...
 d04:	0000a000 	sll	s4,zero,0x0
 d08:	0000a400 	sll	s4,zero,0x10
 d0c:	8d000200 	lw	zero,512(t0)
 d10:	0000a400 	sll	s4,zero,0x10
 d14:	0000b000 	sll	s6,zero,0x0
 d18:	8d000200 	lw	zero,512(t0)
 d1c:	0000b020 	add	s6,zero,zero
 d20:	0000d400 	sll	k0,zero,0x10
 d24:	8e000200 	lw	zero,512(s0)
 d28:	0000d420 	0xd420
 d2c:	0000e000 	sll	gp,zero,0x0
 d30:	8d000200 	lw	zero,512(t0)
 d34:	0000e020 	add	gp,zero,zero
 d38:	0000e800 	sll	sp,zero,0x0
 d3c:	8d000200 	lw	zero,512(t0)
	...
 d4c:	00000400 	sll	zero,zero,0x10
 d50:	8d000200 	lw	zero,512(t0)
 d54:	00000400 	sll	zero,zero,0x10
 d58:	00001000 	sll	v0,zero,0x0
 d5c:	8d000200 	lw	zero,512(t0)
 d60:	00001020 	add	v0,zero,zero
 d64:	00008000 	sll	s0,zero,0x0
 d68:	8e000200 	lw	zero,512(s0)
 d6c:	00008020 	add	s0,zero,zero
 d70:	00008c00 	sll	s1,zero,0x10
 d74:	8d000200 	lw	zero,512(t0)
 d78:	00008c20 	0x8c20
 d7c:	00009400 	sll	s2,zero,0x10
 d80:	8d000200 	lw	zero,512(t0)
	...
 d8c:	00009400 	sll	s2,zero,0x10
 d90:	00009800 	sll	s3,zero,0x0
 d94:	8d000200 	lw	zero,512(t0)
 d98:	00009800 	sll	s3,zero,0x0
 d9c:	0000a000 	sll	s4,zero,0x0
 da0:	8d000200 	lw	zero,512(t0)
 da4:	0000a010 	mfhi	s4
 da8:	00010400 	sll	zero,at,0x10
 dac:	8e000200 	lw	zero,512(s0)
 db0:	00010410 	0x10410
 db4:	00010c00 	sll	at,at,0x10
 db8:	8d000200 	lw	zero,512(t0)
 dbc:	00010c10 	0x10c10
 dc0:	00011400 	sll	v0,at,0x10
 dc4:	8d000200 	lw	zero,512(t0)
	...

Disassembly of section .debug_aranges:

00000000 <.debug_aranges>:
   0:	0000001c 	0x1c
   4:	00000002 	srl	zero,zero,0x0
   8:	00040000 	sll	zero,a0,0x0
   c:	00000000 	nop
  10:	bfc00800 	0xbfc00800
  14:	00000140 	sll	zero,zero,0x5
	...
  20:	0000001c 	0x1c
  24:	00d50002 	0xd50002
  28:	00040000 	sll	zero,a0,0x0
  2c:	00000000 	nop
  30:	bfc00940 	0xbfc00940
  34:	00000cc8 	0xcc8
	...
  40:	0000001c 	0x1c
  44:	06e50002 	0x6e50002
  48:	00040000 	sll	zero,a0,0x0
  4c:	00000000 	nop
  50:	bfc01820 	0xbfc01820
  54:	000006c4 	0x6c4
	...
  60:	0000001c 	0x1c
  64:	0cb20002 	jal	2c80008 <__bss_start-0x8d37fff8>
  68:	00040000 	sll	zero,a0,0x0
  6c:	00000000 	nop
  70:	bfc01ef0 	0xbfc01ef0
  74:	00000080 	sll	zero,zero,0x2
	...
  80:	0000001c 	0x1c
  84:	0d9c0002 	jal	6700008 <__bss_start-0x898ffff8>
  88:	00040000 	sll	zero,a0,0x0
  8c:	00000000 	nop
  90:	bfc01f70 	0xbfc01f70
  94:	0000126c 	0x126c
	...
  a0:	0000001c 	0x1c
  a4:	12910002 	beq	s4,s1,b0 <__bss_start-0x8fffff50>
  a8:	00040000 	sll	zero,a0,0x0
  ac:	00000000 	nop
  b0:	bfc031e0 	0xbfc031e0
  b4:	00000224 	0x224
	...
  c0:	0000001c 	0x1c
  c4:	147a0002 	bne	v1,k0,d0 <__bss_start-0x8fffff30>
  c8:	00040000 	sll	zero,a0,0x0
  cc:	00000000 	nop
  d0:	bfc03680 	0xbfc03680
  d4:	000000b8 	0xb8
	...
  e0:	0000001c 	0x1c
  e4:	15380002 	bne	t1,t8,f0 <__bss_start-0x8fffff10>
  e8:	00040000 	sll	zero,a0,0x0
  ec:	00000000 	nop
  f0:	bfc03780 	0xbfc03780
  f4:	000000e8 	0xe8
	...
 100:	0000001c 	0x1c
 104:	163e0002 	bne	s1,s8,110 <__bss_start-0x8ffffef0>
 108:	00040000 	sll	zero,a0,0x0
 10c:	00000000 	nop
 110:	bfc03870 	0xbfc03870
 114:	00000114 	0x114
	...

Disassembly of section .debug_line:

00000000 <.debug_line>:
   0:	0000005f 	0x5f
   4:	00200002 	0x200002
   8:	01010000 	0x1010000
   c:	000d0efb 	0xd0efb
  10:	01010101 	0x1010101
  14:	01000000 	0x1000000
  18:	00010000 	sll	zero,at,0x0
  1c:	736e6f63 	0x736e6f63
  20:	2e656c6f 	sltiu	a1,s3,27759
  24:	00000063 	0x63
  28:	05000000 	bltz	t0,2c <__bss_start-0x8fffffd4>
  2c:	c0080002 	lwc0	$8,2(zero)
  30:	013103bf 	0x13103bf
  34:	74080c03 	jalx	20300c <__bss_start-0x8fdfcff4>
  38:	083e08bc 	j	f822f0 <__bss_start-0x8f07dd10>
  3c:	08bbbb78 	j	2eeede0 <__bss_start-0x8d111220>
  40:	833d0841 	lb	sp,2113(t9)
  44:	01040200 	0x1040200
  48:	08112802 	j	44a008 <__bss_start-0x8fbb5ff8>
  4c:	bc790876 	0xbc790876
  50:	02040200 	0x2040200
  54:	0200ba06 	0x200ba06
  58:	06f20104 	0x6f20104
  5c:	14023e08 	bne	zero,v0,f880 <__bss_start-0x8fff0780>
  60:	cc010100 	lwc3	$1,256(zero)
  64:	02000001 	0x2000001
  68:	00003800 	sll	a3,zero,0x0
  6c:	fb010100 	0xfb010100
  70:	01000d0e 	0x1000d0e
  74:	00010101 	0x10101
  78:	00010000 	sll	zero,at,0x0
  7c:	6e690100 	0x6e690100
  80:	64756c63 	0x64756c63
  84:	65000065 	0x65000065
  88:	632e766e 	0x632e766e
  8c:	00000000 	nop
  90:	65707974 	0x65707974
  94:	00682e73 	0x682e73
  98:	65000001 	0x65000001
  9c:	682e766e 	0x682e766e
  a0:	00000100 	sll	zero,zero,0x4
  a4:	02050000 	0x2050000
  a8:	bfc00940 	0xbfc00940
  ac:	f6012103 	0xf6012103
  b0:	02164c02 	0x2164c02
  b4:	40081334 	0x40081334
  b8:	02f483f6 	0x2f483f6
  bc:	02001330 	0x2001330
  c0:	02060104 	0x2060104
  c4:	0200127c 	0x200127c
  c8:	40020204 	0x40020204
  cc:	04020012 	0x4020012
  d0:	70020602 	0x70020602
  d4:	0402000f 	0x402000f
  d8:	06f20601 	0x6f20601
  dc:	f3f20e03 	0xf3f20e03
  e0:	40087908 	0x40087908
  e4:	08bce508 	j	2f39420 <__bss_start-0x8d0c6be0>
  e8:	7508bcad 	jalx	422f2b4 <__bss_start-0x8bdd0d4c>
  ec:	f4132802 	0xf4132802
  f0:	01040200 	0x1040200
  f4:	00740806 	srlv	at,s4,v1
  f8:	08020402 	j	81008 <__bss_start-0x8ff7eff8>
  fc:	040200e4 	0x40200e4
 100:	e5080602 	swc1	$f8,1538(t0)
 104:	02040200 	0x2040200
 108:	79084bf4 	0x79084bf4
 10c:	76087708 	jalx	821dc20 <__bss_start-0x87de23e0>
 110:	08ad08f4 	j	2b423d0 <__bss_start-0x8d4bdc30>
 114:	084108ad 	j	10422b4 <__bss_start-0x8efbdd4c>
 118:	ae08f378 	sw	t0,-3208(s0)
 11c:	087908f3 	j	1e423cc <__bss_start-0x8e1bdc34>
 120:	0200bb3d 	0x200bb3d
 124:	02060104 	0x2060104
 128:	0200122c 	0x200122c
 12c:	74080204 	jalx	200810 <__bss_start-0x8fdff7f0>
 130:	02040200 	0x2040200
 134:	08e60806 	j	3982018 <__bss_start-0x8c67dfe8>
 138:	28028475 	slti	v0,zero,-31627
 13c:	0884f414 	j	213d050 <__bss_start-0x8dec2fb0>
 140:	bd3f0879 	0xbd3f0879
 144:	08f34008 	j	3cd0020 <__bss_start-0x8c32ffe0>
 148:	03af08ae 	0x3af08ae
 14c:	3d08f20d 	0x3d08f20d
 150:	02007908 	0x2007908
 154:	00f70104 	0xf70104
 158:	f4010402 	0xf4010402
 15c:	f4bcf586 	0xf4bcf586
 160:	3d08bcbb 	0x3d08bcbb
 164:	08f43d08 	j	3d0f420 <__bss_start-0x8c2f0be0>
 168:	f484f477 	0xf484f477
 16c:	080d0383 	j	340e0c <__bss_start-0x8fcbf1f4>
 170:	f3bcf474 	0xf3bcf474
 174:	02007108 	0x2007108
 178:	f2060104 	0xf2060104
 17c:	08410806 	j	1042018 <__bss_start-0x8efbdfe8>
 180:	4bbef541 	c2	0x1bef541
 184:	bef57708 	0xbef57708
 188:	f779084b 	0xf779084b
 18c:	0200bb83 	0x200bb83
 190:	ba060204 	swr	a2,516(s0)
 194:	01040200 	0x1040200
 198:	3d0806f2 	0x3d0806f2
 19c:	bb83f887 	swr	v1,-1913(gp)
 1a0:	02040200 	0x2040200
 1a4:	0200ba06 	0x200ba06
 1a8:	06f20104 	0x6f20104
 1ac:	f9883d08 	0xf9883d08
 1b0:	0200bb83 	0x200bb83
 1b4:	ba060204 	swr	a2,516(s0)
 1b8:	01040200 	0x1040200
 1bc:	3d0806f2 	0x3d0806f2
 1c0:	e708f688 	swc1	$f8,-2424(t8)
 1c4:	bbbcad08 	swr	gp,-21240(sp)
 1c8:	3d08f4bb 	0x3d08f4bb
 1cc:	02003e08 	0x2003e08
 1d0:	08060104 	j	180410 <__bss_start-0x8fe7fbf0>
 1d4:	04020074 	0x4020074
 1d8:	06e40802 	0x6e40802
 1dc:	28027403 	slti	v0,zero,29699
 1e0:	4a0e0301 	c2	0xe0301
 1e4:	08f67708 	j	3d9dc20 <__bss_start-0x8c2623e0>
 1e8:	bcad08e7 	0xbcad08e7
 1ec:	08f4bbbb 	j	3d2eeec <__bss_start-0x8c2d1114>
 1f0:	003e083d 	0x3e083d
 1f4:	06010402 	bgez	s0,1200 <__bss_start-0x8fffee00>
 1f8:	02007408 	0x2007408
 1fc:	e4080204 	swc1	$f8,516(zero)
 200:	02740306 	0x2740306
 204:	0e030128 	jal	80c04a0 <__bss_start-0x87f3fb60>
 208:	f677084a 	0xf677084a
 20c:	ad08e708 	sw	t0,-6392(t0)
 210:	f4bbbbbc 	0xf4bbbbbc
 214:	3e083d08 	0x3e083d08
 218:	01040200 	0x1040200
 21c:	00740806 	srlv	at,s4,v1
 220:	08020402 	j	81008 <__bss_start-0x8ff7eff8>
 224:	740306e4 	jalx	c1b90 <__bss_start-0x8ff3e470>
 228:	03012802 	0x3012802
 22c:	18024a0e 	0x18024a0e
 230:	67010100 	0x67010100
 234:	02000001 	0x2000001
 238:	00005c00 	sll	t3,zero,0x10
 23c:	fb010100 	0xfb010100
 240:	01000d0e 	0x1000d0e
 244:	00010101 	0x10101
 248:	00010000 	sll	zero,at,0x0
 24c:	6e690100 	0x6e690100
 250:	64756c63 	0x64756c63
 254:	73750065 	0x73750065
 258:	00007265 	0x7265
 25c:	74696e69 	jalx	1a5b9a4 <__bss_start-0x8e5a465c>
 260:	0000632e 	0x632e
 264:	79740000 	0x79740000
 268:	2e736570 	sltiu	s3,s3,25968
 26c:	00010068 	0x10068
 270:	766e6500 	jalx	9b99400 <__bss_start-0x86466c00>
 274:	0100682e 	0x100682e
 278:	2e410000 	sltiu	at,s2,0
 27c:	72616863 	0x72616863
 280:	00000200 	sll	zero,zero,0x8
 284:	68632e42 	0x68632e42
 288:	02007261 	0x2007261
 28c:	2e430000 	sltiu	v1,s2,0
 290:	72616863 	0x72616863
 294:	00000200 	sll	zero,zero,0x8
 298:	02050000 	0x2050000
 29c:	bfc01820 	0xbfc01820
 2a0:	03013a03 	0x3013a03
 2a4:	bcbbf21d 	0xbcbbf21d
 2a8:	f4853e08 	0xf4853e08
 2ac:	f3888483 	0xf3888483
 2b0:	f4838383 	0xf4838383
 2b4:	820c03f3 	lb	t4,1011(s0)
 2b8:	b40885f4 	0xb40885f4
 2bc:	3d087708 	0x3d087708
 2c0:	01040200 	0x1040200
 2c4:	063c0806 	0x63c0806
 2c8:	08843e08 	j	210f820 <__bss_start-0x8def07e0>
 2cc:	0200f375 	0x200f375
 2d0:	08ee0104 	j	3b80410 <__bss_start-0x8c47fbf0>
 2d4:	750884ec 	jalx	42213b0 <__bss_start-0x8bddec50>
 2d8:	040200f3 	0x40200f3
 2dc:	7a08ee01 	0x7a08ee01
 2e0:	40084008 	0x40084008
 2e4:	0083bbbb 	0x83bbbb
 2e8:	08010402 	j	41008 <__bss_start-0x8ffbeff8>
 2ec:	08e608ab 	j	39822ac <__bss_start-0x8c67dd54>
 2f0:	4bbef543 	c2	0x1bef543
 2f4:	bef57708 	0xbef57708
 2f8:	f878084b 	0xf878084b
 2fc:	08bcbbbd 	j	2f2eef4 <__bss_start-0x8d0d110c>
 300:	037808e9 	0x37808e9
 304:	4008ba27 	0x4008ba27
 308:	084108bc 	j	10422f0 <__bss_start-0x8efbdd10>
 30c:	04020075 	0x4020075
 310:	3c080601 	lui	t0,0x601
 314:	13240206 	beq	t9,a0,b30 <__bss_start-0x8ffff4d0>
 318:	7708ad08 	jalx	c22b420 <__bss_start-0x83dd4be0>
 31c:	f4bb4108 	0xf4bb4108
 320:	02040200 	0x2040200
 324:	040200bc 	0x40200bc
 328:	13240202 	beq	t9,a0,b34 <__bss_start-0x8ffff4cc>
 32c:	02040200 	0x2040200
 330:	040200f3 	0x40200f3
 334:	0200f302 	0x200f302
 338:	00f30204 	0xf30204
 33c:	08020402 	j	81008 <__bss_start-0x8ff7eff8>
 340:	0402003d 	0x402003d
 344:	08790302 	j	1e40c08 <__bss_start-0x8e1bf3f8>
 348:	0402003c 	0x402003c
 34c:	06f20601 	0x6f20601
 350:	3c080a03 	lui	t0,0xa03
 354:	41087708 	0x41087708
 358:	02bcf4bb 	0x2bcf4bb
 35c:	f3f31324 	0xf3f31324
 360:	040200f3 	0x40200f3
 364:	06f20601 	0x6f20601
 368:	3d08e508 	0x3d08e508
 36c:	7a03aa08 	0x7a03aa08
 370:	0402004a 	0x402004a
 374:	06f20601 	0x6f20601
 378:	3c080b03 	lui	t0,0xb03
 37c:	3f087708 	0x3f087708
 380:	02040200 	0x2040200
 384:	00ba1c03 	0xba1c03
 388:	03020402 	0x3020402
 38c:	0200f264 	0x200f264
 390:	f2060104 	0xf2060104
 394:	081f0306 	j	7c0c18 <__bss_start-0x8f83f3e8>
 398:	00140274 	0x140274
 39c:	004a0101 	0x4a0101
 3a0:	00020000 	sll	zero,v0,0x0
 3a4:	0000002f 	0x2f
 3a8:	0efb0101 	jal	bec0404 <__bss_start-0x8413fbfc>
 3ac:	0101000d 	break	0x101
 3b0:	00000101 	0x101
 3b4:	00000100 	sll	zero,zero,0x4
 3b8:	636e6901 	0x636e6901
 3bc:	6564756c 	0x6564756c
 3c0:	6d700000 	0x6d700000
 3c4:	632e7061 	0x632e7061
 3c8:	00000000 	nop
 3cc:	70616d70 	0x70616d70
 3d0:	0100682e 	0x100682e
 3d4:	00000000 	nop
 3d8:	1ef00205 	0x1ef00205
 3dc:	f318bfc0 	0xf318bfc0
 3e0:	3f08e508 	0x3f08e508
 3e4:	023e08f3 	0x23e08f3
 3e8:	01010018 	mult	t0,at
 3ec:	000002ad 	0x2ad
 3f0:	005b0002 	0x5b0002
 3f4:	01010000 	0x1010000
 3f8:	000d0efb 	0xd0efb
 3fc:	01010101 	0x1010101
 400:	01000000 	0x1000000
 404:	2f010000 	sltiu	at,t8,0
 408:	2f74706f 	sltiu	s4,k1,28783
 40c:	7370696d 	0x7370696d
 410:	62696c2f 	0x62696c2f
 414:	6363672f 	0x6363672f
 418:	70696d2f 	0x70696d2f
 41c:	2d6c6573 	sltiu	t4,t3,25971
 420:	2d756e67 	sltiu	s5,t3,28263
 424:	756e696c 	jalx	5b9a5b0 <__bss_start-0x8a465a50>
 428:	2e342f78 	sltiu	s4,s1,12152
 42c:	2f312e37 	sltiu	s1,t9,11831
 430:	6c636e69 	0x6c636e69
 434:	00656475 	0x656475
 438:	69727000 	0x69727000
 43c:	632e746e 	0x632e746e
 440:	00000000 	nop
 444:	61647473 	0x61647473
 448:	682e6772 	0x682e6772
 44c:	00000100 	sll	zero,zero,0x4
 450:	02050000 	0x2050000
 454:	bfc01f70 	0xbfc01f70
 458:	08011703 	j	45c0c <__bss_start-0x8ffba3f4>
 45c:	040200b0 	0x40200b0
 460:	06f20601 	0x6f20601
 464:	02007608 	0x2007608
 468:	00bb0204 	0xbb0204
 46c:	02020402 	0x2020402
 470:	02001124 	0x2001124
 474:	f2060104 	0xf2060104
 478:	50e20806 	0x50e20806
 47c:	e6087808 	swc1	$f8,30728(s0)
 480:	08760883 	j	1d8220c <__bss_start-0x8e27ddf4>
 484:	83e80878 	lb	t0,2168(ra)
 488:	75087508 	jalx	421d420 <__bss_start-0x8bde2be0>
 48c:	01040200 	0x1040200
 490:	822803f6 	lb	t0,1014(s1)
 494:	ac081e03 	sw	t0,7683(zero)
 498:	020083bb 	0x20083bb
 49c:	00f10104 	0xf10104
 4a0:	06020402 	0x6020402
 4a4:	08067408 	j	19d020 <__bss_start-0x8fe62fe0>
 4a8:	15240279 	bne	t1,a0,e90 <__bss_start-0x8ffff170>
 4ac:	08f57808 	j	3d5e020 <__bss_start-0x8c2a1fe0>
 4b0:	76088375 	jalx	8220dd4 <__bss_start-0x87ddf22c>
 4b4:	4b834b4e 	c2	0x1834b4e
 4b8:	83750884 	lb	s5,2180(k1)
 4bc:	837508f5 	lb	s5,2293(k1)
 4c0:	040200f5 	0x40200f5
 4c4:	ac080601 	sw	t0,1537(zero)
 4c8:	83ad0806 	lb	t5,2054(sp)
 4cc:	01040200 	0x1040200
 4d0:	00114002 	srl	t0,s1,0x0
 4d4:	06020402 	0x6020402
 4d8:	0806ac08 	j	1ab020 <__bss_start-0x8fe54fe0>
 4dc:	f37508b1 	0xf37508b1
 4e0:	01040200 	0x1040200
 4e4:	06ac0806 	0x6ac0806
 4e8:	834bad08 	lb	t3,-21240(k0)
 4ec:	01040200 	0x1040200
 4f0:	00114002 	srl	t0,s1,0x0
 4f4:	06020402 	0x6020402
 4f8:	0806ac08 	j	1ab020 <__bss_start-0x8fe54fe0>
 4fc:	3c024bb4 	lui	v0,0x4bb4
 500:	2402f314 	li	v0,-3308
 504:	02ae0814 	0x2ae0814
 508:	75081348 	jalx	4204d20 <__bss_start-0x8bdfb2e0>
 50c:	2402f386 	li	v0,-3194
 510:	f3ae0814 	0xf3ae0814
 514:	480284f3 	0x480284f3
 518:	86750813 	lh	s5,2067(s3)
 51c:	142402f3 	bne	at,a0,10ec <__bss_start-0x8fffef14>
 520:	4802ae08 	0x4802ae08
 524:	86750813 	lh	s5,2067(s3)
 528:	142402f3 	bne	at,a0,10f8 <__bss_start-0x8fffef08>
 52c:	4802ae08 	0x4802ae08
 530:	85750813 	lh	s5,2067(t3)
 534:	142402f3 	bne	at,a0,1104 <__bss_start-0x8fffeefc>
 538:	4802ae08 	0x4802ae08
 53c:	85750813 	lh	s5,2067(t3)
 540:	142402f3 	bne	at,a0,1110 <__bss_start-0x8fffeef0>
 544:	4c02ae08 	0x4c02ae08
 548:	85750813 	lh	s5,2067(t3)
 54c:	2402ad08 	li	v0,-21240
 550:	85750813 	lh	s5,2067(t3)
 554:	e508ad08 	swc1	$f8,-21240(t0)
 558:	f3857508 	0xf3857508
 55c:	f33f0886 	0xf33f0886
 560:	827ef503 	lb	s8,-2813(s3)
 564:	4a018e03 	c2	0x18e03
 568:	7a087508 	0x7a087508
 56c:	0200e708 	0x200e708
 570:	f2060104 	0xf2060104
 574:	f3f38306 	0xf3f38306
 578:	02040200 	0x2040200
 57c:	0200f206 	0x200f206
 580:	28020104 	slti	v0,zero,260
 584:	06740812 	0x6740812
 588:	04020084 	0x4020084
 58c:	00ba0602 	0xba0602
 590:	02010402 	0x2010402
 594:	08061228 	j	1848a0 <__bss_start-0x8fe7b760>
 598:	142402e5 	bne	at,a0,1130 <__bss_start-0x8fffeed0>
 59c:	0840084b 	j	100212c <__bss_start-0x8effded4>
 5a0:	00bb4bae 	0xbb4bae
 5a4:	06020402 	0x6020402
 5a8:	04020082 	0x4020082
 5ac:	0206f201 	0x206f201
 5b0:	02001330 	0x2001330
 5b4:	08060104 	j	180410 <__bss_start-0x8fe7fbf0>
 5b8:	f3bc0674 	0xf3bc0674
 5bc:	02040200 	0x2040200
 5c0:	0200ba06 	0x200ba06
 5c4:	3c020104 	lui	v0,0x104
 5c8:	75080612 	jalx	4201848 <__bss_start-0x8bdfe7b8>
 5cc:	02040200 	0x2040200
 5d0:	003c0806 	srlv	at,gp,at
 5d4:	02010402 	0x2010402
 5d8:	74081228 	jalx	2048a0 <__bss_start-0x8fdfb760>
 5dc:	02008406 	0x2008406
 5e0:	ba060204 	swr	a2,516(s0)
 5e4:	01040200 	0x1040200
 5e8:	06122802 	0x6122802
 5ec:	00132402 	srl	a0,s3,0x10
 5f0:	06020402 	0x6020402
 5f4:	0200ac08 	0x200ac08
 5f8:	54020104 	0x54020104
 5fc:	76080612 	jalx	8201848 <__bss_start-0x87dfe7b8>
 600:	0840084b 	j	100212c <__bss_start-0x8effded4>
 604:	02bcbc41 	0x2bcbc41
 608:	f3f31324 	0xf3f31324
 60c:	040200f3 	0x40200f3
 610:	3c080601 	lui	t0,0x601
 614:	13240206 	beq	t9,a0,e30 <__bss_start-0x8ffff1d0>
 618:	0200ae08 	0x200ae08
 61c:	08060104 	j	180410 <__bss_start-0x8fe7fbf0>
 620:	2402063c 	li	v0,1596
 624:	03ae0813 	0x3ae0813
 628:	0200f274 	0x200f274
 62c:	f2060104 	0xf2060104
 630:	080f0306 	j	3c0c18 <__bss_start-0x8fc3f3e8>
 634:	0344083c 	0x344083c
 638:	012c020b 	0x12c020b
 63c:	ba16034b 	swr	s6,843(s0)
 640:	08f34008 	j	3cd0020 <__bss_start-0x8c32ffe0>
 644:	003d08b0 	0x3d08b0
 648:	06010402 	bgez	s0,1654 <__bss_start-0x8fffe9ac>
 64c:	bd067408 	0xbd067408
 650:	020084f3 	0x20084f3
 654:	f2060104 	0xf2060104
 658:	00e50806 	srlv	at,a1,a3
 65c:	06020402 	0x6020402
 660:	02007408 	0x2007408
 664:	2c020104 	sltiu	v0,zero,260
 668:	e5080612 	swc1	$f8,1554(t0)
 66c:	00142802 	srl	a1,s4,0x0
 670:	06020402 	0x6020402
 674:	02003c08 	0x2003c08
 678:	2c020104 	sltiu	v0,zero,260
 67c:	7a080612 	0x7a080612
 680:	7ff7f34c 	0x7ff7f34c
 684:	ad0883f5 	sw	t0,-31755(t0)
 688:	08132c02 	j	4cb008 <__bss_start-0x8fb34ff8>
 68c:	0200f3ad 	0x200f3ad
 690:	03ed0104 	0x3ed0104
 694:	4b74080e 	c2	0x174080e
 698:	01001802 	0x1001802
 69c:	00007801 	0x7801
 6a0:	3a000200 	xori	zero,s0,0x200
 6a4:	01000000 	0x1000000
 6a8:	0d0efb01 	jal	43bec04 <__bss_start-0x8bc413fc>
 6ac:	01010100 	0x1010100
 6b0:	00000001 	0x1
 6b4:	01000001 	0x1000001
 6b8:	6c636e69 	0x6c636e69
 6bc:	00656475 	0x656475
 6c0:	68637300 	0x68637300
 6c4:	632e6465 	0x632e6465
 6c8:	00000000 	nop
 6cc:	2e766e65 	sltiu	s6,s3,28261
 6d0:	00010068 	0x10068
 6d4:	70797400 	0x70797400
 6d8:	682e7365 	0x682e7365
 6dc:	00000100 	sll	zero,zero,0x4
 6e0:	02050000 	0x2050000
 6e4:	bfc031e0 	0xbfc031e0
 6e8:	f8010e03 	0xf8010e03
 6ec:	144002bc 	bnez	v0,11e0 <__bss_start-0x8fffee20>
 6f0:	027508f3 	0x27508f3
 6f4:	02f51338 	0x2f51338
 6f8:	f3f31540 	0xf3f31540
 6fc:	174402f3 	bne	k0,a0,12cc <__bss_start-0x8fffed34>
 700:	6a037508 	0x6a037508
 704:	00013802 	srl	a3,at,0x0
 708:	06010402 	bgez	s0,1714 <__bss_start-0x8fffe8ec>
 70c:	1a0306f2 	0x1a0306f2
 710:	84f43c08 	lh	s4,15368(a3)
 714:	01001802 	0x1001802
 718:	00004501 	0x4501
 71c:	24000200 	li	zero,512
 720:	01000000 	0x1000000
 724:	0d0efb01 	jal	43bec04 <__bss_start-0x8bc413fc>
 728:	01010100 	0x1010100
 72c:	00000001 	0x1
 730:	01000001 	0x1000001
 734:	73797300 	0x73797300
 738:	6c6c6163 	0x6c6c6163
 73c:	6c6c615f 	0x6c6c615f
 740:	0000632e 	0x632e
 744:	00000000 	nop
 748:	36800205 	ori	zero,s4,0x205
 74c:	0d03bfc0 	jal	40eff00 <__bss_start-0x8bf10100>
 750:	08750801 	j	1d42004 <__bss_start-0x8e2bdffc>
 754:	f3770875 	0xf3770875
 758:	f37708f3 	0xf37708f3
 75c:	001802f3 	0x1802f3
 760:	00490101 	0x490101
 764:	00020000 	sll	zero,v0,0x0
 768:	00000024 	and	zero,zero,zero
 76c:	0efb0101 	jal	bec0404 <__bss_start-0x8413fbfc>
 770:	0101000d 	break	0x101
 774:	00000101 	0x101
 778:	00000100 	sll	zero,zero,0x4
 77c:	79730001 	0x79730001
 780:	6c616373 	0x6c616373
 784:	696c5f6c 	0x696c5f6c
 788:	00632e62 	0x632e62
 78c:	00000000 	nop
 790:	80020500 	lb	v0,1280(zero)
 794:	03bfc037 	0x3bfc037
 798:	7508010d 	jalx	4200434 <__bss_start-0x8bdffbcc>
 79c:	08132402 	j	4c9008 <__bss_start-0x8fb36ff8>
 7a0:	083d0877 	j	f421dc <__bss_start-0x8f0bde24>
 7a4:	f37708e5 	0xf37708e5
 7a8:	1802e508 	0x1802e508
 7ac:	58010100 	0x58010100
 7b0:	02000000 	0x2000000
 7b4:	00001e00 	sll	v1,zero,0x18
 7b8:	fb010100 	0xfb010100
 7bc:	01000d0e 	0x1000d0e
 7c0:	00010101 	0x10101
 7c4:	00010000 	sll	zero,at,0x0
 7c8:	74000100 	jalx	400 <__bss_start-0x8ffffc00>
 7cc:	73706172 	0x73706172
 7d0:	0000632e 	0x632e
 7d4:	00000000 	nop
 7d8:	38700205 	xori	s0,v1,0x205
 7dc:	0b03bfc0 	j	c0eff00 <__bss_start-0x83f10100>
 7e0:	0200f501 	0x200f501
 7e4:	00bb0204 	0xbb0204
 7e8:	08020402 	j	81008 <__bss_start-0x8ff7eff8>
 7ec:	0402003b 	0x402003b
 7f0:	06f20601 	0x6f20601
 7f4:	3d084008 	0x3d084008
 7f8:	76083d08 	jalx	820f420 <__bss_start-0x87df0be0>
 7fc:	02bb3d08 	0x2bb3d08
 800:	24021424 	li	v0,5156
 804:	14024b13 	bne	zero,v0,13454 <__bss_start-0x8ffecbac>
 808:	Address 0x0000000000000808 is out of bounds.


Disassembly of section .debug_str:

00000000 <.debug_str>:
   0:	616c6564 	0x616c6564
   4:	6f6c5f79 	0x6f6c5f79
   8:	7500706f 	jalx	401c1bc <__bss_start-0x8bfe3e44>
   c:	6769736e 	0x6769736e
  10:	2064656e 	addi	a0,v1,25966
  14:	72616863 	0x72616863
  18:	6c616800 	0x6c616800
  1c:	4e470074 	c3	0x470074
  20:	20432055 	addi	v1,v0,8277
  24:	2e372e34 	sltiu	s7,s1,11828
  28:	682f0031 	0x682f0031
  2c:	2f656d6f 	sltiu	a1,k1,28015
  30:	72616d66 	0x72616d66
  34:	494d2f73 	0x494d2f73
  38:	4f5f5350 	c3	0x15f5350
  3c:	72700053 	0x72700053
  40:	73746e69 	0x73746e69
  44:	63007274 	0x63007274
  48:	6f736e6f 	0x6f736e6f
  4c:	632e656c 	0x632e656c
  50:	69727000 	0x69727000
  54:	6863746e 	0x6863746e
  58:	00637261 	0x637261
  5c:	5f307063 	0x5f307063
  60:	73756163 	0x73756163
  64:	65720065 	0x65720065
  68:	635f6461 	0x635f6461
  6c:	65737561 	0x65737561
  70:	30706300 	andi	s0,v1,0x6300
  74:	6370655f 	0x6370655f
  78:	766e6500 	jalx	9b99400 <__bss_start-0x86466c00>
  7c:	7365645f 	0x7365645f
  80:	796f7274 	0x796f7274
  84:	766e6500 	jalx	9b99400 <__bss_start-0x86466c00>
  88:	6174735f 	0x6174735f
  8c:	00737574 	0x737574
  90:	65727563 	0x65727563
  94:	5400766e 	0x5400766e
  98:	66706172 	0x66706172
  9c:	656d6172 	0x656d6172
  a0:	766e6500 	jalx	9b99400 <__bss_start-0x86466c00>
  a4:	6c64695f 	0x6c64695f
  a8:	454b0065 	0x454b0065
  ac:	4c454e52 	0x4c454e52
  b0:	0050535f 	0x50535f
  b4:	7478656e 	jalx	1e195b8 <__bss_start-0x8e1e6a48>
  b8:	766e655f 	jalx	9b9957c <__bss_start-0x86466a84>
  bc:	0064695f 	0x64695f
  c0:	705f656c 	0x705f656c
  c4:	00766572 	0x766572
  c8:	5f766e65 	0x5f766e65
  cc:	61657263 	0x61657263
  d0:	65006574 	0x65006574
  d4:	0073766e 	0x73766e
  d8:	5f766e65 	0x5f766e65
  dc:	74696e69 	jalx	1a5b9a4 <__bss_start-0x8e5a465c>
  e0:	6f687300 	0x6f687300
  e4:	75207472 	jalx	481d1c8 <__bss_start-0x8b7e2e38>
  e8:	6769736e 	0x6769736e
  ec:	2064656e 	addi	a0,v1,25966
  f0:	00746e69 	0x746e69
  f4:	5f766e65 	0x5f766e65
  f8:	6e650042 	0x6e650042
  fc:	64695f76 	0x64695f76
 100:	695f656c 	0x695f656c
 104:	0074696e 	0x74696e
 108:	5f766e65 	0x5f766e65
 10c:	6e650043 	0x6e650043
 110:	00415f76 	0x415f76
 114:	6e656b6d 	0x6e656b6d
 118:	00646976 	0x646976
 11c:	6e5f656c 	0x6e5f656c
 120:	00747865 	0x747865
 124:	61657263 	0x61657263
 128:	435f6574 	c0	0x15f6574
 12c:	766e4500 	jalx	9b91400 <__bss_start-0x8646ec00>
 130:	73696c5f 	0x73696c5f
 134:	70630074 	0x70630074
 138:	74735f30 	jalx	1cd7cc0 <__bss_start-0x8e328340>
 13c:	73757461 	0x73757461
 140:	61657200 	0x61657200
 144:	72735f64 	0x72735f64
 148:	766e6500 	jalx	9b99400 <__bss_start-0x86466c00>
 14c:	6c64695f 	0x6c64695f
 150:	75725f65 	jalx	5c97d94 <__bss_start-0x8a36826c>
 154:	686c006e 	0x686c006e
 158:	7269665f 	0x7269665f
 15c:	6c007473 	0x6c007473
 160:	5f64616f 	0x5f64616f
 164:	646f6369 	0x646f6369
 168:	6f6c0065 	0x6f6c0065
 16c:	6c20676e 	0x6c20676e
 170:	20676e6f 	addi	a3,v1,28271
 174:	69736e75 	0x69736e75
 178:	64656e67 	0x64656e67
 17c:	746e6920 	jalx	1b9a480 <__bss_start-0x8e465b80>
 180:	67657200 	0x67657200
 184:	70750073 	0x70750073
 188:	62007475 	0x62007475
 18c:	72616e69 	0x72616e69
 190:	6e650079 	0x6e650079
 194:	696c5f76 	0x696c5f76
 198:	73006b6e 	0x73006b6e
 19c:	74657a69 	jalx	195e9a4 <__bss_start-0x8e6a165c>
 1a0:	00657079 	0x657079
 1a4:	676e6f6c 	0x676e6f6c
 1a8:	6e6f6c20 	0x6e6f6c20
 1ac:	6e692067 	0x6e692067
 1b0:	72630074 	0x72630074
 1b4:	65746165 	0x65746165
 1b8:	6300415f 	0x6300415f
 1bc:	74616572 	jalx	18595c8 <__bss_start-0x8e7a6a38>
 1c0:	00425f65 	0x425f65
 1c4:	68635f75 	0x68635f75
 1c8:	73007261 	0x73007261
 1cc:	74726f68 	jalx	1c9bda0 <__bss_start-0x8e364260>
 1d0:	746e6920 	jalx	1b9a480 <__bss_start-0x8e465b80>
 1d4:	695f7500 	0x695f7500
 1d8:	6500746e 	0x6500746e
 1dc:	665f766e 	0x665f766e
 1e0:	5f656572 	0x5f656572
 1e4:	7473696c 	jalx	1cda5b0 <__bss_start-0x8e325a50>
 1e8:	766e6500 	jalx	9b99400 <__bss_start-0x86466c00>
 1ec:	6500632e 	0x6500632e
 1f0:	745f766e 	jalx	17dd9b8 <__bss_start-0x8e822648>
 1f4:	6e650066 	0x6e650066
 1f8:	6c615f76 	0x6c615f76
 1fc:	00636f6c 	0x636f6c
 200:	5f766e65 	0x5f766e65
 204:	006e7572 	0x6e7572
 208:	61656c63 	0x61656c63
 20c:	65725f72 	0x65725f72
 210:	72700067 	0x72700067
 214:	5f746e69 	0x5f746e69
 218:	5f6d756e 	0x5f6d756e
 21c:	32786568 	andi	t8,s3,0x6568
 220:	7a697300 	0x7a697300
 224:	00745f65 	0x745f65
 228:	74696e69 	jalx	1a5b9a4 <__bss_start-0x8e5a465c>
 22c:	6d00632e 	0x6d00632e
 230:	61657279 	0x61657279
 234:	00727364 	0x727364
 238:	6e69616d 	0x6e69616d
 23c:	6e696200 	0x6e696200
 240:	5f797261 	0x5f797261
 244:	72657375 	0x72657375
 248:	735f425f 	0x735f425f
 24c:	74726174 	jalx	1c985d0 <__bss_start-0x8e367a30>
 250:	657a6200 	0x657a6200
 254:	4e006f72 	c3	0x6f72
 258:	5f747865 	0x5f747865
 25c:	4e766e45 	c3	0x766e45
 260:	6c006d75 	0x6c006d75
 264:	65766165 	0x65766165
 268:	746e695f 	jalx	1b9a57c <__bss_start-0x8e465a84>
 26c:	61747300 	0x61747300
 270:	745f7472 	jalx	17dd1c8 <__bss_start-0x8e822e38>
 274:	72656d69 	0x72656d69
 278:	6e696200 	0x6e696200
 27c:	5f797261 	0x5f797261
 280:	72657375 	0x72657375
 284:	735f415f 	0x735f415f
 288:	00657a69 	0x657a69
 28c:	6e697270 	0x6e697270
 290:	756e5f74 	jalx	5b97dd0 <__bss_start-0x8a468230>
 294:	65685f6d 	0x65685f6d
 298:	69620078 	0x69620078
 29c:	7972616e 	0x7972616e
 2a0:	6573755f 	0x6573755f
 2a4:	5f435f72 	0x5f435f72
 2a8:	657a6973 	0x657a6973
 2ac:	73647000 	0x73647000
 2b0:	7274735f 	0x7274735f
 2b4:	69727000 	0x69727000
 2b8:	725f746e 	0x725f746e
 2bc:	62006765 	0x62006765
 2c0:	79706f63 	0x79706f63
 2c4:	695f7500 	0x695f7500
 2c8:	3233746e 	andi	s3,s1,0x746e
 2cc:	6200745f 	0x6200745f
 2d0:	72616e69 	0x72616e69
 2d4:	73755f79 	0x73755f79
 2d8:	415f7265 	0x415f7265
 2dc:	6174735f 	0x6174735f
 2e0:	62007472 	0x62007472
 2e4:	72616e69 	0x72616e69
 2e8:	73755f79 	0x73755f79
 2ec:	435f7265 	c0	0x15f7265
 2f0:	6174735f 	0x6174735f
 2f4:	70007472 	0x70007472
 2f8:	746e6972 	jalx	1b9a5c8 <__bss_start-0x8e465a38>
 2fc:	7865685f 	0x7865685f
 300:	67697300 	0x67697300
 304:	5f6c616e 	0x5f6c616e
 308:	00746e69 	0x746e69
 30c:	6e676973 	0x6e676973
 310:	655f6c61 	0x655f6c61
 314:	70656378 	0x70656378
 318:	6e6f6974 	0x6e6f6974
 31c:	6e696200 	0x6e696200
 320:	5f797261 	0x5f797261
 324:	72657375 	0x72657375
 328:	735f425f 	0x735f425f
 32c:	00657a69 	0x657a69
 330:	656c5f70 	0x656c5f70
 334:	5f700064 	0x5f700064
 338:	74726175 	jalx	1c985d4 <__bss_start-0x8e367a2c>
 33c:	72796d00 	0x72796d00
 340:	63646165 	0x63646165
 344:	65737561 	0x65737561
 348:	55736900 	0x55736900
 34c:	00646573 	0x646573
 350:	6d6d656d 	0x6d6d656d
 354:	5f79726f 	0x5f79726f
 358:	74696e69 	jalx	1a5b9a4 <__bss_start-0x8e5a465c>
 35c:	616d7000 	0x616d7000
 360:	00632e70 	0x632e70
 364:	73326170 	0x73326170
 368:	6f746365 	0x6f746365
 36c:	65730072 	0x65730072
 370:	726f7463 	0x726f7463
 374:	6d660073 	0x6d660073
 378:	61745374 	0x61745374
 37c:	5f007472 	0x5f007472
 380:	6975625f 	0x6975625f
 384:	6e69746c 	0x6e69746c
 388:	5f61765f 	0x5f61765f
 38c:	7473696c 	jalx	1cda5b0 <__bss_start-0x8e325a50>
 390:	5f706c00 	0x5f706c00
 394:	6e697250 	0x6e697250
 398:	65620074 	0x65620074
 39c:	006e6967 	0x6e6967
 3a0:	6e697270 	0x6e697270
 3a4:	756e5f74 	jalx	5b97dd0 <__bss_start-0x8a468230>
 3a8:	75625f6d 	jalx	5897db4 <__bss_start-0x8a76824c>
 3ac:	72700066 	0x72700066
 3b0:	2e746e69 	sltiu	s4,s3,28265
 3b4:	656e0063 	0x656e0063
 3b8:	616c4667 	0x616c4667
 3bc:	796d0067 	0x796d0067
 3c0:	7074756f 	0x7074756f
 3c4:	5f007475 	0x5f007475
 3c8:	756e675f 	jalx	5b99d7c <__bss_start-0x8a466284>
 3cc:	61765f63 	0x61765f63
 3d0:	73696c5f 	0x73696c5f
 3d4:	61620074 	0x61620074
 3d8:	5f006573 	0x5f006573
 3dc:	696e6170 	0x696e6170
 3e0:	61700063 	0x61700063
 3e4:	6c006364 	0x6c006364
 3e8:	756a6461 	jalx	5a99184 <__bss_start-0x8a566e7c>
 3ec:	77007473 	jalx	c01d1cc <__bss_start-0x83fe2e34>
 3f0:	68746469 	0x68746469
 3f4:	6c696600 	0x6c696600
 3f8:	70750065 	0x70750065
 3fc:	65736163 	0x65736163
 400:	65687400 	0x65687400
 404:	61746146 	0x61746146
 408:	67734d6c 	0x67734d6c
 40c:	6e696c00 	0x6e696c00
 410:	72500065 	0x72500065
 414:	4e746e69 	c3	0x746e69
 418:	50006d75 	0x50006d75
 41c:	746e6972 	jalx	1b9a5c8 <__bss_start-0x8e465a38>
 420:	69727453 	0x69727453
 424:	7000676e 	0x7000676e
 428:	00636572 	0x636572
 42c:	75746361 	jalx	5d18d84 <__bss_start-0x8a2e727c>
 430:	654c6c61 	0x654c6c61
 434:	6874676e 	0x6874676e
 438:	6e6f6c00 	0x6e6f6c00
 43c:	616c4667 	0x616c4667
 440:	72500067 	0x72500067
 444:	43746e69 	c0	0x1746e69
 448:	00726168 	0x726168
 44c:	676e656c 	0x676e656c
 450:	73006874 	0x73006874
 454:	64656863 	0x64656863
 458:	6569795f 	0x6569795f
 45c:	7300646c 	0x7300646c
 460:	64656863 	0x64656863
 464:	5300632e 	0x5300632e
 468:	44454843 	0x44454843
 46c:	69004e5f 	0x69004e5f
 470:	706d6554 	0x706d6554
 474:	73797300 	0x73797300
 478:	6978655f 	0x6978655f
 47c:	79730074 	0x79730074
 480:	72705f73 	0x72705f73
 484:	66746e69 	0x66746e69
 488:	73797300 	0x73797300
 48c:	6c6c6163 	0x6c6c6163
 490:	6c6c615f 	0x6c6c615f
 494:	7300632e 	0x7300632e
 498:	705f7379 	0x705f7379
 49c:	68637475 	0x68637475
 4a0:	73007261 	0x73007261
 4a4:	61637379 	0x61637379
 4a8:	705f6c6c 	0x705f6c6c
 4ac:	746e6972 	jalx	1b9a5c8 <__bss_start-0x8e465a38>
 4b0:	79730066 	0x79730066
 4b4:	6c616373 	0x6c616373
 4b8:	696c5f6c 	0x696c5f6c
 4bc:	00632e62 	0x632e62
 4c0:	63737973 	0x63737973
 4c4:	5f6c6c61 	0x5f6c6c61
 4c8:	74697865 	jalx	1a5e194 <__bss_start-0x8e5a1e6c>
 4cc:	73797300 	0x73797300
 4d0:	6c6c6163 	0x6c6c6163
 4d4:	7475705f 	jalx	1d5c17c <__bss_start-0x8e2a3e84>
 4d8:	72616863 	0x72616863
 4dc:	79736d00 	0x79736d00
 4e0:	6c616373 	0x6c616373
 4e4:	7274006c 	0x7274006c
 4e8:	695f7061 	0x695f7061
 4ec:	0074696e 	0x74696e
 4f0:	72646461 	0x72646461
 4f4:	646c6f00 	0x646c6f00
 4f8:	6e61685f 	0x6e61685f
 4fc:	72656c64 	0x72656c64
 500:	61727400 	0x61727400
 504:	632e7370 	0x632e7370
 508:	63786500 	0x63786500
 50c:	69747065 	0x69747065
 510:	685f6e6f 	0x685f6e6f
 514:	6c646e61 	0x6c646e61
 518:	00737265 	0x737265
 51c:	5f746573 	0x5f746573
 520:	65637865 	0x65637865
 524:	765f7470 	jalx	97dd1c0 <__bss_start-0x86822e40>
 528:	6f746365 	0x6f746365
 52c:	Address 0x000000000000052c is out of bounds.


Disassembly of section .debug_frame:

00000000 <.debug_frame>:
   0:	0000000c 	syscall
   4:	ffffffff 	0xffffffff
   8:	7c010001 	0x7c010001
   c:	001d0d1f 	0x1d0d1f
  10:	00000020 	add	zero,zero,zero
  14:	00000000 	nop
  18:	bfc00800 	0xbfc00800
  1c:	00000050 	0x50
  20:	48200e44 	0x48200e44
  24:	029e019f 	0x29e019f
  28:	6c1e0d44 	0x6c1e0d44
  2c:	de4c1d0d 	0xde4c1d0d
  30:	00000edf 	0xedf
  34:	0000001c 	0x1c
  38:	00000000 	nop
  3c:	bfc00850 	0xbfc00850
  40:	0000002c 	0x2c
  44:	44080e44 	0x44080e44
  48:	0d44019e 	jal	5100678 <__bss_start-0x8aeff988>
  4c:	1d0d501e 	0x1d0d501e
  50:	000ede48 	0xede48
  54:	00000020 	add	zero,zero,zero
  58:	00000000 	nop
  5c:	bfc0087c 	0xbfc0087c
  60:	00000074 	0x74
  64:	48180e44 	0x48180e44
  68:	029e019f 	0x29e019f
  6c:	021e0d44 	0x21e0d44
  70:	4c1d0d50 	0x4c1d0d50
  74:	000edfde 	0xedfde
  78:	0000001c 	0x1c
  7c:	00000000 	nop
  80:	bfc008f0 	0xbfc008f0
  84:	00000050 	0x50
  88:	44100e44 	0x44100e44
  8c:	0d44019e 	jal	5100678 <__bss_start-0x8aeff988>
  90:	1d0d741e 	0x1d0d741e
  94:	000ede48 	0xede48
  98:	0000000c 	syscall
  9c:	ffffffff 	0xffffffff
  a0:	7c010001 	0x7c010001
  a4:	001d0d1f 	0x1d0d1f
  a8:	00000020 	add	zero,zero,zero
  ac:	00000098 	0x98
  b0:	bfc00940 	0xbfc00940
  b4:	000000a4 	0xa4
  b8:	44100e44 	0x44100e44
  bc:	0d44019e 	jal	5100678 <__bss_start-0x8aeff988>
  c0:	0d88021e 	jal	6200878 <__bss_start-0x89dff788>
  c4:	0ede481d 	jal	b792074 <__bss_start-0x8486df8c>
  c8:	00000000 	nop
  cc:	00000024 	and	zero,zero,zero
  d0:	00000098 	0x98
  d4:	bfc009e4 	0xbfc009e4
  d8:	000001cc 	syscall	0x7
  dc:	48200e44 	0x48200e44
  e0:	029e019f 	0x29e019f
  e4:	031e0d44 	0x31e0d44
  e8:	1d0d01a8 	0x1d0d01a8
  ec:	0edfde4c 	jal	b7f7930 <__bss_start-0x848086d0>
  f0:	00000000 	nop
  f4:	00000024 	and	zero,zero,zero
  f8:	00000098 	0x98
  fc:	bfc00bb0 	0xbfc00bb0
 100:	0000013c 	0x13c
 104:	48200e44 	0x48200e44
 108:	029e019f 	0x29e019f
 10c:	031e0d44 	0x31e0d44
 110:	1d0d0118 	0x1d0d0118
 114:	0edfde4c 	jal	b7f7930 <__bss_start-0x848086d0>
 118:	00000000 	nop
 11c:	00000020 	add	zero,zero,zero
 120:	00000098 	0x98
 124:	bfc00cec 	0xbfc00cec
 128:	0000008c 	syscall	0x2
 12c:	44100e44 	0x44100e44
 130:	0d44019e 	jal	5100678 <__bss_start-0x8aeff988>
 134:	0d70021e 	jal	5c00878 <__bss_start-0x8a3ff788>
 138:	0ede481d 	jal	b792074 <__bss_start-0x8486df8c>
 13c:	00000000 	nop
 140:	00000020 	add	zero,zero,zero
 144:	00000098 	0x98
 148:	bfc00d78 	0xbfc00d78
 14c:	0000006c 	0x6c
 150:	48200e44 	0x48200e44
 154:	029e019f 	0x29e019f
 158:	021e0d44 	0x21e0d44
 15c:	4c1d0d48 	0x4c1d0d48
 160:	000edfde 	0xedfde
 164:	00000020 	add	zero,zero,zero
 168:	00000098 	0x98
 16c:	bfc00de4 	0xbfc00de4
 170:	000000fc 	0xfc
 174:	48180e44 	0x48180e44
 178:	029e019f 	0x29e019f
 17c:	021e0d44 	0x21e0d44
 180:	4c1d0dd8 	0x4c1d0dd8
 184:	000edfde 	0xedfde
 188:	00000020 	add	zero,zero,zero
 18c:	00000098 	0x98
 190:	bfc00ee0 	0xbfc00ee0
 194:	000000b8 	0xb8
 198:	48200e44 	0x48200e44
 19c:	029e019f 	0x29e019f
 1a0:	021e0d44 	0x21e0d44
 1a4:	4c1d0d94 	0x4c1d0d94
 1a8:	000edfde 	0xedfde
 1ac:	00000018 	mult	zero,zero
 1b0:	00000098 	0x98
 1b4:	bfc00f98 	0xbfc00f98
 1b8:	00000028 	0x28
 1bc:	48180e44 	0x48180e44
 1c0:	029e019f 	0x29e019f
 1c4:	001e0d44 	0x1e0d44
 1c8:	00000020 	add	zero,zero,zero
 1cc:	00000098 	0x98
 1d0:	bfc00fc0 	0xbfc00fc0
 1d4:	00000094 	0x94
 1d8:	48200e44 	0x48200e44
 1dc:	029e019f 	0x29e019f
 1e0:	021e0d44 	0x21e0d44
 1e4:	4c1d0d70 	0x4c1d0d70
 1e8:	000edfde 	0xedfde
 1ec:	00000020 	add	zero,zero,zero
 1f0:	00000098 	0x98
 1f4:	bfc01054 	0xbfc01054
 1f8:	00000048 	0x48
 1fc:	48180e44 	0x48180e44
 200:	029e019f 	0x29e019f
 204:	641e0d44 	0x641e0d44
 208:	de4c1d0d 	0xde4c1d0d
 20c:	00000edf 	0xedf
 210:	00000020 	add	zero,zero,zero
 214:	00000098 	0x98
 218:	bfc0109c 	0xbfc0109c
 21c:	0000007c 	0x7c
 220:	44100e44 	0x44100e44
 224:	0d44019e 	jal	5100678 <__bss_start-0x8aeff988>
 228:	0d60021e 	jal	5800878 <__bss_start-0x8a7ff788>
 22c:	0ede481d 	jal	b792074 <__bss_start-0x8486df8c>
 230:	00000000 	nop
 234:	00000020 	add	zero,zero,zero
 238:	00000098 	0x98
 23c:	bfc01118 	0xbfc01118
 240:	00000038 	0x38
 244:	48100e44 	0x48100e44
 248:	0290019e 	0x290019e
 24c:	541e0d44 	0x541e0d44
 250:	d04c1d0d 	0xd04c1d0d
 254:	00000ede 	0xede
 258:	00000020 	add	zero,zero,zero
 25c:	00000098 	0x98
 260:	bfc01150 	0xbfc01150
 264:	00000038 	0x38
 268:	48100e44 	0x48100e44
 26c:	0290019e 	0x290019e
 270:	541e0d44 	0x541e0d44
 274:	d04c1d0d 	0xd04c1d0d
 278:	00000ede 	0xede
 27c:	00000018 	mult	zero,zero
 280:	00000098 	0x98
 284:	bfc01188 	0xbfc01188
 288:	0000005c 	0x5c
 28c:	48200e44 	0x48200e44
 290:	029e019f 	0x29e019f
 294:	001e0d44 	0x1e0d44
 298:	00000018 	mult	zero,zero
 29c:	00000098 	0x98
 2a0:	bfc011e4 	0xbfc011e4
 2a4:	0000005c 	0x5c
 2a8:	48200e44 	0x48200e44
 2ac:	029e019f 	0x29e019f
 2b0:	001e0d44 	0x1e0d44
 2b4:	00000018 	mult	zero,zero
 2b8:	00000098 	0x98
 2bc:	bfc01240 	0xbfc01240
 2c0:	0000005c 	0x5c
 2c4:	48200e44 	0x48200e44
 2c8:	029e019f 	0x29e019f
 2cc:	001e0d44 	0x1e0d44
 2d0:	00000024 	and	zero,zero,zero
 2d4:	00000098 	0x98
 2d8:	bfc0129c 	0xbfc0129c
 2dc:	00000124 	0x124
 2e0:	48200e44 	0x48200e44
 2e4:	029e019f 	0x29e019f
 2e8:	031e0d44 	0x31e0d44
 2ec:	1d0d0100 	0x1d0d0100
 2f0:	0edfde4c 	jal	b7f7930 <__bss_start-0x848086d0>
 2f4:	00000000 	nop
 2f8:	00000024 	and	zero,zero,zero
 2fc:	00000098 	0x98
 300:	bfc013c0 	0xbfc013c0
 304:	00000124 	0x124
 308:	48200e44 	0x48200e44
 30c:	029e019f 	0x29e019f
 310:	031e0d44 	0x31e0d44
 314:	1d0d0100 	0x1d0d0100
 318:	0edfde4c 	jal	b7f7930 <__bss_start-0x848086d0>
 31c:	00000000 	nop
 320:	00000024 	and	zero,zero,zero
 324:	00000098 	0x98
 328:	bfc014e4 	0xbfc014e4
 32c:	00000124 	0x124
 330:	48200e44 	0x48200e44
 334:	029e019f 	0x29e019f
 338:	031e0d44 	0x31e0d44
 33c:	1d0d0100 	0x1d0d0100
 340:	0edfde4c 	jal	b7f7930 <__bss_start-0x848086d0>
 344:	00000000 	nop
 348:	0000000c 	syscall
 34c:	ffffffff 	0xffffffff
 350:	7c010001 	0x7c010001
 354:	001d0d1f 	0x1d0d1f
 358:	00000018 	mult	zero,zero
 35c:	00000348 	0x348
 360:	bfc01820 	0xbfc01820
 364:	000000f0 	0xf0
 368:	48200e44 	0x48200e44
 36c:	029e019f 	0x29e019f
 370:	001e0d44 	0x1e0d44
 374:	00000020 	add	zero,zero,zero
 378:	00000348 	0x348
 37c:	bfc01910 	0xbfc01910
 380:	00000120 	0x120
 384:	44100e44 	0x44100e44
 388:	0d44019e 	jal	5100678 <__bss_start-0x8aeff988>
 38c:	0104031e 	0x104031e
 390:	de481d0d 	0xde481d0d
 394:	0000000e 	0xe
 398:	00000020 	add	zero,zero,zero
 39c:	00000348 	0x348
 3a0:	bfc01a30 	0xbfc01a30
 3a4:	00000084 	0x84
 3a8:	44100e44 	0x44100e44
 3ac:	0d44019e 	jal	5100678 <__bss_start-0x8aeff988>
 3b0:	0d68021e 	jal	5a00878 <__bss_start-0x8a5ff788>
 3b4:	0ede481d 	jal	b792074 <__bss_start-0x8486df8c>
 3b8:	00000000 	nop
 3bc:	00000020 	add	zero,zero,zero
 3c0:	00000348 	0x348
 3c4:	bfc01ab4 	0xbfc01ab4
 3c8:	00000038 	0x38
 3cc:	48100e44 	0x48100e44
 3d0:	0290019e 	0x290019e
 3d4:	541e0d44 	0x541e0d44
 3d8:	d04c1d0d 	0xd04c1d0d
 3dc:	00000ede 	0xede
 3e0:	00000020 	add	zero,zero,zero
 3e4:	00000348 	0x348
 3e8:	bfc01aec 	0xbfc01aec
 3ec:	00000038 	0x38
 3f0:	48100e44 	0x48100e44
 3f4:	0290019e 	0x290019e
 3f8:	541e0d44 	0x541e0d44
 3fc:	d04c1d0d 	0xd04c1d0d
 400:	00000ede 	0xede
 404:	00000020 	add	zero,zero,zero
 408:	00000348 	0x348
 40c:	bfc01b24 	0xbfc01b24
 410:	0000006c 	0x6c
 414:	48280e44 	0x48280e44
 418:	029e019f 	0x29e019f
 41c:	021e0d44 	0x21e0d44
 420:	4c1d0d48 	0x4c1d0d48
 424:	000edfde 	0xedfde
 428:	0000001c 	0x1c
 42c:	00000348 	0x348
 430:	bfc01b90 	0xbfc01b90
 434:	00000020 	add	zero,zero,zero
 438:	44080e44 	0x44080e44
 43c:	0d44019e 	jal	5100678 <__bss_start-0x8aeff988>
 440:	1d0d441e 	0x1d0d441e
 444:	000ede48 	0xede48
 448:	0000001c 	0x1c
 44c:	00000348 	0x348
 450:	bfc01bb0 	0xbfc01bb0
 454:	00000020 	add	zero,zero,zero
 458:	44080e44 	0x44080e44
 45c:	0d44019e 	jal	5100678 <__bss_start-0x8aeff988>
 460:	1d0d441e 	0x1d0d441e
 464:	000ede48 	0xede48
 468:	00000020 	add	zero,zero,zero
 46c:	00000348 	0x348
 470:	bfc01bd0 	0xbfc01bd0
 474:	00000084 	0x84
 478:	48180e44 	0x48180e44
 47c:	029e019f 	0x29e019f
 480:	021e0d44 	0x21e0d44
 484:	4c1d0d60 	0x4c1d0d60
 488:	000edfde 	0xedfde
 48c:	00000020 	add	zero,zero,zero
 490:	00000348 	0x348
 494:	bfc01c54 	0xbfc01c54
 498:	000000f4 	0xf4
 49c:	48580e44 	0x48580e44
 4a0:	029e019f 	0x29e019f
 4a4:	021e0d44 	0x21e0d44
 4a8:	4c1d0dd0 	0x4c1d0dd0
 4ac:	000edfde 	0xedfde
 4b0:	00000024 	and	zero,zero,zero
 4b4:	00000348 	0x348
 4b8:	bfc01d48 	0xbfc01d48
 4bc:	00000130 	0x130
 4c0:	48580e44 	0x48580e44
 4c4:	029e019f 	0x29e019f
 4c8:	031e0d44 	0x31e0d44
 4cc:	1d0d010c 	0x1d0d010c
 4d0:	0edfde4c 	jal	b7f7930 <__bss_start-0x848086d0>
 4d4:	00000000 	nop
 4d8:	00000020 	add	zero,zero,zero
 4dc:	00000348 	0x348
 4e0:	bfc01e78 	0xbfc01e78
 4e4:	0000006c 	0x6c
 4e8:	44100e44 	0x44100e44
 4ec:	0d44019e 	jal	5100678 <__bss_start-0x8aeff988>
 4f0:	0d50021e 	jal	5400878 <__bss_start-0x8abff788>
 4f4:	0ede481d 	jal	b792074 <__bss_start-0x8486df8c>
 4f8:	00000000 	nop
 4fc:	0000000c 	syscall
 500:	ffffffff 	0xffffffff
 504:	7c010001 	0x7c010001
 508:	001d0d1f 	0x1d0d1f
 50c:	0000001c 	0x1c
 510:	000004fc 	0x4fc
 514:	bfc01ef0 	0xbfc01ef0
 518:	00000044 	0x44
 51c:	44080e44 	0x44080e44
 520:	0d44019e 	jal	5100678 <__bss_start-0x8aeff988>
 524:	1d0d681e 	0x1d0d681e
 528:	000ede48 	0xede48
 52c:	00000020 	add	zero,zero,zero
 530:	000004fc 	0x4fc
 534:	bfc01f34 	0xbfc01f34
 538:	0000003c 	0x3c
 53c:	48180e44 	0x48180e44
 540:	029e019f 	0x29e019f
 544:	581e0d44 	0x581e0d44
 548:	de4c1d0d 	0xde4c1d0d
 54c:	00000edf 	0xedf
 550:	0000000c 	syscall
 554:	ffffffff 	0xffffffff
 558:	7c010001 	0x7c010001
 55c:	001d0d1f 	0x1d0d1f
 560:	00000020 	add	zero,zero,zero
 564:	00000550 	0x550
 568:	bfc01f70 	0xbfc01f70
 56c:	000000c0 	ehb
 570:	48200e44 	0x48200e44
 574:	029e019f 	0x29e019f
 578:	021e0d44 	0x21e0d44
 57c:	4c1d0d9c 	0x4c1d0d9c
 580:	000edfde 	0xedfde
 584:	00000020 	add	zero,zero,zero
 588:	00000550 	0x550
 58c:	bfc02030 	0xbfc02030
 590:	00000058 	0x58
 594:	48200e44 	0x48200e44
 598:	029e019f 	0x29e019f
 59c:	741e0d44 	jalx	783510 <__bss_start-0x8f87caf0>
 5a0:	de4c1d0d 	0xde4c1d0d
 5a4:	00000edf 	0xedf
 5a8:	00000018 	mult	zero,zero
 5ac:	00000550 	0x550
 5b0:	bfc02088 	0xbfc02088
 5b4:	00000070 	0x70
 5b8:	48200e44 	0x48200e44
 5bc:	029e019f 	0x29e019f
 5c0:	001e0d44 	0x1e0d44
 5c4:	00000024 	and	zero,zero,zero
 5c8:	00000550 	0x550
 5cc:	bfc020f8 	0xbfc020f8
 5d0:	000008fc 	0x8fc
 5d4:	01a80e44 	0x1a80e44
 5d8:	9e019f48 	0x9e019f48
 5dc:	1e0d4402 	0x1e0d4402
 5e0:	0d08d803 	jal	423600c <__bss_start-0x8bdc9ff4>
 5e4:	dfde4c1d 	0xdfde4c1d
 5e8:	0000000e 	0xe
 5ec:	00000020 	add	zero,zero,zero
 5f0:	00000550 	0x550
 5f4:	bfc029f4 	0xbfc029f4
 5f8:	00000140 	sll	zero,zero,0x5
 5fc:	44100e44 	0x44100e44
 600:	0d44019e 	jal	5100678 <__bss_start-0x8aeff988>
 604:	0124031e 	0x124031e
 608:	de481d0d 	0xde481d0d
 60c:	0000000e 	0xe
 610:	00000020 	add	zero,zero,zero
 614:	00000550 	0x550
 618:	bfc02b34 	0xbfc02b34
 61c:	0000025c 	0x25c
 620:	44180e44 	0x44180e44
 624:	0d44019e 	jal	5100678 <__bss_start-0x8aeff988>
 628:	0240031e 	0x240031e
 62c:	de481d0d 	0xde481d0d
 630:	0000000e 	0xe
 634:	00000020 	add	zero,zero,zero
 638:	00000550 	0x550
 63c:	bfc02d90 	0xbfc02d90
 640:	00000170 	0x170
 644:	44180e44 	0x44180e44
 648:	0d44019e 	jal	5100678 <__bss_start-0x8aeff988>
 64c:	0154031e 	0x154031e
 650:	de481d0d 	0xde481d0d
 654:	0000000e 	0xe
 658:	00000024 	and	zero,zero,zero
 65c:	00000550 	0x550
 660:	bfc02f00 	0xbfc02f00
 664:	000002dc 	0x2dc
 668:	48380e44 	0x48380e44
 66c:	029e019f 	0x29e019f
 670:	031e0d44 	0x31e0d44
 674:	1d0d02b8 	0x1d0d02b8
 678:	0edfde4c 	jal	b7f7930 <__bss_start-0x848086d0>
 67c:	00000000 	nop
 680:	0000000c 	syscall
 684:	ffffffff 	0xffffffff
 688:	7c010001 	0x7c010001
 68c:	001d0d1f 	0x1d0d1f
 690:	00000024 	and	zero,zero,zero
 694:	00000680 	sll	zero,zero,0x1a
 698:	bfc031e0 	0xbfc031e0
 69c:	00000224 	0x224
 6a0:	48280e44 	0x48280e44
 6a4:	029e019f 	0x29e019f
 6a8:	031e0d44 	0x31e0d44
 6ac:	1d0d0200 	0x1d0d0200
 6b0:	0edfde4c 	jal	b7f7930 <__bss_start-0x848086d0>
 6b4:	00000000 	nop
 6b8:	0000000c 	syscall
 6bc:	ffffffff 	0xffffffff
 6c0:	7c010001 	0x7c010001
 6c4:	001d0d1f 	0x1d0d1f
 6c8:	00000020 	add	zero,zero,zero
 6cc:	000006b8 	0x6b8
 6d0:	bfc03680 	0xbfc03680
 6d4:	00000048 	0x48
 6d8:	48180e44 	0x48180e44
 6dc:	029e019f 	0x29e019f
 6e0:	641e0d44 	0x641e0d44
 6e4:	de4c1d0d 	0xde4c1d0d
 6e8:	00000edf 	0xedf
 6ec:	00000020 	add	zero,zero,zero
 6f0:	000006b8 	0x6b8
 6f4:	bfc036c8 	0xbfc036c8
 6f8:	00000038 	0x38
 6fc:	48180e44 	0x48180e44
 700:	029e019f 	0x29e019f
 704:	541e0d44 	0x541e0d44
 708:	de4c1d0d 	0xde4c1d0d
 70c:	00000edf 	0xedf
 710:	00000020 	add	zero,zero,zero
 714:	000006b8 	0x6b8
 718:	bfc03700 	0xbfc03700
 71c:	00000038 	0x38
 720:	48180e44 	0x48180e44
 724:	029e019f 	0x29e019f
 728:	541e0d44 	0x541e0d44
 72c:	de4c1d0d 	0xde4c1d0d
 730:	00000edf 	0xedf
 734:	0000000c 	syscall
 738:	ffffffff 	0xffffffff
 73c:	7c010001 	0x7c010001
 740:	001d0d1f 	0x1d0d1f
 744:	00000020 	add	zero,zero,zero
 748:	00000734 	0x734
 74c:	bfc03780 	0xbfc03780
 750:	00000054 	0x54
 754:	48200e44 	0x48200e44
 758:	029e019f 	0x29e019f
 75c:	701e0d44 	0x701e0d44
 760:	de4c1d0d 	0xde4c1d0d
 764:	00000edf 	0xedf
 768:	00000020 	add	zero,zero,zero
 76c:	00000734 	0x734
 770:	bfc037d4 	0xbfc037d4
 774:	0000004c 	syscall	0x1
 778:	48200e44 	0x48200e44
 77c:	029e019f 	0x29e019f
 780:	681e0d44 	0x681e0d44
 784:	de4c1d0d 	0xde4c1d0d
 788:	00000edf 	0xedf
 78c:	00000020 	add	zero,zero,zero
 790:	00000734 	0x734
 794:	bfc03820 	0xbfc03820
 798:	00000048 	0x48
 79c:	48200e44 	0x48200e44
 7a0:	029e019f 	0x29e019f
 7a4:	641e0d44 	0x641e0d44
 7a8:	de4c1d0d 	0xde4c1d0d
 7ac:	00000edf 	0xedf
 7b0:	0000000c 	syscall
 7b4:	ffffffff 	0xffffffff
 7b8:	7c010001 	0x7c010001
 7bc:	001d0d1f 	0x1d0d1f
 7c0:	00000020 	add	zero,zero,zero
 7c4:	000007b0 	0x7b0
 7c8:	bfc03870 	0xbfc03870
 7cc:	00000094 	0x94
 7d0:	48200e44 	0x48200e44
 7d4:	029e019f 	0x29e019f
 7d8:	021e0d44 	0x21e0d44
 7dc:	4c1d0d70 	0x4c1d0d70
 7e0:	000edfde 	0xedfde
 7e4:	00000020 	add	zero,zero,zero
 7e8:	000007b0 	0x7b0
 7ec:	bfc03904 	0xbfc03904
 7f0:	00000080 	sll	zero,zero,0x2
 7f4:	44100e44 	0x44100e44
 7f8:	0d44019e 	jal	5100678 <__bss_start-0x8aeff988>
 7fc:	0d64021e 	jal	5900878 <__bss_start-0x8a6ff788>
 800:	0ede481d 	jal	b792074 <__bss_start-0x8486df8c>
 804:	00000000 	nop

Disassembly of section .stab:

00000000 <.stab>:
   0:	00000001 	0x1
   4:	00cd0000 	0xcd0000
   8:	00000131 	0x131
   c:	00000001 	0x1
  10:	00000064 	0x64
  14:	bfc01610 	0xbfc01610
  18:	00000011 	mthi	zero
  1c:	00000080 	sll	zero,zero,0x2
  20:	00000000 	nop
  24:	0000001b 	divu	zero,zero,zero
  28:	00100024 	and	zero,zero,s0
  2c:	bfc01610 	0xbfc01610
  30:	00000029 	0x29
  34:	00000084 	0x84
  38:	bfc01610 	0xbfc01610
  3c:	00000000 	nop
  40:	00100044 	0x100044
	...
  4c:	001a0044 	0x1a0044
  50:	00000004 	sllv	zero,zero,zero
  54:	00000000 	nop
  58:	001b0044 	0x1b0044
  5c:	00000008 	jr	zero
  60:	00000000 	nop
  64:	001c0044 	0x1c0044
  68:	0000000c 	syscall
  6c:	00000000 	nop
  70:	001d0044 	0x1d0044
  74:	00000010 	mfhi	zero
  78:	00000000 	nop
  7c:	001f0044 	0x1f0044
  80:	00000014 	0x14
  84:	00000000 	nop
  88:	00210044 	0x210044
  8c:	00000018 	mult	zero,zero
  90:	00000000 	nop
  94:	00240044 	0x240044
  98:	0000001c 	0x1c
  9c:	00000000 	nop
  a0:	00250044 	0x250044
  a4:	00000020 	add	zero,zero,zero
  a8:	00000000 	nop
  ac:	00260044 	0x260044
  b0:	00000024 	and	zero,zero,zero
  b4:	00000000 	nop
  b8:	00270044 	0x270044
  bc:	00000028 	0x28
  c0:	00000000 	nop
  c4:	002b0044 	0x2b0044
  c8:	0000002c 	0x2c
  cc:	00000000 	nop
  d0:	002c0044 	0x2c0044
  d4:	00000030 	0x30
  d8:	00000000 	nop
  dc:	002d0044 	0x2d0044
  e0:	00000034 	0x34
  e4:	00000000 	nop
  e8:	002e0044 	0x2e0044
  ec:	00000038 	0x38
  f0:	00000000 	nop
  f4:	002f0044 	0x2f0044
  f8:	0000003c 	0x3c
  fc:	00000000 	nop
 100:	00300044 	0x300044
 104:	00000040 	ssnop
 108:	00000000 	nop
 10c:	00310044 	0x310044
 110:	00000044 	0x44
 114:	00000000 	nop
 118:	00320044 	0x320044
 11c:	00000048 	0x48
 120:	00000000 	nop
 124:	00330044 	0x330044
 128:	0000004c 	syscall	0x1
 12c:	00000000 	nop
 130:	00340044 	0x340044
 134:	00000050 	0x50
 138:	00000000 	nop
 13c:	00350044 	0x350044
 140:	00000054 	0x54
 144:	00000000 	nop
 148:	00360044 	0x360044
 14c:	00000058 	0x58
 150:	00000000 	nop
 154:	00370044 	0x370044
 158:	0000005c 	0x5c
 15c:	00000000 	nop
 160:	00380044 	0x380044
 164:	00000060 	0x60
 168:	00000000 	nop
 16c:	00390044 	0x390044
 170:	00000064 	0x64
 174:	00000000 	nop
 178:	003a0044 	0x3a0044
 17c:	00000068 	0x68
 180:	00000000 	nop
 184:	003b0044 	0x3b0044
 188:	0000006c 	0x6c
 18c:	00000000 	nop
 190:	003c0044 	0x3c0044
 194:	00000070 	0x70
 198:	00000000 	nop
 19c:	003d0044 	0x3d0044
 1a0:	00000074 	0x74
 1a4:	00000000 	nop
 1a8:	003e0044 	0x3e0044
 1ac:	00000078 	0x78
 1b0:	00000000 	nop
 1b4:	003f0044 	0x3f0044
 1b8:	0000007c 	0x7c
 1bc:	00000000 	nop
 1c0:	00400044 	0x400044
 1c4:	00000080 	sll	zero,zero,0x2
 1c8:	00000000 	nop
 1cc:	00410044 	0x410044
 1d0:	00000084 	0x84
 1d4:	00000000 	nop
 1d8:	00420044 	0x420044
 1dc:	00000088 	0x88
 1e0:	00000000 	nop
 1e4:	00430044 	0x430044
 1e8:	0000008c 	syscall	0x2
 1ec:	00000000 	nop
 1f0:	00440044 	0x440044
 1f4:	00000090 	0x90
 1f8:	00000000 	nop
 1fc:	00460044 	0x460044
 200:	00000094 	0x94
 204:	00000000 	nop
 208:	00470044 	0x470044
 20c:	00000098 	0x98
 210:	00000000 	nop
 214:	00480044 	0x480044
 218:	0000009c 	0x9c
 21c:	00000000 	nop
 220:	00490044 	0x490044
 224:	000000a0 	0xa0
 228:	00000000 	nop
 22c:	004a0044 	0x4a0044
 230:	000000a4 	0xa4
 234:	00000000 	nop
 238:	004b0044 	0x4b0044
 23c:	000000a8 	0xa8
 240:	00000000 	nop
 244:	00510044 	0x510044
 248:	000000ac 	0xac
 24c:	00000000 	nop
 250:	00530044 	0x530044
 254:	000000b0 	0xb0
 258:	00000000 	nop
 25c:	00000024 	and	zero,zero,zero
 260:	000000b4 	0xb4
 264:	00000033 	0x33
 268:	00000064 	0x64
 26c:	bfc016e0 	0xbfc016e0
 270:	00000011 	mthi	zero
 274:	00000080 	sll	zero,zero,0x2
 278:	00000000 	nop
 27c:	00000043 	sra	zero,zero,0x1
 280:	002c0024 	and	zero,at,t4
 284:	bfc016e0 	0xbfc016e0
 288:	0000004a 	0x4a
 28c:	00000084 	0x84
 290:	bfc016e0 	0xbfc016e0
 294:	00000000 	nop
 298:	002c0044 	0x2c0044
	...
 2a4:	002d0044 	0x2d0044
 2a8:	00000004 	sllv	zero,zero,zero
 2ac:	00000000 	nop
 2b0:	002e0044 	0x2e0044
 2b4:	00000008 	jr	zero
 2b8:	00000000 	nop
 2bc:	002f0044 	0x2f0044
 2c0:	0000000c 	syscall
 2c4:	00000000 	nop
 2c8:	00310044 	0x310044
 2cc:	00000010 	mfhi	zero
 2d0:	00000000 	nop
 2d4:	00320044 	0x320044
 2d8:	00000014 	0x14
 2dc:	00000000 	nop
 2e0:	00330044 	0x330044
 2e4:	00000018 	mult	zero,zero
 2e8:	00000000 	nop
 2ec:	00000024 	and	zero,zero,zero
 2f0:	0000001c 	0x1c
 2f4:	00000052 	0x52
 2f8:	00370024 	and	zero,at,s7
 2fc:	bfc016fc 	0xbfc016fc
 300:	00000000 	nop
 304:	00370044 	0x370044
	...
 310:	00380044 	0x380044
 314:	00000004 	sllv	zero,zero,zero
 318:	00000000 	nop
 31c:	00390044 	0x390044
 320:	00000008 	jr	zero
 324:	00000000 	nop
 328:	003a0044 	0x3a0044
 32c:	0000000c 	syscall
 330:	00000000 	nop
 334:	003c0044 	0x3c0044
 338:	00000010 	mfhi	zero
 33c:	00000000 	nop
 340:	003d0044 	0x3d0044
 344:	00000014 	0x14
 348:	00000000 	nop
 34c:	003e0044 	0x3e0044
 350:	00000018 	mult	zero,zero
 354:	00000000 	nop
 358:	00000024 	and	zero,zero,zero
 35c:	0000001c 	0x1c
 360:	00000059 	0x59
 364:	00450024 	and	zero,v0,a1
 368:	bfc01718 	0xbfc01718
 36c:	00000000 	nop
 370:	00000024 	and	zero,zero,zero
	...
 37c:	00480044 	0x480044
 380:	bfc01720 	0xbfc01720
 384:	00000068 	0x68
 388:	00490024 	and	zero,v0,t1
 38c:	bfc01720 	0xbfc01720
 390:	00000000 	nop
 394:	00000024 	and	zero,zero,zero
 398:	000000e4 	0xe4
 39c:	0000007b 	0x7b
 3a0:	00000064 	0x64
 3a4:	bfc03410 	0xbfc03410
 3a8:	00000011 	mthi	zero
 3ac:	00000080 	sll	zero,zero,0x2
 3b0:	00000000 	nop
 3b4:	0000008b 	0x8b
 3b8:	000a0024 	and	zero,zero,t2
 3bc:	bfc03410 	0xbfc03410
 3c0:	00000099 	0x99
 3c4:	00000084 	0x84
 3c8:	bfc03410 	0xbfc03410
 3cc:	00000000 	nop
 3d0:	000a0044 	0xa0044
	...
 3dc:	000b0044 	0xb0044
 3e0:	00000010 	mfhi	zero
 3e4:	00000000 	nop
 3e8:	000c0044 	0xc0044
 3ec:	000000cc 	syscall	0x3
 3f0:	00000000 	nop
 3f4:	00100044 	0x100044
 3f8:	000000d0 	0xd0
 3fc:	00000000 	nop
 400:	00120044 	0x120044
 404:	000000d4 	0xd4
 408:	00000000 	nop
 40c:	00140044 	0x140044
 410:	000000d8 	0xd8
 414:	00000000 	nop
 418:	00150044 	0x150044
 41c:	000000dc 	0xdc
 420:	00000000 	nop
 424:	00170044 	0x170044
 428:	000000e0 	0xe0
 42c:	00000000 	nop
 430:	00180044 	0x180044
 434:	000000e4 	0xe4
 438:	00000000 	nop
 43c:	00190044 	0x190044
 440:	000000e8 	0xe8
 444:	00000000 	nop
 448:	001a0044 	0x1a0044
 44c:	000000ec 	0xec
 450:	00000000 	nop
 454:	001b0044 	0x1b0044
 458:	000000f0 	0xf0
 45c:	00000000 	nop
 460:	001c0044 	0x1c0044
 464:	000000f4 	0xf4
 468:	00000000 	nop
 46c:	001d0044 	0x1d0044
 470:	000000fc 	0xfc
 474:	00000000 	nop
 478:	001e0044 	0x1e0044
 47c:	00000100 	sll	zero,zero,0x4
 480:	00000000 	nop
 484:	001f0044 	0x1f0044
 488:	00000104 	0x104
 48c:	00000000 	nop
 490:	00200044 	0x200044
 494:	00000108 	0x108
 498:	00000000 	nop
 49c:	00220044 	0x220044
 4a0:	0000010c 	syscall	0x4
 4a4:	00000000 	nop
 4a8:	00240044 	0x240044
 4ac:	00000110 	0x110
 4b0:	00000000 	nop
 4b4:	00250044 	0x250044
 4b8:	00000114 	0x114
 4bc:	00000000 	nop
 4c0:	00260044 	0x260044
 4c4:	00000118 	0x118
 4c8:	00000000 	nop
 4cc:	00270044 	0x270044
 4d0:	0000011c 	0x11c
 4d4:	00000000 	nop
 4d8:	00280044 	0x280044
 4dc:	00000120 	0x120
 4e0:	00000000 	nop
 4e4:	00290044 	0x290044
 4e8:	00000124 	0x124
 4ec:	00000000 	nop
 4f0:	002b0044 	0x2b0044
 4f4:	00000128 	0x128
 4f8:	00000000 	nop
 4fc:	002d0044 	0x2d0044
 500:	0000012c 	0x12c
 504:	00000000 	nop
 508:	002e0044 	0x2e0044
 50c:	00000130 	0x130
 510:	00000000 	nop
 514:	002f0044 	0x2f0044
 518:	00000134 	0x134
 51c:	00000000 	nop
 520:	00300044 	0x300044
 524:	00000138 	0x138
 528:	00000000 	nop
 52c:	00310044 	0x310044
 530:	0000013c 	0x13c
 534:	00000000 	nop
 538:	00320044 	0x320044
 53c:	00000140 	sll	zero,zero,0x5
 540:	00000000 	nop
 544:	00340044 	0x340044
 548:	00000144 	0x144
 54c:	00000000 	nop
 550:	00350044 	0x350044
 554:	00000148 	0x148
 558:	00000000 	nop
 55c:	00360044 	0x360044
 560:	0000014c 	syscall	0x5
 564:	00000000 	nop
 568:	00370044 	0x370044
 56c:	00000150 	0x150
 570:	00000000 	nop
 574:	00390044 	0x390044
 578:	00000154 	0x154
 57c:	00000000 	nop
 580:	003a0044 	0x3a0044
 584:	00000158 	0x158
 588:	00000000 	nop
 58c:	003b0044 	0x3b0044
 590:	0000015c 	0x15c
 594:	00000000 	nop
 598:	003d0044 	0x3d0044
 59c:	00000160 	0x160
 5a0:	00000000 	nop
 5a4:	003f0044 	0x3f0044
 5a8:	00000164 	0x164
 5ac:	00000000 	nop
 5b0:	00410044 	0x410044
 5b4:	00000168 	0x168
 5b8:	00000000 	nop
 5bc:	00430044 	0x430044
 5c0:	0000016c 	0x16c
 5c4:	00000000 	nop
 5c8:	00440044 	0x440044
 5cc:	00000170 	0x170
 5d0:	00000000 	nop
 5d4:	00000024 	and	zero,zero,zero
 5d8:	00000174 	0x174
 5dc:	00000000 	nop
 5e0:	00530044 	0x530044
 5e4:	bfc03584 	0xbfc03584
 5e8:	00000000 	nop
 5ec:	005c0044 	0x5c0044
 5f0:	bfc03590 	0xbfc03590
 5f4:	00000000 	nop
 5f8:	00630044 	0x630044
 5fc:	bfc03648 	0xbfc03648
 600:	00000000 	nop
 604:	00640044 	0x640044
 608:	bfc0364c 	0xbfc0364c
 60c:	00000000 	nop
 610:	00650044 	0x650044
 614:	bfc03650 	0xbfc03650
 618:	00000000 	nop
 61c:	00670044 	0x670044
 620:	bfc03654 	0xbfc03654
 624:	00000000 	nop
 628:	00680044 	0x680044
 62c:	bfc03658 	0xbfc03658
 630:	00000000 	nop
 634:	00690044 	0x690044
 638:	bfc0365c 	0xbfc0365c
 63c:	00000000 	nop
 640:	006a0044 	0x6a0044
 644:	bfc03660 	0xbfc03660
 648:	00000000 	nop
 64c:	006b0044 	0x6b0044
 650:	bfc03664 	0xbfc03664
 654:	00000000 	nop
 658:	006c0044 	0x6c0044
 65c:	bfc03668 	0xbfc03668
 660:	00000000 	nop
 664:	006e0044 	0x6e0044
 668:	bfc0366c 	0xbfc0366c
 66c:	00000000 	nop
 670:	006f0044 	0x6f0044
 674:	bfc03670 	0xbfc03670
 678:	000000a3 	0xa3
 67c:	00000064 	0x64
 680:	bfc03740 	0xbfc03740
 684:	00000011 	mthi	zero
 688:	00000080 	sll	zero,zero,0x2
 68c:	00000000 	nop
 690:	000000b3 	0xb3
 694:	00070024 	and	zero,zero,a3
 698:	bfc03740 	0xbfc03740
 69c:	000000bf 	0xbf
 6a0:	00000084 	0x84
 6a4:	bfc03740 	0xbfc03740
 6a8:	00000000 	nop
 6ac:	00070044 	0x70044
	...
 6b8:	00080044 	0x80044
 6bc:	00000004 	sllv	zero,zero,zero
 6c0:	00000000 	nop
 6c4:	00090044 	0x90044
 6c8:	00000008 	jr	zero
 6cc:	00000000 	nop
 6d0:	000a0044 	0xa0044
 6d4:	0000000c 	syscall
 6d8:	00000000 	nop
 6dc:	000b0044 	0xb0044
 6e0:	00000010 	mfhi	zero
 6e4:	00000000 	nop
 6e8:	000c0044 	0xc0044
 6ec:	00000014 	0x14
 6f0:	00000000 	nop
 6f4:	000d0044 	0xd0044
 6f8:	00000018 	mult	zero,zero
 6fc:	00000000 	nop
 700:	000f0044 	0xf0044
 704:	0000001c 	0x1c
 708:	00000000 	nop
 70c:	00110044 	0x110044
 710:	00000020 	add	zero,zero,zero
 714:	00000000 	nop
 718:	00120044 	0x120044
 71c:	00000028 	0x28
 720:	00000000 	nop
 724:	00130044 	0x130044
 728:	0000002c 	0x2c
 72c:	00000000 	nop
 730:	00140044 	0x140044
 734:	00000034 	0x34
 738:	00000000 	nop
 73c:	00000024 	and	zero,zero,zero
 740:	00000038 	0x38
 744:	000000ce 	0xce
 748:	00000064 	0x64
 74c:	bfc03990 	0xbfc03990
 750:	000000de 	0xde
 754:	00000084 	0x84
 758:	bfc00380 	0xbfc00380
 75c:	00000000 	nop
 760:	00170044 	0x170044
 764:	bfc00380 	0xbfc00380
 768:	00000000 	nop
 76c:	00180044 	0x180044
 770:	bfc00390 	0xbfc00390
 774:	00000000 	nop
 778:	00240044 	0x240044
 77c:	bfc00400 	0xbfc00400
 780:	00000000 	nop
 784:	00250044 	0x250044
 788:	bfc00404 	0xbfc00404
 78c:	00000000 	nop
 790:	00270044 	0x270044
 794:	bfc0040c 	0xbfc0040c
 798:	00000000 	nop
 79c:	00280044 	0x280044
 7a0:	bfc00410 	0xbfc00410
 7a4:	00000000 	nop
 7a8:	00290044 	0x290044
 7ac:	bfc00414 	0xbfc00414
 7b0:	00000000 	nop
 7b4:	002b0044 	0x2b0044
 7b8:	bfc00418 	0xbfc00418
 7bc:	00000000 	nop
 7c0:	002c0044 	0x2c0044
 7c4:	bfc0041c 	0xbfc0041c
 7c8:	00000000 	nop
 7cc:	002d0044 	0x2d0044
 7d0:	bfc00420 	0xbfc00420
 7d4:	00000011 	mthi	zero
 7d8:	00000080 	sll	zero,zero,0x2
 7dc:	00000000 	nop
 7e0:	000000e9 	0xe9
 7e4:	003a0024 	and	zero,at,k0
 7e8:	bfc03990 	0xbfc03990
 7ec:	00000000 	nop
 7f0:	003b0044 	0x3b0044
	...
 7fc:	003f0044 	0x3f0044
 800:	00000004 	sllv	zero,zero,zero
 804:	00000000 	nop
 808:	00410044 	0x410044
 80c:	000000c0 	ehb
 810:	00000000 	nop
 814:	00420044 	0x420044
 818:	000000c4 	0xc4
 81c:	00000000 	nop
 820:	00440044 	0x440044
 824:	000000c8 	0xc8
 828:	00000000 	nop
 82c:	00000024 	and	zero,zero,zero
 830:	000000cc 	syscall	0x3
 834:	00000000 	nop
 838:	004d0044 	0x4d0044
 83c:	bfc03a5c 	0xbfc03a5c
 840:	00000000 	nop
 844:	004e0044 	0x4e0044
 848:	bfc03a60 	0xbfc03a60
 84c:	000000f7 	0xf7
 850:	00000064 	0x64
 854:	bfc03a70 	0xbfc03a70
 858:	00000011 	mthi	zero
 85c:	00000080 	sll	zero,zero,0x2
 860:	00000000 	nop
 864:	00000107 	0x107
 868:	000a0024 	and	zero,zero,t2
 86c:	bfc00000 	0xbfc00000
 870:	00000112 	0x112
 874:	00000084 	0x84
 878:	bfc00000 	0xbfc00000
 87c:	00000000 	nop
 880:	000a0044 	0xa0044
	...
 88c:	000b0044 	0xb0044
 890:	00000004 	sllv	zero,zero,zero
 894:	00000000 	nop
 898:	000c0044 	0xc0044
 89c:	00000008 	jr	zero
 8a0:	00000000 	nop
 8a4:	000e0044 	0xe0044
 8a8:	0000000c 	syscall
 8ac:	00000000 	nop
 8b0:	000f0044 	0xf0044
 8b4:	00000010 	mfhi	zero
 8b8:	00000000 	nop
 8bc:	00000024 	and	zero,zero,zero
 8c0:	00000014 	0x14
 8c4:	0000011a 	0x11a
 8c8:	00140024 	and	zero,zero,s4
 8cc:	bfc00014 	0xbfc00014
 8d0:	00000000 	nop
 8d4:	00140044 	0x140044
	...
 8e0:	00150044 	0x150044
 8e4:	00000004 	sllv	zero,zero,zero
 8e8:	00000000 	nop
 8ec:	00160044 	0x160044
 8f0:	00000008 	jr	zero
 8f4:	00000000 	nop
 8f8:	00170044 	0x170044
 8fc:	0000000c 	syscall
 900:	00000000 	nop
 904:	00180044 	0x180044
 908:	00000010 	mfhi	zero
 90c:	00000000 	nop
 910:	00190044 	0x190044
 914:	00000014 	0x14
 918:	00000000 	nop
 91c:	001c0044 	0x1c0044
 920:	00000018 	mult	zero,zero
 924:	00000000 	nop
 928:	001d0044 	0x1d0044
 92c:	0000001c 	0x1c
 930:	00000000 	nop
 934:	001e0044 	0x1e0044
 938:	00000020 	add	zero,zero,zero
 93c:	00000000 	nop
 940:	00200044 	0x200044
 944:	00000024 	and	zero,zero,zero
 948:	00000000 	nop
 94c:	00210044 	0x210044
 950:	00000028 	0x28
 954:	00000000 	nop
 958:	00000024 	and	zero,zero,zero
 95c:	0000002c 	0x2c
 960:	00000129 	0x129
 964:	00260024 	and	zero,at,a2
 968:	bfc00040 	0xbfc00040
 96c:	00000000 	nop
 970:	00260044 	0x260044
	...
 97c:	00270044 	0x270044
 980:	00000004 	sllv	zero,zero,zero
 984:	00000000 	nop
 988:	00280044 	0x280044
 98c:	00000008 	jr	zero
 990:	00000000 	nop
 994:	00290044 	0x290044
 998:	0000000c 	syscall
 99c:	00000000 	nop
 9a0:	00000024 	and	zero,zero,zero
 9a4:	00000010 	mfhi	zero

Disassembly of section .stabstr:

00000000 <.stabstr>:
   0:	6d742f00 	0x6d742f00
   4:	63632f70 	0x63632f70
   8:	477a4d63 	c1	0x17a4d63
   c:	732e3433 	0x732e3433
  10:	696f7600 	0x696f7600
  14:	31743a64 	andi	s4,t3,0x3a64
  18:	6500313d 	0x6500313d
  1c:	705f766e 	0x705f766e
  20:	745f706f 	jalx	17dc1bc <__bss_start-0x8e823e44>
  24:	31463a66 	andi	a2,t2,0x3a66
  28:	766e6500 	jalx	9b99400 <__bss_start-0x86466c00>
  2c:	6d73615f 	0x6d73615f
  30:	2f00532e 	sltiu	zero,t8,21294
  34:	2f706d74 	sltiu	s0,k1,28020
  38:	61486363 	0x61486363
  3c:	3352334a 	andi	s2,k0,0x334a
  40:	4d00732e 	bc3f	1ccfc <__bss_start-0x8ffe3304>
  44:	463a444f 	c1	0x3a444f
  48:	65670031 	0x65670031
  4c:	2e78656e 	sltiu	t8,s3,25966
  50:	49440053 	0x49440053
  54:	31463a56 	andi	a2,t2,0x3a56
  58:	5f6f6400 	0x5f6f6400
  5c:	65736572 	0x65736572
  60:	64657672 	0x64657672
  64:	0031463a 	0x31463a
  68:	646e6168 	0x646e6168
  6c:	725f656c 	0x725f656c
  70:	72657365 	0x72657365
  74:	3a646576 	xori	a0,s3,0x6576
  78:	2f003146 	sltiu	zero,t8,12614
  7c:	2f706d74 	sltiu	s0,k1,28020
  80:	75316363 	jalx	4c58d8c <__bss_start-0x8b3a7274>
  84:	75444e33 	jalx	51138cc <__bss_start-0x8aeec734>
  88:	6800732e 	0x6800732e
  8c:	6c646e61 	0x6c646e61
  90:	79735f65 	0x79735f65
  94:	31463a73 	andi	a2,t2,0x3a73
  98:	73797300 	0x73797300
  9c:	6c6c6163 	0x6c6c6163
  a0:	2f00532e 	sltiu	zero,t8,21294
  a4:	2f706d74 	sltiu	s0,k1,28020
  a8:	58726363 	0x58726363
  ac:	35765475 	ori	s6,t3,0x5475
  b0:	6d00732e 	0x6d00732e
  b4:	63737973 	0x63737973
  b8:	3a6c6c61 	xori	t4,s3,0x6c61
  bc:	73003146 	0x73003146
  c0:	61637379 	0x61637379
  c4:	775f6c6c 	jalx	d7db1b0 <__bss_start-0x82824e50>
  c8:	2e706172 	sltiu	s0,s3,24946
  cc:	742f0053 	jalx	bc014c <__bss_start-0x8f43feb4>
  d0:	632f706d 	0x632f706d
  d4:	42783263 	c0	0x783263
  d8:	2e6c317a 	sltiu	t4,s3,12666
  dc:	6e690073 	0x6e690073
  e0:	75726574 	jalx	5c995d0 <__bss_start-0x8a366a30>
  e4:	532e7470 	0x532e7470
  e8:	6e616800 	0x6e616800
  ec:	5f656c64 	0x5f656c64
  f0:	3a746e69 	xori	s4,s3,0x6e69
  f4:	2f003146 	sltiu	zero,t8,12614
  f8:	2f706d74 	sltiu	s0,k1,28020
  fc:	36306363 	ori	s0,s1,0x6363
 100:	36333738 	ori	s3,s1,0x3738
 104:	5f00732e 	0x5f00732e
 108:	72617473 	0x72617473
 10c:	463a5f74 	c1	0x3a5f74
 110:	74730031 	jalx	1cc00c4 <__bss_start-0x8e33ff3c>
 114:	2e747261 	sltiu	s4,s3,29281
 118:	74730053 	jalx	1cc014c <__bss_start-0x8e33feb4>
 11c:	5f747261 	0x5f747261
 120:	656d6974 	0x656d6974
 124:	31463a72 	andi	a2,t2,0x3a72
 128:	75707500 	jalx	5c1d400 <__bss_start-0x8a3e2c00>
 12c:	31463a74 	andi	a2,t2,0x3a74
	...

Disassembly of section .debug_ranges:

00000000 <.debug_ranges>:
   0:	000001a4 	0x1a4
   4:	00000234 	0x234
   8:	00000a50 	0xa50
   c:	00000a54 	0xa54
	...
